ARM GAS  C:\Users\alvin\AppData\Local\Temp\cc0iGj3s.s 			page 1


   1              		.cpu cortex-m0
   2              		.fpu softvfp
   3              		.eabi_attribute 20, 1
   4              		.eabi_attribute 21, 1
   5              		.eabi_attribute 23, 3
   6              		.eabi_attribute 24, 1
   7              		.eabi_attribute 25, 1
   8              		.eabi_attribute 26, 1
   9              		.eabi_attribute 30, 1
  10              		.eabi_attribute 34, 0
  11              		.eabi_attribute 18, 4
  12              		.code	16
  13              		.file	"ble_eventHandler.c"
  14              		.text
  15              	.Ltext0:
  16              		.cfi_sections	.debug_frame
  17              		.section	.text.CyBle_GattDisconnectEventHandler,"ax",%progbits
  18              		.align	2
  19              		.code	16
  20              		.thumb_func
  21              		.type	CyBle_GattDisconnectEventHandler, %function
  22              	CyBle_GattDisconnectEventHandler:
  23              	.LFB4:
  24              		.file 1 ".\\Generated_Source\\PSoC4\\ble_eventHandler.c"
   1:.\Generated_Source\PSoC4/ble_eventHandler.c **** /***************************************************************************//**
   2:.\Generated_Source\PSoC4/ble_eventHandler.c **** * \file CYBLE_eventHandler.c
   3:.\Generated_Source\PSoC4/ble_eventHandler.c **** * \version 3.10
   4:.\Generated_Source\PSoC4/ble_eventHandler.c **** * 
   5:.\Generated_Source\PSoC4/ble_eventHandler.c **** * \brief
   6:.\Generated_Source\PSoC4/ble_eventHandler.c **** *  This file contains the source code for the Event Handler State Machine
   7:.\Generated_Source\PSoC4/ble_eventHandler.c **** *  of the BLE Component.
   8:.\Generated_Source\PSoC4/ble_eventHandler.c **** * 
   9:.\Generated_Source\PSoC4/ble_eventHandler.c **** ********************************************************************************
  10:.\Generated_Source\PSoC4/ble_eventHandler.c **** * \copyright
  11:.\Generated_Source\PSoC4/ble_eventHandler.c **** * Copyright 2014-2016, Cypress Semiconductor Corporation.  All rights reserved.
  12:.\Generated_Source\PSoC4/ble_eventHandler.c **** * You may use this file only in accordance with the license, terms, conditions,
  13:.\Generated_Source\PSoC4/ble_eventHandler.c **** * disclaimers, and limitations in the end user license agreement accompanying
  14:.\Generated_Source\PSoC4/ble_eventHandler.c **** * the software package with which this file was provided.
  15:.\Generated_Source\PSoC4/ble_eventHandler.c **** *******************************************************************************/
  16:.\Generated_Source\PSoC4/ble_eventHandler.c **** 
  17:.\Generated_Source\PSoC4/ble_eventHandler.c **** #include "ble_eventHandler.h"
  18:.\Generated_Source\PSoC4/ble_eventHandler.c **** 
  19:.\Generated_Source\PSoC4/ble_eventHandler.c **** 
  20:.\Generated_Source\PSoC4/ble_eventHandler.c **** /***************************************
  21:.\Generated_Source\PSoC4/ble_eventHandler.c **** * Private Function Prototypes
  22:.\Generated_Source\PSoC4/ble_eventHandler.c **** ***************************************/
  23:.\Generated_Source\PSoC4/ble_eventHandler.c **** 
  24:.\Generated_Source\PSoC4/ble_eventHandler.c **** static void CyBle_GattDisconnectEventHandler(void);
  25:.\Generated_Source\PSoC4/ble_eventHandler.c **** static void CyBle_TimeOutEventHandler(const CYBLE_TO_REASON_CODE_T *eventParam);
  26:.\Generated_Source\PSoC4/ble_eventHandler.c **** static void CyBle_GattConnectReqHandler(void);
  27:.\Generated_Source\PSoC4/ble_eventHandler.c **** static void CyBle_L2Cap_ConnParamUpdateRspEventHandler(uint16 response);
  28:.\Generated_Source\PSoC4/ble_eventHandler.c **** static void CyBle_GapConnUpdateCompleteEventHandler(const CYBLE_GAP_CONN_PARAM_UPDATED_IN_CONTROLLE
  29:.\Generated_Source\PSoC4/ble_eventHandler.c **** 
  30:.\Generated_Source\PSoC4/ble_eventHandler.c **** 
  31:.\Generated_Source\PSoC4/ble_eventHandler.c **** #if (CYBLE_GATT_ROLE_SERVER)
  32:.\Generated_Source\PSoC4/ble_eventHandler.c **** 
  33:.\Generated_Source\PSoC4/ble_eventHandler.c **** static void CyBle_WriteReqHandler(CYBLE_GATTS_WRITE_REQ_PARAM_T *eventParam);
ARM GAS  C:\Users\alvin\AppData\Local\Temp\cc0iGj3s.s 			page 2


  34:.\Generated_Source\PSoC4/ble_eventHandler.c **** static void CyBle_ValueConfirmation(const CYBLE_CONN_HANDLE_T *eventParam);
  35:.\Generated_Source\PSoC4/ble_eventHandler.c **** 
  36:.\Generated_Source\PSoC4/ble_eventHandler.c **** #endif /* CYBLE_GATT_ROLE_SERVER */
  37:.\Generated_Source\PSoC4/ble_eventHandler.c **** 
  38:.\Generated_Source\PSoC4/ble_eventHandler.c **** #if (CYBLE_GATT_ROLE_CLIENT)
  39:.\Generated_Source\PSoC4/ble_eventHandler.c **** 
  40:.\Generated_Source\PSoC4/ble_eventHandler.c **** static void CyBle_GapcDiscoverCharacteristicsEventHandler(CYBLE_DISC_CHAR_INFO_T *discCharInfo);
  41:.\Generated_Source\PSoC4/ble_eventHandler.c **** static CYBLE_GATT_ATTR_HANDLE_RANGE_T CyBle_GetCharRange(void);
  42:.\Generated_Source\PSoC4/ble_eventHandler.c **** static void CyBle_GattcWriteResponseEventHandler(const CYBLE_CONN_HANDLE_T *eventParam);
  43:.\Generated_Source\PSoC4/ble_eventHandler.c **** static void CyBle_NotificationEventHandler(CYBLE_GATTC_HANDLE_VALUE_NTF_PARAM_T *eventParam);
  44:.\Generated_Source\PSoC4/ble_eventHandler.c **** static void CyBle_IndicationEventHandler(CYBLE_GATTC_HANDLE_VALUE_IND_PARAM_T *eventParam);
  45:.\Generated_Source\PSoC4/ble_eventHandler.c **** static void CyBle_ReadResponseEventHandler(CYBLE_GATTC_READ_RSP_PARAM_T *eventParam);
  46:.\Generated_Source\PSoC4/ble_eventHandler.c **** static void CyBle_ReadMultipleResponseEventHandler(CYBLE_GATTC_READ_RSP_PARAM_T *eventParam);
  47:.\Generated_Source\PSoC4/ble_eventHandler.c **** 
  48:.\Generated_Source\PSoC4/ble_eventHandler.c **** #endif /* CYBLE_GATT_ROLE_CLIENT */
  49:.\Generated_Source\PSoC4/ble_eventHandler.c **** 
  50:.\Generated_Source\PSoC4/ble_eventHandler.c **** 
  51:.\Generated_Source\PSoC4/ble_eventHandler.c **** /***************************************
  52:.\Generated_Source\PSoC4/ble_eventHandler.c **** * Global Variables
  53:.\Generated_Source\PSoC4/ble_eventHandler.c **** ***************************************/
  54:.\Generated_Source\PSoC4/ble_eventHandler.c **** 
  55:.\Generated_Source\PSoC4/ble_eventHandler.c **** /* This global variable is initialized after connection with peer device, 
  56:.\Generated_Source\PSoC4/ble_eventHandler.c ****    after CYBLE_EVT_GATT_CONNECT_IND event, and could be used by application code
  57:.\Generated_Source\PSoC4/ble_eventHandler.c ****    to send data to peer device. 
  58:.\Generated_Source\PSoC4/ble_eventHandler.c **** */
  59:.\Generated_Source\PSoC4/ble_eventHandler.c **** CYBLE_CONN_HANDLE_T cyBle_connHandle;
  60:.\Generated_Source\PSoC4/ble_eventHandler.c **** 
  61:.\Generated_Source\PSoC4/ble_eventHandler.c **** volatile uint8 cyBle_eventHandlerFlag;
  62:.\Generated_Source\PSoC4/ble_eventHandler.c **** volatile uint8 cyBle_busyStatus;
  63:.\Generated_Source\PSoC4/ble_eventHandler.c **** 
  64:.\Generated_Source\PSoC4/ble_eventHandler.c **** #if(CYBLE_GAP_ROLE_PERIPHERAL || CYBLE_GAP_ROLE_BROADCASTER) 
  65:.\Generated_Source\PSoC4/ble_eventHandler.c ****     uint8 cyBle_advertisingIntervalType;
  66:.\Generated_Source\PSoC4/ble_eventHandler.c **** #endif /* CYBLE_GAP_ROLE_PERIPHERAL || CYBLE_GAP_ROLE_BROADCASTER) */
  67:.\Generated_Source\PSoC4/ble_eventHandler.c **** 
  68:.\Generated_Source\PSoC4/ble_eventHandler.c **** #if(CYBLE_GAP_ROLE_CENTRAL || CYBLE_GAP_ROLE_OBSERVER) 
  69:.\Generated_Source\PSoC4/ble_eventHandler.c ****     uint8 cyBle_scanningIntervalType;
  70:.\Generated_Source\PSoC4/ble_eventHandler.c **** #endif /* CYBLE_GAP_ROLE_CENTRAL || CYBLE_GAP_ROLE_OBSERVER */
  71:.\Generated_Source\PSoC4/ble_eventHandler.c **** 
  72:.\Generated_Source\PSoC4/ble_eventHandler.c **** #if(CYBLE_GATT_ROLE_SERVER)
  73:.\Generated_Source\PSoC4/ble_eventHandler.c **** #if defined CYBLE_CTS_SERVER || defined CYBLE_ESS_SERVER
  74:.\Generated_Source\PSoC4/ble_eventHandler.c **** CYBLE_GATT_ERR_CODE_T cyBle_gattError;
  75:.\Generated_Source\PSoC4/ble_eventHandler.c **** #endif /* defined CYBLE_CTS_SERVER || defined CYBLE_ESS_SERVER */
  76:.\Generated_Source\PSoC4/ble_eventHandler.c **** #endif /* CYBLE_GATT_ROLE_SERVER */
  77:.\Generated_Source\PSoC4/ble_eventHandler.c **** 
  78:.\Generated_Source\PSoC4/ble_eventHandler.c **** #if(CYBLE_GATT_ROLE_CLIENT)
  79:.\Generated_Source\PSoC4/ble_eventHandler.c **** uint8 cyBle_disCount; /* Counter for discovery procedures */
  80:.\Generated_Source\PSoC4/ble_eventHandler.c **** 
  81:.\Generated_Source\PSoC4/ble_eventHandler.c **** #ifdef CYBLE_CUSTOM_CLIENT
  82:.\Generated_Source\PSoC4/ble_eventHandler.c **** /* Discovery included service information, used for 128-bit UUID read response handle 
  83:.\Generated_Source\PSoC4/ble_eventHandler.c ****    and for continue discovery. 
  84:.\Generated_Source\PSoC4/ble_eventHandler.c **** */
  85:.\Generated_Source\PSoC4/ble_eventHandler.c **** static CYBLE_DISC_INCL_INFO_T cyBle_discInclInfo;
  86:.\Generated_Source\PSoC4/ble_eventHandler.c **** #endif /* CYBLE_CUSTOM_CLIENT */
  87:.\Generated_Source\PSoC4/ble_eventHandler.c **** 
  88:.\Generated_Source\PSoC4/ble_eventHandler.c **** #ifdef CYBLE_HIDS_CLIENT
  89:.\Generated_Source\PSoC4/ble_eventHandler.c ****     static uint8 disServiceIndex;      /* To discovery descriptors for multiple HID service instanc
  90:.\Generated_Source\PSoC4/ble_eventHandler.c **** #endif /* CYBLE_HIDS_CLIENT */
ARM GAS  C:\Users\alvin\AppData\Local\Temp\cc0iGj3s.s 			page 3


  91:.\Generated_Source\PSoC4/ble_eventHandler.c **** 
  92:.\Generated_Source\PSoC4/ble_eventHandler.c **** CYBLE_DISC_SRVC_INFO_T cyBle_serverInfo[CYBLE_SRVI_COUNT] = /*3*/
  93:.\Generated_Source\PSoC4/ble_eventHandler.c **** {
  94:.\Generated_Source\PSoC4/ble_eventHandler.c ****     {{CYBLE_GATT_INVALID_ATTR_HANDLE_VALUE, CYBLE_GATT_INVALID_ATTR_HANDLE_VALUE}, CYBLE_UUID_GAP_S
  95:.\Generated_Source\PSoC4/ble_eventHandler.c ****     {{CYBLE_GATT_INVALID_ATTR_HANDLE_VALUE, CYBLE_GATT_INVALID_ATTR_HANDLE_VALUE}, CYBLE_UUID_GATT_
  96:.\Generated_Source\PSoC4/ble_eventHandler.c **** #ifdef CYBLE_ANCS_CLIENT
  97:.\Generated_Source\PSoC4/ble_eventHandler.c ****     {{CYBLE_GATT_INVALID_ATTR_HANDLE_VALUE, CYBLE_GATT_INVALID_ATTR_HANDLE_VALUE}, 0x0000u},
  98:.\Generated_Source\PSoC4/ble_eventHandler.c **** #endif /* CYBLE_ANCS_CLIENT */
  99:.\Generated_Source\PSoC4/ble_eventHandler.c **** #ifdef CYBLE_ANS_CLIENT
 100:.\Generated_Source\PSoC4/ble_eventHandler.c ****     {{CYBLE_GATT_INVALID_ATTR_HANDLE_VALUE, CYBLE_GATT_INVALID_ATTR_HANDLE_VALUE}, 
 101:.\Generated_Source\PSoC4/ble_eventHandler.c ****         CYBLE_UUID_ALERT_NOTIFICATION_SERVICE},
 102:.\Generated_Source\PSoC4/ble_eventHandler.c **** #endif /* CYBLE_ANS_CLIENT */
 103:.\Generated_Source\PSoC4/ble_eventHandler.c **** #ifdef CYBLE_BAS_CLIENT
 104:.\Generated_Source\PSoC4/ble_eventHandler.c ****     {{CYBLE_GATT_INVALID_ATTR_HANDLE_VALUE, CYBLE_GATT_INVALID_ATTR_HANDLE_VALUE}, CYBLE_UUID_BAS_S
 105:.\Generated_Source\PSoC4/ble_eventHandler.c ****     #if(CYBLE_BASC_SERVICE_COUNT > 1u) /* Generate it by GUI */
 106:.\Generated_Source\PSoC4/ble_eventHandler.c ****         
 107:.\Generated_Source\PSoC4/ble_eventHandler.c ****     #endif /* CYBLE_BASC_SERVICE_COUNT > 1u */
 108:.\Generated_Source\PSoC4/ble_eventHandler.c **** #endif /* CYBLE_BAS_CLIENT */
 109:.\Generated_Source\PSoC4/ble_eventHandler.c **** #ifdef CYBLE_BCS_CLIENT
 110:.\Generated_Source\PSoC4/ble_eventHandler.c ****     {{CYBLE_GATT_INVALID_ATTR_HANDLE_VALUE, CYBLE_GATT_INVALID_ATTR_HANDLE_VALUE}, CYBLE_UUID_BODY_
 111:.\Generated_Source\PSoC4/ble_eventHandler.c **** #endif /* CYBLE_BCS_CLIENT */
 112:.\Generated_Source\PSoC4/ble_eventHandler.c **** #ifdef CYBLE_BLS_CLIENT
 113:.\Generated_Source\PSoC4/ble_eventHandler.c ****     {{CYBLE_GATT_INVALID_ATTR_HANDLE_VALUE, CYBLE_GATT_INVALID_ATTR_HANDLE_VALUE}, CYBLE_UUID_BLOOD
 114:.\Generated_Source\PSoC4/ble_eventHandler.c **** #endif /* CYBLE_BLS_CLIENT */
 115:.\Generated_Source\PSoC4/ble_eventHandler.c **** #ifdef CYBLE_BMS_CLIENT
 116:.\Generated_Source\PSoC4/ble_eventHandler.c ****     {{CYBLE_GATT_INVALID_ATTR_HANDLE_VALUE, CYBLE_GATT_INVALID_ATTR_HANDLE_VALUE}, CYBLE_UUID_BOND_
 117:.\Generated_Source\PSoC4/ble_eventHandler.c **** #endif /* CYBLE_BMS_CLIENT */
 118:.\Generated_Source\PSoC4/ble_eventHandler.c **** #ifdef CYBLE_CGMS_CLIENT
 119:.\Generated_Source\PSoC4/ble_eventHandler.c ****     {{CYBLE_GATT_INVALID_ATTR_HANDLE_VALUE, CYBLE_GATT_INVALID_ATTR_HANDLE_VALUE}, CYBLE_UUID_CGM_S
 120:.\Generated_Source\PSoC4/ble_eventHandler.c **** #endif /* CYBLE_CGMS_CLIENT */
 121:.\Generated_Source\PSoC4/ble_eventHandler.c **** #ifdef CYBLE_CPS_CLIENT
 122:.\Generated_Source\PSoC4/ble_eventHandler.c ****     {{CYBLE_GATT_INVALID_ATTR_HANDLE_VALUE, CYBLE_GATT_INVALID_ATTR_HANDLE_VALUE}, CYBLE_UUID_CPS_S
 123:.\Generated_Source\PSoC4/ble_eventHandler.c **** #endif /* CYBLE_CPS_CLIENT */
 124:.\Generated_Source\PSoC4/ble_eventHandler.c **** #ifdef CYBLE_CSCS_CLIENT
 125:.\Generated_Source\PSoC4/ble_eventHandler.c ****     {{CYBLE_GATT_INVALID_ATTR_HANDLE_VALUE, CYBLE_GATT_INVALID_ATTR_HANDLE_VALUE}, 
 126:.\Generated_Source\PSoC4/ble_eventHandler.c ****         CYBLE_UUID_CYCLING_SPEED_AND_CADENCE_SERVICE},
 127:.\Generated_Source\PSoC4/ble_eventHandler.c **** #endif /* CYBLE_CSCS_CLIENT */
 128:.\Generated_Source\PSoC4/ble_eventHandler.c **** #ifdef CYBLE_CTS_CLIENT
 129:.\Generated_Source\PSoC4/ble_eventHandler.c ****     {{CYBLE_GATT_INVALID_ATTR_HANDLE_VALUE, CYBLE_GATT_INVALID_ATTR_HANDLE_VALUE}, CYBLE_UUID_CURRE
 130:.\Generated_Source\PSoC4/ble_eventHandler.c **** #endif /* CYBLE_CTS_CLIENT */
 131:.\Generated_Source\PSoC4/ble_eventHandler.c **** #ifdef CYBLE_CUSTOM_CLIENT
 132:.\Generated_Source\PSoC4/ble_eventHandler.c ****     
 133:.\Generated_Source\PSoC4/ble_eventHandler.c **** #endif /* CYBLE_CUSTOM_CLIENT */
 134:.\Generated_Source\PSoC4/ble_eventHandler.c **** #ifdef CYBLE_DIS_CLIENT
 135:.\Generated_Source\PSoC4/ble_eventHandler.c ****     {{CYBLE_GATT_INVALID_ATTR_HANDLE_VALUE, CYBLE_GATT_INVALID_ATTR_HANDLE_VALUE}, CYBLE_UUID_DEVIC
 136:.\Generated_Source\PSoC4/ble_eventHandler.c **** #endif /* CYBLE_DIS_CLIENT */
 137:.\Generated_Source\PSoC4/ble_eventHandler.c **** #ifdef CYBLE_ESS_CLIENT
 138:.\Generated_Source\PSoC4/ble_eventHandler.c ****     {{CYBLE_GATT_INVALID_ATTR_HANDLE_VALUE, CYBLE_GATT_INVALID_ATTR_HANDLE_VALUE}, 
 139:.\Generated_Source\PSoC4/ble_eventHandler.c ****         CYBLE_UUID_ENVIRONMENTAL_SENSING_SERVICE},
 140:.\Generated_Source\PSoC4/ble_eventHandler.c **** #endif /* CYBLE_ESS_CLIENT */
 141:.\Generated_Source\PSoC4/ble_eventHandler.c **** #ifdef CYBLE_GLS_CLIENT
 142:.\Generated_Source\PSoC4/ble_eventHandler.c ****     {{CYBLE_GATT_INVALID_ATTR_HANDLE_VALUE, CYBLE_GATT_INVALID_ATTR_HANDLE_VALUE}, CYBLE_UUID_GLUCO
 143:.\Generated_Source\PSoC4/ble_eventHandler.c **** #endif /* CYBLE_GLS_CLIENT */
 144:.\Generated_Source\PSoC4/ble_eventHandler.c **** #ifdef CYBLE_HIDS_CLIENT
 145:.\Generated_Source\PSoC4/ble_eventHandler.c ****     {{CYBLE_GATT_INVALID_ATTR_HANDLE_VALUE, CYBLE_GATT_INVALID_ATTR_HANDLE_VALUE}, CYBLE_UUID_HIDS_
 146:.\Generated_Source\PSoC4/ble_eventHandler.c ****     #if(CYBLE_HIDSC_SERVICE_COUNT > 1u) /* Generate it by GUI */
 147:.\Generated_Source\PSoC4/ble_eventHandler.c ****         
ARM GAS  C:\Users\alvin\AppData\Local\Temp\cc0iGj3s.s 			page 4


 148:.\Generated_Source\PSoC4/ble_eventHandler.c ****     #endif /* CYBLE_HIDSC_SERVICE_COUNT > 1u */
 149:.\Generated_Source\PSoC4/ble_eventHandler.c **** #endif /* CYBLE_HIDS_CLIENT */
 150:.\Generated_Source\PSoC4/ble_eventHandler.c **** #ifdef CYBLE_HPS_CLIENT
 151:.\Generated_Source\PSoC4/ble_eventHandler.c ****     {{CYBLE_GATT_INVALID_ATTR_HANDLE_VALUE, CYBLE_GATT_INVALID_ATTR_HANDLE_VALUE}, CYBLE_UUID_HTTP_
 152:.\Generated_Source\PSoC4/ble_eventHandler.c **** #endif /* CYBLE_HPS_CLIENT */
 153:.\Generated_Source\PSoC4/ble_eventHandler.c **** #ifdef CYBLE_HRS_CLIENT
 154:.\Generated_Source\PSoC4/ble_eventHandler.c ****     {{CYBLE_GATT_INVALID_ATTR_HANDLE_VALUE, CYBLE_GATT_INVALID_ATTR_HANDLE_VALUE}, CYBLE_UUID_HEART
 155:.\Generated_Source\PSoC4/ble_eventHandler.c **** #endif /* CYBLE_HRS_CLIENT */
 156:.\Generated_Source\PSoC4/ble_eventHandler.c **** #ifdef CYBLE_HTS_CLIENT
 157:.\Generated_Source\PSoC4/ble_eventHandler.c ****     {{CYBLE_GATT_INVALID_ATTR_HANDLE_VALUE, CYBLE_GATT_INVALID_ATTR_HANDLE_VALUE}, CYBLE_UUID_HEALT
 158:.\Generated_Source\PSoC4/ble_eventHandler.c **** #endif /* CYBLE_HTS_CLIENT */
 159:.\Generated_Source\PSoC4/ble_eventHandler.c **** #ifdef CYBLE_IAS_CLIENT
 160:.\Generated_Source\PSoC4/ble_eventHandler.c ****     {{CYBLE_GATT_INVALID_ATTR_HANDLE_VALUE, CYBLE_GATT_INVALID_ATTR_HANDLE_VALUE}, CYBLE_UUID_IMMED
 161:.\Generated_Source\PSoC4/ble_eventHandler.c **** #endif /* CYBLE_IAS_CLIENT */
 162:.\Generated_Source\PSoC4/ble_eventHandler.c **** #ifdef CYBLE_IPS_CLIENT
 163:.\Generated_Source\PSoC4/ble_eventHandler.c ****     {{CYBLE_GATT_INVALID_ATTR_HANDLE_VALUE, CYBLE_GATT_INVALID_ATTR_HANDLE_VALUE}, CYBLE_UUID_IPS_S
 164:.\Generated_Source\PSoC4/ble_eventHandler.c **** #endif /* CYBLE_IPS_CLIENT */
 165:.\Generated_Source\PSoC4/ble_eventHandler.c **** #ifdef CYBLE_LLS_CLIENT
 166:.\Generated_Source\PSoC4/ble_eventHandler.c ****     {{CYBLE_GATT_INVALID_ATTR_HANDLE_VALUE, CYBLE_GATT_INVALID_ATTR_HANDLE_VALUE}, CYBLE_UUID_LINK_
 167:.\Generated_Source\PSoC4/ble_eventHandler.c **** #endif /* CYBLE_LLS_CLIENT */
 168:.\Generated_Source\PSoC4/ble_eventHandler.c **** #ifdef CYBLE_LNS_CLIENT
 169:.\Generated_Source\PSoC4/ble_eventHandler.c ****     {{CYBLE_GATT_INVALID_ATTR_HANDLE_VALUE, CYBLE_GATT_INVALID_ATTR_HANDLE_VALUE}, CYBLE_UUID_LOCAT
 170:.\Generated_Source\PSoC4/ble_eventHandler.c **** #endif /* CYBLE_LNS_CLIENT */
 171:.\Generated_Source\PSoC4/ble_eventHandler.c **** #ifdef CYBLE_NDCS_CLIENT
 172:.\Generated_Source\PSoC4/ble_eventHandler.c ****     {{CYBLE_GATT_INVALID_ATTR_HANDLE_VALUE, CYBLE_GATT_INVALID_ATTR_HANDLE_VALUE}, CYBLE_UUID_NEXT_
 173:.\Generated_Source\PSoC4/ble_eventHandler.c **** #endif /* CYBLE_NDCS_CLIENT */
 174:.\Generated_Source\PSoC4/ble_eventHandler.c **** #ifdef CYBLE_IPSS_CLIENT
 175:.\Generated_Source\PSoC4/ble_eventHandler.c ****     {{CYBLE_GATT_INVALID_ATTR_HANDLE_VALUE, CYBLE_GATT_INVALID_ATTR_HANDLE_VALUE}, CYBLE_UUID_INTER
 176:.\Generated_Source\PSoC4/ble_eventHandler.c **** #endif /* CYBLE_IPSS_CLIENT */
 177:.\Generated_Source\PSoC4/ble_eventHandler.c **** #ifdef CYBLE_PASS_CLIENT
 178:.\Generated_Source\PSoC4/ble_eventHandler.c ****     {{CYBLE_GATT_INVALID_ATTR_HANDLE_VALUE, CYBLE_GATT_INVALID_ATTR_HANDLE_VALUE}, CYBLE_UUID_PHONE
 179:.\Generated_Source\PSoC4/ble_eventHandler.c **** #endif /* CYBLE_PASS_CLIENT */
 180:.\Generated_Source\PSoC4/ble_eventHandler.c **** #ifdef CYBLE_RSCS_CLIENT
 181:.\Generated_Source\PSoC4/ble_eventHandler.c ****     {{CYBLE_GATT_INVALID_ATTR_HANDLE_VALUE, CYBLE_GATT_INVALID_ATTR_HANDLE_VALUE}, CYBLE_UUID_RUNNI
 182:.\Generated_Source\PSoC4/ble_eventHandler.c **** #endif /* CYBLE_RSCS_CLIENT */
 183:.\Generated_Source\PSoC4/ble_eventHandler.c **** #ifdef CYBLE_RTUS_CLIENT
 184:.\Generated_Source\PSoC4/ble_eventHandler.c ****     {{CYBLE_GATT_INVALID_ATTR_HANDLE_VALUE, CYBLE_GATT_INVALID_ATTR_HANDLE_VALUE}, CYBLE_UUID_REF_T
 185:.\Generated_Source\PSoC4/ble_eventHandler.c **** #endif /* CYBLE_RTUS_CLIENT */
 186:.\Generated_Source\PSoC4/ble_eventHandler.c **** #ifdef CYBLE_SCPS_CLIENT
 187:.\Generated_Source\PSoC4/ble_eventHandler.c ****     {{CYBLE_GATT_INVALID_ATTR_HANDLE_VALUE, CYBLE_GATT_INVALID_ATTR_HANDLE_VALUE}, CYBLE_UUID_SCAN_
 188:.\Generated_Source\PSoC4/ble_eventHandler.c **** #endif /* CYBLE_SCPS_CLIENT */
 189:.\Generated_Source\PSoC4/ble_eventHandler.c **** #ifdef CYBLE_TPS_CLIENT
 190:.\Generated_Source\PSoC4/ble_eventHandler.c ****     {{CYBLE_GATT_INVALID_ATTR_HANDLE_VALUE, CYBLE_GATT_INVALID_ATTR_HANDLE_VALUE}, CYBLE_UUID_TX_PO
 191:.\Generated_Source\PSoC4/ble_eventHandler.c **** #endif /* CYBLE_TPS_CLIENT */
 192:.\Generated_Source\PSoC4/ble_eventHandler.c **** #ifdef CYBLE_UDS_CLIENT
 193:.\Generated_Source\PSoC4/ble_eventHandler.c ****     {{CYBLE_GATT_INVALID_ATTR_HANDLE_VALUE, CYBLE_GATT_INVALID_ATTR_HANDLE_VALUE}, CYBLE_UUID_USER_
 194:.\Generated_Source\PSoC4/ble_eventHandler.c **** #endif /* CYBLE_UDS_CLIENT */
 195:.\Generated_Source\PSoC4/ble_eventHandler.c **** #ifdef CYBLE_WSS_CLIENT
 196:.\Generated_Source\PSoC4/ble_eventHandler.c ****     {{CYBLE_GATT_INVALID_ATTR_HANDLE_VALUE, CYBLE_GATT_INVALID_ATTR_HANDLE_VALUE}, CYBLE_UUID_WEIGH
 197:.\Generated_Source\PSoC4/ble_eventHandler.c **** #endif /* CYBLE_WSS_CLIENT */
 198:.\Generated_Source\PSoC4/ble_eventHandler.c **** #ifdef CYBLE_WPTS_CLIENT
 199:.\Generated_Source\PSoC4/ble_eventHandler.c ****     {{CYBLE_GATT_INVALID_ATTR_HANDLE_VALUE, CYBLE_GATT_INVALID_ATTR_HANDLE_VALUE}, CYBLE_UUID_WIREL
 200:.\Generated_Source\PSoC4/ble_eventHandler.c **** #endif /* CYBLE_WPTS_CLIENT */
 201:.\Generated_Source\PSoC4/ble_eventHandler.c **** };
 202:.\Generated_Source\PSoC4/ble_eventHandler.c **** 
 203:.\Generated_Source\PSoC4/ble_eventHandler.c **** CYBLE_GAPC_T cyBle_gapc;
 204:.\Generated_Source\PSoC4/ble_eventHandler.c **** 
ARM GAS  C:\Users\alvin\AppData\Local\Temp\cc0iGj3s.s 			page 5


 205:.\Generated_Source\PSoC4/ble_eventHandler.c **** #endif /* CYBLE_GATT_ROLE_CLIENT */
 206:.\Generated_Source\PSoC4/ble_eventHandler.c **** 
 207:.\Generated_Source\PSoC4/ble_eventHandler.c **** /* Default device security */
 208:.\Generated_Source\PSoC4/ble_eventHandler.c **** CYBLE_GAP_AUTH_INFO_T cyBle_authInfo =
 209:.\Generated_Source\PSoC4/ble_eventHandler.c **** {
 210:.\Generated_Source\PSoC4/ble_eventHandler.c ****     (CYBLE_GAP_SEC_MODE_1 | CYBLE_GAP_SEC_LEVEL_1 ), /* uint8 security */
 211:.\Generated_Source\PSoC4/ble_eventHandler.c ****     CYBLE_GAP_BONDING, /* uint8 bonding */
 212:.\Generated_Source\PSoC4/ble_eventHandler.c ****     0x10u,      /* uint8 ekeySize */
 213:.\Generated_Source\PSoC4/ble_eventHandler.c ****     CYBLE_GAP_AUTH_ERROR_NONE, /* CYBLE_AUTH_FAILED_REASON_T authErr */
 214:.\Generated_Source\PSoC4/ble_eventHandler.c ****     0x01u,      /* uint8 pairingProperties */
 215:.\Generated_Source\PSoC4/ble_eventHandler.c **** };
 216:.\Generated_Source\PSoC4/ble_eventHandler.c **** 
 217:.\Generated_Source\PSoC4/ble_eventHandler.c **** #if(CYBLE_GATT_ROLE_SERVER)
 218:.\Generated_Source\PSoC4/ble_eventHandler.c **** 
 219:.\Generated_Source\PSoC4/ble_eventHandler.c **** 
 220:.\Generated_Source\PSoC4/ble_eventHandler.c **** /******************************************************************************    
 221:.\Generated_Source\PSoC4/ble_eventHandler.c **** * Function Name: CyBle_WriteReqHandler
 222:.\Generated_Source\PSoC4/ble_eventHandler.c **** ***************************************************************************//**
 223:.\Generated_Source\PSoC4/ble_eventHandler.c **** * 
 224:.\Generated_Source\PSoC4/ble_eventHandler.c **** *  Handles the Write Request event from BLE stack.
 225:.\Generated_Source\PSoC4/ble_eventHandler.c **** * 
 226:.\Generated_Source\PSoC4/ble_eventHandler.c **** *  CYBLE_GATTS_WRITE_REQ_PARAM_T * eventParam - event parameter
 227:.\Generated_Source\PSoC4/ble_eventHandler.c **** * 
 228:.\Generated_Source\PSoC4/ble_eventHandler.c **** * \return
 229:.\Generated_Source\PSoC4/ble_eventHandler.c **** *  None
 230:.\Generated_Source\PSoC4/ble_eventHandler.c **** * 
 231:.\Generated_Source\PSoC4/ble_eventHandler.c **** ******************************************************************************/
 232:.\Generated_Source\PSoC4/ble_eventHandler.c **** static void CyBle_WriteReqHandler(CYBLE_GATTS_WRITE_REQ_PARAM_T *eventParam)
 233:.\Generated_Source\PSoC4/ble_eventHandler.c **** {
 234:.\Generated_Source\PSoC4/ble_eventHandler.c ****     CYBLE_GATT_ERR_CODE_T gattErr;
 235:.\Generated_Source\PSoC4/ble_eventHandler.c **** #if defined CYBLE_CTS_SERVER || defined CYBLE_ESS_SERVER
 236:.\Generated_Source\PSoC4/ble_eventHandler.c ****     cyBle_gattError = CYBLE_GATT_ERR_NONE;
 237:.\Generated_Source\PSoC4/ble_eventHandler.c **** #endif /* defined CYBLE_CTS_SERVER || defined CYBLE_ESS_SERVER */
 238:.\Generated_Source\PSoC4/ble_eventHandler.c ****     
 239:.\Generated_Source\PSoC4/ble_eventHandler.c ****     gattErr = CyBle_GattsWriteEventHandler(eventParam);
 240:.\Generated_Source\PSoC4/ble_eventHandler.c **** #ifdef CYBLE_ANCS_SERVER
 241:.\Generated_Source\PSoC4/ble_eventHandler.c ****     if(((cyBle_eventHandlerFlag & CYBLE_CALLBACK) != 0u) && (gattErr == CYBLE_GATT_ERR_NONE))
 242:.\Generated_Source\PSoC4/ble_eventHandler.c ****     {
 243:.\Generated_Source\PSoC4/ble_eventHandler.c ****         gattErr = CyBle_AncssWriteEventHandler(eventParam);
 244:.\Generated_Source\PSoC4/ble_eventHandler.c ****     }
 245:.\Generated_Source\PSoC4/ble_eventHandler.c **** #endif /* CYBLE_ANCS_SERVER */
 246:.\Generated_Source\PSoC4/ble_eventHandler.c **** #ifdef CYBLE_ANS_SERVER
 247:.\Generated_Source\PSoC4/ble_eventHandler.c ****     if(((cyBle_eventHandlerFlag & CYBLE_CALLBACK) != 0u) && (gattErr == CYBLE_GATT_ERR_NONE))
 248:.\Generated_Source\PSoC4/ble_eventHandler.c ****     {
 249:.\Generated_Source\PSoC4/ble_eventHandler.c ****         gattErr = CyBle_AnssWriteEventHandler(eventParam);
 250:.\Generated_Source\PSoC4/ble_eventHandler.c ****     }
 251:.\Generated_Source\PSoC4/ble_eventHandler.c **** #endif /* CYBLE_ANS_SERVER */
 252:.\Generated_Source\PSoC4/ble_eventHandler.c **** #ifdef CYBLE_BAS_SERVER
 253:.\Generated_Source\PSoC4/ble_eventHandler.c ****     if(((cyBle_eventHandlerFlag & CYBLE_CALLBACK) != 0u) && (gattErr == CYBLE_GATT_ERR_NONE))
 254:.\Generated_Source\PSoC4/ble_eventHandler.c ****     {
 255:.\Generated_Source\PSoC4/ble_eventHandler.c ****         gattErr = CyBle_BassWriteEventHandler(eventParam);
 256:.\Generated_Source\PSoC4/ble_eventHandler.c ****     }
 257:.\Generated_Source\PSoC4/ble_eventHandler.c **** #endif /* CYBLE_BAS_SERVER */
 258:.\Generated_Source\PSoC4/ble_eventHandler.c **** #ifdef CYBLE_BCS_SERVER
 259:.\Generated_Source\PSoC4/ble_eventHandler.c ****     if(((cyBle_eventHandlerFlag & CYBLE_CALLBACK) != 0u) && (gattErr == CYBLE_GATT_ERR_NONE))
 260:.\Generated_Source\PSoC4/ble_eventHandler.c ****     {
 261:.\Generated_Source\PSoC4/ble_eventHandler.c ****         gattErr = CyBle_BcssWriteEventHandler(eventParam);
ARM GAS  C:\Users\alvin\AppData\Local\Temp\cc0iGj3s.s 			page 6


 262:.\Generated_Source\PSoC4/ble_eventHandler.c ****     }
 263:.\Generated_Source\PSoC4/ble_eventHandler.c **** #endif /* CYBLE_BCS_SERVER */
 264:.\Generated_Source\PSoC4/ble_eventHandler.c **** #ifdef CYBLE_BLS_SERVER
 265:.\Generated_Source\PSoC4/ble_eventHandler.c ****     if(((cyBle_eventHandlerFlag & CYBLE_CALLBACK) != 0u) && (gattErr == CYBLE_GATT_ERR_NONE))
 266:.\Generated_Source\PSoC4/ble_eventHandler.c ****     {
 267:.\Generated_Source\PSoC4/ble_eventHandler.c ****         gattErr = CyBle_BlssWriteEventHandler(eventParam);
 268:.\Generated_Source\PSoC4/ble_eventHandler.c ****     }
 269:.\Generated_Source\PSoC4/ble_eventHandler.c **** #endif /* CYBLE_BLS_SERVER */
 270:.\Generated_Source\PSoC4/ble_eventHandler.c **** #ifdef CYBLE_BMS_SERVER
 271:.\Generated_Source\PSoC4/ble_eventHandler.c ****     if(((cyBle_eventHandlerFlag & CYBLE_CALLBACK) != 0u) && (gattErr == CYBLE_GATT_ERR_NONE))
 272:.\Generated_Source\PSoC4/ble_eventHandler.c ****     {
 273:.\Generated_Source\PSoC4/ble_eventHandler.c ****         gattErr = CyBle_BmssWriteEventHandler(eventParam);
 274:.\Generated_Source\PSoC4/ble_eventHandler.c ****     }
 275:.\Generated_Source\PSoC4/ble_eventHandler.c **** #endif /* CYBLE_BMS_SERVER */
 276:.\Generated_Source\PSoC4/ble_eventHandler.c **** #ifdef CYBLE_BTS_SERVER
 277:.\Generated_Source\PSoC4/ble_eventHandler.c ****     if((cyBle_eventHandlerFlag & CYBLE_CALLBACK) != 0u)
 278:.\Generated_Source\PSoC4/ble_eventHandler.c ****     {
 279:.\Generated_Source\PSoC4/ble_eventHandler.c ****         gattErr = CyBle_BtsWriteEventHandler(eventParam);
 280:.\Generated_Source\PSoC4/ble_eventHandler.c ****     }
 281:.\Generated_Source\PSoC4/ble_eventHandler.c **** #endif /* CYBLE_BTS_SERVER */
 282:.\Generated_Source\PSoC4/ble_eventHandler.c **** #ifdef CYBLE_CGMS_SERVER
 283:.\Generated_Source\PSoC4/ble_eventHandler.c ****     if(((cyBle_eventHandlerFlag & CYBLE_CALLBACK) != 0u) && (gattErr == CYBLE_GATT_ERR_NONE))
 284:.\Generated_Source\PSoC4/ble_eventHandler.c ****     {
 285:.\Generated_Source\PSoC4/ble_eventHandler.c ****         gattErr = CyBle_CgmssWriteEventHandler(eventParam);
 286:.\Generated_Source\PSoC4/ble_eventHandler.c ****     }
 287:.\Generated_Source\PSoC4/ble_eventHandler.c **** #endif /* CYBLE_CGMS_SERVER */
 288:.\Generated_Source\PSoC4/ble_eventHandler.c **** #ifdef CYBLE_CPS_SERVER
 289:.\Generated_Source\PSoC4/ble_eventHandler.c ****     if(((cyBle_eventHandlerFlag & CYBLE_CALLBACK) != 0u) && (gattErr == CYBLE_GATT_ERR_NONE))
 290:.\Generated_Source\PSoC4/ble_eventHandler.c ****     {
 291:.\Generated_Source\PSoC4/ble_eventHandler.c ****         gattErr = CyBle_CpssWriteEventHandler(eventParam);
 292:.\Generated_Source\PSoC4/ble_eventHandler.c ****     }
 293:.\Generated_Source\PSoC4/ble_eventHandler.c **** #endif /* CYBLE_CPS_SERVER */
 294:.\Generated_Source\PSoC4/ble_eventHandler.c **** #ifdef CYBLE_CSCS_SERVER
 295:.\Generated_Source\PSoC4/ble_eventHandler.c ****     if(((cyBle_eventHandlerFlag & CYBLE_CALLBACK) != 0u) && (gattErr == CYBLE_GATT_ERR_NONE))
 296:.\Generated_Source\PSoC4/ble_eventHandler.c ****     {
 297:.\Generated_Source\PSoC4/ble_eventHandler.c ****         gattErr = CyBle_CscssWriteEventHandler(eventParam);
 298:.\Generated_Source\PSoC4/ble_eventHandler.c ****     }
 299:.\Generated_Source\PSoC4/ble_eventHandler.c **** #endif /* CYBLE_CSCS_SERVER */
 300:.\Generated_Source\PSoC4/ble_eventHandler.c **** #ifdef CYBLE_CTS_SERVER
 301:.\Generated_Source\PSoC4/ble_eventHandler.c ****     if(((cyBle_eventHandlerFlag & CYBLE_CALLBACK) != 0u) && (gattErr == CYBLE_GATT_ERR_NONE))
 302:.\Generated_Source\PSoC4/ble_eventHandler.c ****     {
 303:.\Generated_Source\PSoC4/ble_eventHandler.c ****         gattErr = CyBle_CtssWriteEventHandler(eventParam);
 304:.\Generated_Source\PSoC4/ble_eventHandler.c ****     }
 305:.\Generated_Source\PSoC4/ble_eventHandler.c **** #endif /* CYBLE_CTS_SERVER */
 306:.\Generated_Source\PSoC4/ble_eventHandler.c **** #ifdef CYBLE_ESS_SERVER
 307:.\Generated_Source\PSoC4/ble_eventHandler.c ****     if(((cyBle_eventHandlerFlag & CYBLE_CALLBACK) != 0u) && (gattErr == CYBLE_GATT_ERR_NONE))
 308:.\Generated_Source\PSoC4/ble_eventHandler.c ****     {
 309:.\Generated_Source\PSoC4/ble_eventHandler.c ****         gattErr = CyBle_EsssWriteEventHandler(eventParam);
 310:.\Generated_Source\PSoC4/ble_eventHandler.c ****     }
 311:.\Generated_Source\PSoC4/ble_eventHandler.c **** #endif /* CYBLE_ESS_SERVER */
 312:.\Generated_Source\PSoC4/ble_eventHandler.c **** #ifdef CYBLE_GLS_SERVER
 313:.\Generated_Source\PSoC4/ble_eventHandler.c ****     if(((cyBle_eventHandlerFlag & CYBLE_CALLBACK) != 0u) && (gattErr == CYBLE_GATT_ERR_NONE))
 314:.\Generated_Source\PSoC4/ble_eventHandler.c ****     {
 315:.\Generated_Source\PSoC4/ble_eventHandler.c ****         gattErr = CyBle_GlssWriteEventHandler(eventParam);
 316:.\Generated_Source\PSoC4/ble_eventHandler.c ****     }
 317:.\Generated_Source\PSoC4/ble_eventHandler.c **** #endif /* CYBLE_GLS_SERVER */
 318:.\Generated_Source\PSoC4/ble_eventHandler.c **** #ifdef CYBLE_HIDS_SERVER
ARM GAS  C:\Users\alvin\AppData\Local\Temp\cc0iGj3s.s 			page 7


 319:.\Generated_Source\PSoC4/ble_eventHandler.c ****     if(((cyBle_eventHandlerFlag & CYBLE_CALLBACK) != 0u) && (gattErr == CYBLE_GATT_ERR_NONE))
 320:.\Generated_Source\PSoC4/ble_eventHandler.c ****     {
 321:.\Generated_Source\PSoC4/ble_eventHandler.c ****         gattErr = CyBle_HidssWriteEventHandler(eventParam);
 322:.\Generated_Source\PSoC4/ble_eventHandler.c ****     }
 323:.\Generated_Source\PSoC4/ble_eventHandler.c **** #endif /* CYBLE_HIDS_SERVER */
 324:.\Generated_Source\PSoC4/ble_eventHandler.c **** #ifdef CYBLE_HPS_SERVER
 325:.\Generated_Source\PSoC4/ble_eventHandler.c ****     if(((cyBle_eventHandlerFlag & CYBLE_CALLBACK) != 0u) && (gattErr == CYBLE_GATT_ERR_NONE))
 326:.\Generated_Source\PSoC4/ble_eventHandler.c ****     {
 327:.\Generated_Source\PSoC4/ble_eventHandler.c ****         gattErr = CyBle_HpssWriteEventHandler(eventParam);
 328:.\Generated_Source\PSoC4/ble_eventHandler.c ****     }
 329:.\Generated_Source\PSoC4/ble_eventHandler.c **** #endif /* CYBLE_HPS_SERVER */
 330:.\Generated_Source\PSoC4/ble_eventHandler.c **** #ifdef CYBLE_HRS_SERVER
 331:.\Generated_Source\PSoC4/ble_eventHandler.c ****     if(((cyBle_eventHandlerFlag & CYBLE_CALLBACK) != 0u) && (gattErr == CYBLE_GATT_ERR_NONE))
 332:.\Generated_Source\PSoC4/ble_eventHandler.c ****     {
 333:.\Generated_Source\PSoC4/ble_eventHandler.c ****         gattErr = CyBle_HrssWriteEventHandler(eventParam);
 334:.\Generated_Source\PSoC4/ble_eventHandler.c ****     }
 335:.\Generated_Source\PSoC4/ble_eventHandler.c **** #endif /* CYBLE_HRS_SERVER */
 336:.\Generated_Source\PSoC4/ble_eventHandler.c **** #ifdef CYBLE_HTS_SERVER
 337:.\Generated_Source\PSoC4/ble_eventHandler.c ****     if(((cyBle_eventHandlerFlag & CYBLE_CALLBACK) != 0u) && (gattErr == CYBLE_GATT_ERR_NONE))
 338:.\Generated_Source\PSoC4/ble_eventHandler.c ****     {
 339:.\Generated_Source\PSoC4/ble_eventHandler.c ****         gattErr = CyBle_HtssWriteEventHandler(eventParam);
 340:.\Generated_Source\PSoC4/ble_eventHandler.c ****     }
 341:.\Generated_Source\PSoC4/ble_eventHandler.c **** #endif /* CYBLE_HTS_SERVER */
 342:.\Generated_Source\PSoC4/ble_eventHandler.c **** #ifdef CYBLE_IPS_SERVER
 343:.\Generated_Source\PSoC4/ble_eventHandler.c ****     if(((cyBle_eventHandlerFlag & CYBLE_CALLBACK) != 0u) && (gattErr == CYBLE_GATT_ERR_NONE))
 344:.\Generated_Source\PSoC4/ble_eventHandler.c ****     {
 345:.\Generated_Source\PSoC4/ble_eventHandler.c ****         gattErr = CyBle_IpssWriteEventHandler(eventParam);
 346:.\Generated_Source\PSoC4/ble_eventHandler.c ****     }
 347:.\Generated_Source\PSoC4/ble_eventHandler.c **** #endif /* CYBLE_IPS_SERVER */
 348:.\Generated_Source\PSoC4/ble_eventHandler.c **** #ifdef CYBLE_LLS_SERVER
 349:.\Generated_Source\PSoC4/ble_eventHandler.c ****     if(((cyBle_eventHandlerFlag & CYBLE_CALLBACK) != 0u) && (gattErr == CYBLE_GATT_ERR_NONE))
 350:.\Generated_Source\PSoC4/ble_eventHandler.c ****     {
 351:.\Generated_Source\PSoC4/ble_eventHandler.c ****         gattErr = CyBle_LlssWriteEventHandler(eventParam);
 352:.\Generated_Source\PSoC4/ble_eventHandler.c ****     }
 353:.\Generated_Source\PSoC4/ble_eventHandler.c **** #endif /* CYBLE_LLS_SERVER */
 354:.\Generated_Source\PSoC4/ble_eventHandler.c **** #ifdef CYBLE_LNS_SERVER
 355:.\Generated_Source\PSoC4/ble_eventHandler.c ****     if(((cyBle_eventHandlerFlag & CYBLE_CALLBACK) != 0u) && (gattErr == CYBLE_GATT_ERR_NONE))
 356:.\Generated_Source\PSoC4/ble_eventHandler.c ****     {
 357:.\Generated_Source\PSoC4/ble_eventHandler.c ****         gattErr = CyBle_LnssWriteEventHandler(eventParam);
 358:.\Generated_Source\PSoC4/ble_eventHandler.c ****     }
 359:.\Generated_Source\PSoC4/ble_eventHandler.c **** #endif /* CYBLE_LNS_SERVER */
 360:.\Generated_Source\PSoC4/ble_eventHandler.c **** #ifdef CYBLE_PASS_SERVER
 361:.\Generated_Source\PSoC4/ble_eventHandler.c ****     if(((cyBle_eventHandlerFlag & CYBLE_CALLBACK) != 0u) && (gattErr == CYBLE_GATT_ERR_NONE))
 362:.\Generated_Source\PSoC4/ble_eventHandler.c ****     {
 363:.\Generated_Source\PSoC4/ble_eventHandler.c ****         gattErr = CyBle_PasssWriteEventHandler(eventParam);
 364:.\Generated_Source\PSoC4/ble_eventHandler.c ****     }
 365:.\Generated_Source\PSoC4/ble_eventHandler.c **** #endif /* CYBLE_PASS_SERVER */
 366:.\Generated_Source\PSoC4/ble_eventHandler.c **** #ifdef CYBLE_RSCS_SERVER
 367:.\Generated_Source\PSoC4/ble_eventHandler.c ****     if(((cyBle_eventHandlerFlag & CYBLE_CALLBACK) != 0u) && (gattErr == CYBLE_GATT_ERR_NONE))
 368:.\Generated_Source\PSoC4/ble_eventHandler.c ****     {
 369:.\Generated_Source\PSoC4/ble_eventHandler.c ****         gattErr = CyBle_RscssWriteEventHandler(eventParam);
 370:.\Generated_Source\PSoC4/ble_eventHandler.c ****     }
 371:.\Generated_Source\PSoC4/ble_eventHandler.c **** #endif /* CYBLE_RSCS_SERVER */
 372:.\Generated_Source\PSoC4/ble_eventHandler.c **** #ifdef CYBLE_SCPS_SERVER
 373:.\Generated_Source\PSoC4/ble_eventHandler.c ****     if(((cyBle_eventHandlerFlag & CYBLE_CALLBACK) != 0u) && (gattErr == CYBLE_GATT_ERR_NONE))
 374:.\Generated_Source\PSoC4/ble_eventHandler.c ****     {
 375:.\Generated_Source\PSoC4/ble_eventHandler.c ****         gattErr = CyBle_ScpssWriteEventHandler(eventParam);
ARM GAS  C:\Users\alvin\AppData\Local\Temp\cc0iGj3s.s 			page 8


 376:.\Generated_Source\PSoC4/ble_eventHandler.c ****     }
 377:.\Generated_Source\PSoC4/ble_eventHandler.c **** #endif /* CYBLE_SCPS_SERVER */
 378:.\Generated_Source\PSoC4/ble_eventHandler.c **** #ifdef CYBLE_TPS_SERVER
 379:.\Generated_Source\PSoC4/ble_eventHandler.c ****     if(((cyBle_eventHandlerFlag & CYBLE_CALLBACK) != 0u) && (gattErr == CYBLE_GATT_ERR_NONE))
 380:.\Generated_Source\PSoC4/ble_eventHandler.c ****     {
 381:.\Generated_Source\PSoC4/ble_eventHandler.c ****         gattErr = CyBle_TpssWriteEventHandler(eventParam);
 382:.\Generated_Source\PSoC4/ble_eventHandler.c ****     }
 383:.\Generated_Source\PSoC4/ble_eventHandler.c **** #endif /* CYBLE_TPS_SERVER */
 384:.\Generated_Source\PSoC4/ble_eventHandler.c **** #ifdef CYBLE_UDS_SERVER
 385:.\Generated_Source\PSoC4/ble_eventHandler.c ****     if(((cyBle_eventHandlerFlag & CYBLE_CALLBACK) != 0u) && (gattErr == CYBLE_GATT_ERR_NONE))
 386:.\Generated_Source\PSoC4/ble_eventHandler.c ****     {
 387:.\Generated_Source\PSoC4/ble_eventHandler.c ****         gattErr = CyBle_UdssWriteEventHandler(eventParam);
 388:.\Generated_Source\PSoC4/ble_eventHandler.c ****     }
 389:.\Generated_Source\PSoC4/ble_eventHandler.c **** #endif /* CYBLE_UDS_SERVER */
 390:.\Generated_Source\PSoC4/ble_eventHandler.c **** #ifdef CYBLE_WPTS_SERVER
 391:.\Generated_Source\PSoC4/ble_eventHandler.c ****     if(((cyBle_eventHandlerFlag & CYBLE_CALLBACK) != 0u) && (gattErr == CYBLE_GATT_ERR_NONE))
 392:.\Generated_Source\PSoC4/ble_eventHandler.c ****     {
 393:.\Generated_Source\PSoC4/ble_eventHandler.c ****         gattErr = CyBle_WptssWriteEventHandler(eventParam);
 394:.\Generated_Source\PSoC4/ble_eventHandler.c ****     }
 395:.\Generated_Source\PSoC4/ble_eventHandler.c **** #endif /* CYBLE_WPTS_SERVER */
 396:.\Generated_Source\PSoC4/ble_eventHandler.c **** #ifdef CYBLE_WSS_SERVER
 397:.\Generated_Source\PSoC4/ble_eventHandler.c ****     if(((cyBle_eventHandlerFlag & CYBLE_CALLBACK) != 0u) && (gattErr == CYBLE_GATT_ERR_NONE))
 398:.\Generated_Source\PSoC4/ble_eventHandler.c ****     {
 399:.\Generated_Source\PSoC4/ble_eventHandler.c ****         gattErr = CyBle_WsssWriteEventHandler(eventParam);
 400:.\Generated_Source\PSoC4/ble_eventHandler.c ****     }
 401:.\Generated_Source\PSoC4/ble_eventHandler.c **** #endif /* CYBLE_WSS_SERVER */
 402:.\Generated_Source\PSoC4/ble_eventHandler.c **** 
 403:.\Generated_Source\PSoC4/ble_eventHandler.c ****     /* Send response when event was handled by service */
 404:.\Generated_Source\PSoC4/ble_eventHandler.c ****     if((cyBle_eventHandlerFlag & CYBLE_CALLBACK) == 0u)
 405:.\Generated_Source\PSoC4/ble_eventHandler.c ****     {
 406:.\Generated_Source\PSoC4/ble_eventHandler.c ****         if(gattErr != CYBLE_GATT_ERR_NONE)
 407:.\Generated_Source\PSoC4/ble_eventHandler.c ****         {
 408:.\Generated_Source\PSoC4/ble_eventHandler.c ****             CYBLE_GATTS_ERR_PARAM_T err_param;
 409:.\Generated_Source\PSoC4/ble_eventHandler.c ****             
 410:.\Generated_Source\PSoC4/ble_eventHandler.c ****             err_param.opcode = (uint8) CYBLE_GATT_WRITE_REQ;
 411:.\Generated_Source\PSoC4/ble_eventHandler.c ****             err_param.attrHandle = eventParam->handleValPair.attrHandle;
 412:.\Generated_Source\PSoC4/ble_eventHandler.c ****             err_param.errorCode = gattErr;
 413:.\Generated_Source\PSoC4/ble_eventHandler.c **** 
 414:.\Generated_Source\PSoC4/ble_eventHandler.c ****             /* Send Error Response */
 415:.\Generated_Source\PSoC4/ble_eventHandler.c ****             (void)CyBle_GattsErrorRsp(eventParam->connHandle, &err_param);
 416:.\Generated_Source\PSoC4/ble_eventHandler.c ****         }
 417:.\Generated_Source\PSoC4/ble_eventHandler.c ****         else
 418:.\Generated_Source\PSoC4/ble_eventHandler.c ****         {
 419:.\Generated_Source\PSoC4/ble_eventHandler.c ****             (void)CyBle_GattsWriteRsp(eventParam->connHandle);
 420:.\Generated_Source\PSoC4/ble_eventHandler.c ****         }
 421:.\Generated_Source\PSoC4/ble_eventHandler.c ****     }
 422:.\Generated_Source\PSoC4/ble_eventHandler.c **** }
 423:.\Generated_Source\PSoC4/ble_eventHandler.c **** 
 424:.\Generated_Source\PSoC4/ble_eventHandler.c **** 
 425:.\Generated_Source\PSoC4/ble_eventHandler.c **** /****************************************************************************** 
 426:.\Generated_Source\PSoC4/ble_eventHandler.c **** * Function Name: CyBle_ValueConfirmation
 427:.\Generated_Source\PSoC4/ble_eventHandler.c **** ***************************************************************************//**
 428:.\Generated_Source\PSoC4/ble_eventHandler.c **** * 
 429:.\Generated_Source\PSoC4/ble_eventHandler.c **** *  Handles the Value Confirmation request event from the BLE stack.
 430:.\Generated_Source\PSoC4/ble_eventHandler.c **** * 
 431:.\Generated_Source\PSoC4/ble_eventHandler.c **** *  \param eventParam: Pointer to a structure of type 'CYBLE_CONN_HANDLE_T'
 432:.\Generated_Source\PSoC4/ble_eventHandler.c **** * 
ARM GAS  C:\Users\alvin\AppData\Local\Temp\cc0iGj3s.s 			page 9


 433:.\Generated_Source\PSoC4/ble_eventHandler.c **** * \return
 434:.\Generated_Source\PSoC4/ble_eventHandler.c **** *  None
 435:.\Generated_Source\PSoC4/ble_eventHandler.c **** * 
 436:.\Generated_Source\PSoC4/ble_eventHandler.c **** ******************************************************************************/
 437:.\Generated_Source\PSoC4/ble_eventHandler.c **** static void CyBle_ValueConfirmation(const CYBLE_CONN_HANDLE_T *eventParam)
 438:.\Generated_Source\PSoC4/ble_eventHandler.c **** {
 439:.\Generated_Source\PSoC4/ble_eventHandler.c ****     if(eventParam != NULL)
 440:.\Generated_Source\PSoC4/ble_eventHandler.c ****     {
 441:.\Generated_Source\PSoC4/ble_eventHandler.c ****     #ifdef CYBLE_BCS_SERVER
 442:.\Generated_Source\PSoC4/ble_eventHandler.c ****         CyBle_BcssConfirmationEventHandler(eventParam);
 443:.\Generated_Source\PSoC4/ble_eventHandler.c ****     #endif /* CYBLE_BCS_SERVER */
 444:.\Generated_Source\PSoC4/ble_eventHandler.c ****     #ifdef CYBLE_BLS_SERVER
 445:.\Generated_Source\PSoC4/ble_eventHandler.c ****         if((cyBle_eventHandlerFlag & CYBLE_CALLBACK) != 0u)
 446:.\Generated_Source\PSoC4/ble_eventHandler.c ****         {
 447:.\Generated_Source\PSoC4/ble_eventHandler.c ****             CyBle_BlssConfirmationEventHandler(eventParam);
 448:.\Generated_Source\PSoC4/ble_eventHandler.c ****         }
 449:.\Generated_Source\PSoC4/ble_eventHandler.c ****     #endif /* CYBLE_BLS_SERVER */
 450:.\Generated_Source\PSoC4/ble_eventHandler.c ****     
 451:.\Generated_Source\PSoC4/ble_eventHandler.c ****     #ifdef CYBLE_CGMS_SERVER
 452:.\Generated_Source\PSoC4/ble_eventHandler.c ****         if((cyBle_eventHandlerFlag & CYBLE_CALLBACK) != 0u)
 453:.\Generated_Source\PSoC4/ble_eventHandler.c ****         {
 454:.\Generated_Source\PSoC4/ble_eventHandler.c ****             CyBle_CgmssConfirmationEventHandler(eventParam);
 455:.\Generated_Source\PSoC4/ble_eventHandler.c ****         }
 456:.\Generated_Source\PSoC4/ble_eventHandler.c ****     #endif /* CYBLE_CGMS_SERVER */
 457:.\Generated_Source\PSoC4/ble_eventHandler.c ****     
 458:.\Generated_Source\PSoC4/ble_eventHandler.c ****     #ifdef CYBLE_CPS_SERVER
 459:.\Generated_Source\PSoC4/ble_eventHandler.c ****         if((cyBle_eventHandlerFlag & CYBLE_CALLBACK) != 0u)
 460:.\Generated_Source\PSoC4/ble_eventHandler.c ****         {
 461:.\Generated_Source\PSoC4/ble_eventHandler.c ****             CyBle_CpssConfirmationEventHandler(eventParam);
 462:.\Generated_Source\PSoC4/ble_eventHandler.c ****         }
 463:.\Generated_Source\PSoC4/ble_eventHandler.c ****     #endif /* CYBLE_CPS_SERVER */
 464:.\Generated_Source\PSoC4/ble_eventHandler.c ****     
 465:.\Generated_Source\PSoC4/ble_eventHandler.c ****     #ifdef CYBLE_CSCS_SERVER
 466:.\Generated_Source\PSoC4/ble_eventHandler.c ****         if((cyBle_eventHandlerFlag & CYBLE_CALLBACK) != 0u)
 467:.\Generated_Source\PSoC4/ble_eventHandler.c ****         {
 468:.\Generated_Source\PSoC4/ble_eventHandler.c ****             CyBle_CscssConfirmationEventHandler(eventParam);
 469:.\Generated_Source\PSoC4/ble_eventHandler.c ****         }
 470:.\Generated_Source\PSoC4/ble_eventHandler.c ****     #endif /* CYBLE_CSCS_SERVER */
 471:.\Generated_Source\PSoC4/ble_eventHandler.c ****     
 472:.\Generated_Source\PSoC4/ble_eventHandler.c ****     #ifdef CYBLE_ESS_SERVER
 473:.\Generated_Source\PSoC4/ble_eventHandler.c ****         if((cyBle_eventHandlerFlag & CYBLE_CALLBACK) != 0u)
 474:.\Generated_Source\PSoC4/ble_eventHandler.c ****         {
 475:.\Generated_Source\PSoC4/ble_eventHandler.c ****             CyBle_EsssConfirmationEventHandler(eventParam);
 476:.\Generated_Source\PSoC4/ble_eventHandler.c ****         }
 477:.\Generated_Source\PSoC4/ble_eventHandler.c ****     #endif /* CYBLE_ESS_SERVER */
 478:.\Generated_Source\PSoC4/ble_eventHandler.c ****     
 479:.\Generated_Source\PSoC4/ble_eventHandler.c ****     #ifdef CYBLE_GLS_SERVER
 480:.\Generated_Source\PSoC4/ble_eventHandler.c ****         if((cyBle_eventHandlerFlag & CYBLE_CALLBACK) != 0u)
 481:.\Generated_Source\PSoC4/ble_eventHandler.c ****         {
 482:.\Generated_Source\PSoC4/ble_eventHandler.c ****             CyBle_GlssConfirmationEventHandler(eventParam);
 483:.\Generated_Source\PSoC4/ble_eventHandler.c ****         }
 484:.\Generated_Source\PSoC4/ble_eventHandler.c ****     #endif /* CYBLE_GLS_SERVER */
 485:.\Generated_Source\PSoC4/ble_eventHandler.c ****     
 486:.\Generated_Source\PSoC4/ble_eventHandler.c ****     #ifdef CYBLE_HTS_SERVER
 487:.\Generated_Source\PSoC4/ble_eventHandler.c ****         if((cyBle_eventHandlerFlag & CYBLE_CALLBACK) != 0u)
 488:.\Generated_Source\PSoC4/ble_eventHandler.c ****         {
 489:.\Generated_Source\PSoC4/ble_eventHandler.c ****             CyBle_HtssConfirmationEventHandler(eventParam);
ARM GAS  C:\Users\alvin\AppData\Local\Temp\cc0iGj3s.s 			page 10


 490:.\Generated_Source\PSoC4/ble_eventHandler.c ****         }
 491:.\Generated_Source\PSoC4/ble_eventHandler.c ****     #endif /* CYBLE_HTS_SERVER */
 492:.\Generated_Source\PSoC4/ble_eventHandler.c **** 
 493:.\Generated_Source\PSoC4/ble_eventHandler.c ****     #ifdef CYBLE_LNS_SERVER
 494:.\Generated_Source\PSoC4/ble_eventHandler.c ****         if((cyBle_eventHandlerFlag & CYBLE_CALLBACK) != 0u)
 495:.\Generated_Source\PSoC4/ble_eventHandler.c ****         {
 496:.\Generated_Source\PSoC4/ble_eventHandler.c ****             CyBle_LnssConfirmationEventHandler(eventParam);
 497:.\Generated_Source\PSoC4/ble_eventHandler.c ****         }
 498:.\Generated_Source\PSoC4/ble_eventHandler.c ****     #endif /* CYBLE_LNS_SERVER */
 499:.\Generated_Source\PSoC4/ble_eventHandler.c ****     
 500:.\Generated_Source\PSoC4/ble_eventHandler.c ****     #ifdef CYBLE_RSCS_SERVER
 501:.\Generated_Source\PSoC4/ble_eventHandler.c ****         if((cyBle_eventHandlerFlag & CYBLE_CALLBACK) != 0u)
 502:.\Generated_Source\PSoC4/ble_eventHandler.c ****         {
 503:.\Generated_Source\PSoC4/ble_eventHandler.c ****             CyBle_RscssConfirmationEventHandler(eventParam);
 504:.\Generated_Source\PSoC4/ble_eventHandler.c ****         }
 505:.\Generated_Source\PSoC4/ble_eventHandler.c ****     #endif /* CYBLE_RSCS_SERVER */
 506:.\Generated_Source\PSoC4/ble_eventHandler.c ****     
 507:.\Generated_Source\PSoC4/ble_eventHandler.c ****     #ifdef CYBLE_UDS_SERVER
 508:.\Generated_Source\PSoC4/ble_eventHandler.c ****         if((cyBle_eventHandlerFlag & CYBLE_CALLBACK) != 0u)
 509:.\Generated_Source\PSoC4/ble_eventHandler.c ****         {
 510:.\Generated_Source\PSoC4/ble_eventHandler.c ****             CyBle_UdssConfirmationEventHandler(eventParam);
 511:.\Generated_Source\PSoC4/ble_eventHandler.c ****         }
 512:.\Generated_Source\PSoC4/ble_eventHandler.c ****     #endif /* CYBLE_UDS_SERVER */
 513:.\Generated_Source\PSoC4/ble_eventHandler.c ****     
 514:.\Generated_Source\PSoC4/ble_eventHandler.c ****     #ifdef CYBLE_WPTS_SERVER
 515:.\Generated_Source\PSoC4/ble_eventHandler.c ****         if((cyBle_eventHandlerFlag & CYBLE_CALLBACK) != 0u)
 516:.\Generated_Source\PSoC4/ble_eventHandler.c ****         {
 517:.\Generated_Source\PSoC4/ble_eventHandler.c ****             CyBle_WptssConfirmationEventHandler(eventParam);
 518:.\Generated_Source\PSoC4/ble_eventHandler.c ****         }
 519:.\Generated_Source\PSoC4/ble_eventHandler.c ****     #endif /* CYBLE_WPTS_SERVER */
 520:.\Generated_Source\PSoC4/ble_eventHandler.c ****     
 521:.\Generated_Source\PSoC4/ble_eventHandler.c ****     #ifdef CYBLE_WSS_SERVER
 522:.\Generated_Source\PSoC4/ble_eventHandler.c ****         if((cyBle_eventHandlerFlag & CYBLE_CALLBACK) != 0u)
 523:.\Generated_Source\PSoC4/ble_eventHandler.c ****         {
 524:.\Generated_Source\PSoC4/ble_eventHandler.c ****             CyBle_WsssConfirmationEventHandler(eventParam);
 525:.\Generated_Source\PSoC4/ble_eventHandler.c ****         }
 526:.\Generated_Source\PSoC4/ble_eventHandler.c ****     #endif /* CYBLE_WSS_SERVER */
 527:.\Generated_Source\PSoC4/ble_eventHandler.c ****     }
 528:.\Generated_Source\PSoC4/ble_eventHandler.c **** }
 529:.\Generated_Source\PSoC4/ble_eventHandler.c **** 
 530:.\Generated_Source\PSoC4/ble_eventHandler.c **** #endif /* CYBLE_GATT_ROLE_SERVER */
 531:.\Generated_Source\PSoC4/ble_eventHandler.c **** 
 532:.\Generated_Source\PSoC4/ble_eventHandler.c **** 
 533:.\Generated_Source\PSoC4/ble_eventHandler.c **** #if (CYBLE_GATT_ROLE_CLIENT)
 534:.\Generated_Source\PSoC4/ble_eventHandler.c **** 
 535:.\Generated_Source\PSoC4/ble_eventHandler.c **** /****************************************************************************** 
 536:.\Generated_Source\PSoC4/ble_eventHandler.c **** * Function Name: CyBle_GattcWriteResponseEventHandler
 537:.\Generated_Source\PSoC4/ble_eventHandler.c **** ***************************************************************************//**
 538:.\Generated_Source\PSoC4/ble_eventHandler.c **** * 
 539:.\Generated_Source\PSoC4/ble_eventHandler.c **** *  Handles the Write response event from the BLE stack.
 540:.\Generated_Source\PSoC4/ble_eventHandler.c **** * 
 541:.\Generated_Source\PSoC4/ble_eventHandler.c **** *  \param eventParam: Pointer to a structure of type 'CYBLE_CONN_HANDLE_T'
 542:.\Generated_Source\PSoC4/ble_eventHandler.c **** * 
 543:.\Generated_Source\PSoC4/ble_eventHandler.c **** * \return
 544:.\Generated_Source\PSoC4/ble_eventHandler.c **** *  None
 545:.\Generated_Source\PSoC4/ble_eventHandler.c **** * 
 546:.\Generated_Source\PSoC4/ble_eventHandler.c **** ******************************************************************************/
ARM GAS  C:\Users\alvin\AppData\Local\Temp\cc0iGj3s.s 			page 11


 547:.\Generated_Source\PSoC4/ble_eventHandler.c **** static void CyBle_GattcWriteResponseEventHandler(const CYBLE_CONN_HANDLE_T *eventParam)
 548:.\Generated_Source\PSoC4/ble_eventHandler.c **** {
 549:.\Generated_Source\PSoC4/ble_eventHandler.c **** #ifdef CYBLE_ANCS_CLIENT
 550:.\Generated_Source\PSoC4/ble_eventHandler.c ****     CyBle_AncscWriteResponseEventHandler(eventParam);
 551:.\Generated_Source\PSoC4/ble_eventHandler.c **** #endif /* CYBLE_ANCS_CLIENT */
 552:.\Generated_Source\PSoC4/ble_eventHandler.c **** 
 553:.\Generated_Source\PSoC4/ble_eventHandler.c **** #ifdef CYBLE_ANS_CLIENT
 554:.\Generated_Source\PSoC4/ble_eventHandler.c ****     if((cyBle_eventHandlerFlag & CYBLE_CALLBACK) != 0u)
 555:.\Generated_Source\PSoC4/ble_eventHandler.c ****     {
 556:.\Generated_Source\PSoC4/ble_eventHandler.c ****         CyBle_AnscWriteResponseEventHandler(eventParam);
 557:.\Generated_Source\PSoC4/ble_eventHandler.c ****     }
 558:.\Generated_Source\PSoC4/ble_eventHandler.c **** #endif /* CYBLE_ANS_CLIENT */
 559:.\Generated_Source\PSoC4/ble_eventHandler.c **** 
 560:.\Generated_Source\PSoC4/ble_eventHandler.c **** #ifdef CYBLE_BAS_CLIENT
 561:.\Generated_Source\PSoC4/ble_eventHandler.c ****     if((cyBle_eventHandlerFlag & CYBLE_CALLBACK) != 0u)
 562:.\Generated_Source\PSoC4/ble_eventHandler.c ****     {
 563:.\Generated_Source\PSoC4/ble_eventHandler.c ****         CyBle_BascWriteResponseEventHandler(eventParam);
 564:.\Generated_Source\PSoC4/ble_eventHandler.c ****     }
 565:.\Generated_Source\PSoC4/ble_eventHandler.c **** #endif /* CYBLE_BAS_CLIENT */
 566:.\Generated_Source\PSoC4/ble_eventHandler.c **** 
 567:.\Generated_Source\PSoC4/ble_eventHandler.c **** #ifdef CYBLE_BCS_CLIENT
 568:.\Generated_Source\PSoC4/ble_eventHandler.c ****     if((cyBle_eventHandlerFlag & CYBLE_CALLBACK) != 0u)
 569:.\Generated_Source\PSoC4/ble_eventHandler.c ****     {
 570:.\Generated_Source\PSoC4/ble_eventHandler.c ****         CyBle_BcscWriteResponseEventHandler(eventParam);
 571:.\Generated_Source\PSoC4/ble_eventHandler.c ****     }
 572:.\Generated_Source\PSoC4/ble_eventHandler.c **** #endif /* CYBLE_BCS_CLIENT */
 573:.\Generated_Source\PSoC4/ble_eventHandler.c **** 
 574:.\Generated_Source\PSoC4/ble_eventHandler.c **** #ifdef CYBLE_BLS_CLIENT
 575:.\Generated_Source\PSoC4/ble_eventHandler.c ****     if((cyBle_eventHandlerFlag & CYBLE_CALLBACK) != 0u)
 576:.\Generated_Source\PSoC4/ble_eventHandler.c ****     {
 577:.\Generated_Source\PSoC4/ble_eventHandler.c ****         CyBle_BlscWriteResponseEventHandler(eventParam);
 578:.\Generated_Source\PSoC4/ble_eventHandler.c ****     }
 579:.\Generated_Source\PSoC4/ble_eventHandler.c **** #endif /* CYBLE_BLS_CLIENT */
 580:.\Generated_Source\PSoC4/ble_eventHandler.c **** 
 581:.\Generated_Source\PSoC4/ble_eventHandler.c **** #ifdef CYBLE_BMS_CLIENT
 582:.\Generated_Source\PSoC4/ble_eventHandler.c ****     if((cyBle_eventHandlerFlag & CYBLE_CALLBACK) != 0u)
 583:.\Generated_Source\PSoC4/ble_eventHandler.c ****     {
 584:.\Generated_Source\PSoC4/ble_eventHandler.c ****         CyBle_BmscWriteResponseEventHandler(eventParam);
 585:.\Generated_Source\PSoC4/ble_eventHandler.c ****     }
 586:.\Generated_Source\PSoC4/ble_eventHandler.c **** #endif /* CYBLE_BMS_CLIENT */
 587:.\Generated_Source\PSoC4/ble_eventHandler.c **** 
 588:.\Generated_Source\PSoC4/ble_eventHandler.c **** #ifdef CYBLE_CGMS_CLIENT
 589:.\Generated_Source\PSoC4/ble_eventHandler.c ****     if((cyBle_eventHandlerFlag & CYBLE_CALLBACK) != 0u)
 590:.\Generated_Source\PSoC4/ble_eventHandler.c ****     {
 591:.\Generated_Source\PSoC4/ble_eventHandler.c ****         CyBle_CgmscWriteResponseEventHandler(eventParam);
 592:.\Generated_Source\PSoC4/ble_eventHandler.c ****     }
 593:.\Generated_Source\PSoC4/ble_eventHandler.c **** #endif /* CYBLE_CGMS_CLIENT */
 594:.\Generated_Source\PSoC4/ble_eventHandler.c **** 
 595:.\Generated_Source\PSoC4/ble_eventHandler.c **** #ifdef CYBLE_CPS_CLIENT
 596:.\Generated_Source\PSoC4/ble_eventHandler.c ****     if((cyBle_eventHandlerFlag & CYBLE_CALLBACK) != 0u)
 597:.\Generated_Source\PSoC4/ble_eventHandler.c ****     {
 598:.\Generated_Source\PSoC4/ble_eventHandler.c ****         CyBle_CpscWriteResponseEventHandler(eventParam);
 599:.\Generated_Source\PSoC4/ble_eventHandler.c ****     }
 600:.\Generated_Source\PSoC4/ble_eventHandler.c **** #endif /* CYBLE_CPS_CLIENT */
 601:.\Generated_Source\PSoC4/ble_eventHandler.c **** 
 602:.\Generated_Source\PSoC4/ble_eventHandler.c **** #ifdef CYBLE_CSCS_CLIENT
 603:.\Generated_Source\PSoC4/ble_eventHandler.c ****     if((cyBle_eventHandlerFlag & CYBLE_CALLBACK) != 0u)
ARM GAS  C:\Users\alvin\AppData\Local\Temp\cc0iGj3s.s 			page 12


 604:.\Generated_Source\PSoC4/ble_eventHandler.c ****     {
 605:.\Generated_Source\PSoC4/ble_eventHandler.c ****         CyBle_CscscWriteResponseEventHandler(eventParam);
 606:.\Generated_Source\PSoC4/ble_eventHandler.c ****     }
 607:.\Generated_Source\PSoC4/ble_eventHandler.c **** #endif /* CYBLE_CSCS_CLIENT */
 608:.\Generated_Source\PSoC4/ble_eventHandler.c **** 
 609:.\Generated_Source\PSoC4/ble_eventHandler.c **** #ifdef CYBLE_CTS_CLIENT
 610:.\Generated_Source\PSoC4/ble_eventHandler.c ****     if((cyBle_eventHandlerFlag & CYBLE_CALLBACK) != 0u)
 611:.\Generated_Source\PSoC4/ble_eventHandler.c ****     {
 612:.\Generated_Source\PSoC4/ble_eventHandler.c ****         CyBle_CtscWriteResponseEventHandler(eventParam);
 613:.\Generated_Source\PSoC4/ble_eventHandler.c ****     }
 614:.\Generated_Source\PSoC4/ble_eventHandler.c **** #endif /* CYBLE_CTS_CLIENT */
 615:.\Generated_Source\PSoC4/ble_eventHandler.c **** 
 616:.\Generated_Source\PSoC4/ble_eventHandler.c **** #ifdef CYBLE_ESS_CLIENT
 617:.\Generated_Source\PSoC4/ble_eventHandler.c ****     if((cyBle_eventHandlerFlag & CYBLE_CALLBACK) != 0u)
 618:.\Generated_Source\PSoC4/ble_eventHandler.c ****     {
 619:.\Generated_Source\PSoC4/ble_eventHandler.c ****         CyBle_EsscWriteResponseEventHandler(eventParam);
 620:.\Generated_Source\PSoC4/ble_eventHandler.c ****     }
 621:.\Generated_Source\PSoC4/ble_eventHandler.c **** #endif /* CYBLE_ESS_CLIENT */
 622:.\Generated_Source\PSoC4/ble_eventHandler.c **** 
 623:.\Generated_Source\PSoC4/ble_eventHandler.c **** #ifdef CYBLE_GLS_CLIENT
 624:.\Generated_Source\PSoC4/ble_eventHandler.c ****     if((cyBle_eventHandlerFlag & CYBLE_CALLBACK) != 0u)
 625:.\Generated_Source\PSoC4/ble_eventHandler.c ****     {
 626:.\Generated_Source\PSoC4/ble_eventHandler.c ****         CyBle_GlscWriteResponseEventHandler(eventParam);
 627:.\Generated_Source\PSoC4/ble_eventHandler.c ****     }
 628:.\Generated_Source\PSoC4/ble_eventHandler.c **** #endif /* CYBLE_GLS_CLIENT */
 629:.\Generated_Source\PSoC4/ble_eventHandler.c **** 
 630:.\Generated_Source\PSoC4/ble_eventHandler.c **** #ifdef CYBLE_HIDS_CLIENT
 631:.\Generated_Source\PSoC4/ble_eventHandler.c ****     if((cyBle_eventHandlerFlag & CYBLE_CALLBACK) != 0u)
 632:.\Generated_Source\PSoC4/ble_eventHandler.c ****     {
 633:.\Generated_Source\PSoC4/ble_eventHandler.c ****         CyBle_HidscWriteResponseEventHandler(eventParam);
 634:.\Generated_Source\PSoC4/ble_eventHandler.c ****     }
 635:.\Generated_Source\PSoC4/ble_eventHandler.c **** #endif /* CYBLE_HIDS_CLIENT */
 636:.\Generated_Source\PSoC4/ble_eventHandler.c **** 
 637:.\Generated_Source\PSoC4/ble_eventHandler.c **** #ifdef CYBLE_HPS_CLIENT
 638:.\Generated_Source\PSoC4/ble_eventHandler.c ****     if((cyBle_eventHandlerFlag & CYBLE_CALLBACK) != 0u)
 639:.\Generated_Source\PSoC4/ble_eventHandler.c ****     {
 640:.\Generated_Source\PSoC4/ble_eventHandler.c ****         CyBle_HpscWriteResponseEventHandler(eventParam);
 641:.\Generated_Source\PSoC4/ble_eventHandler.c ****     }
 642:.\Generated_Source\PSoC4/ble_eventHandler.c **** #endif /* CYBLE_HPS_CLIENT */
 643:.\Generated_Source\PSoC4/ble_eventHandler.c **** 
 644:.\Generated_Source\PSoC4/ble_eventHandler.c **** #ifdef CYBLE_HRS_CLIENT
 645:.\Generated_Source\PSoC4/ble_eventHandler.c ****     if((cyBle_eventHandlerFlag & CYBLE_CALLBACK) != 0u)
 646:.\Generated_Source\PSoC4/ble_eventHandler.c ****     {
 647:.\Generated_Source\PSoC4/ble_eventHandler.c ****         CyBle_HrscWriteResponseEventHandler(eventParam);
 648:.\Generated_Source\PSoC4/ble_eventHandler.c ****     }
 649:.\Generated_Source\PSoC4/ble_eventHandler.c **** #endif /* CYBLE_HRS_CLIENT */
 650:.\Generated_Source\PSoC4/ble_eventHandler.c **** 
 651:.\Generated_Source\PSoC4/ble_eventHandler.c **** #ifdef CYBLE_HTS_CLIENT
 652:.\Generated_Source\PSoC4/ble_eventHandler.c ****     if((cyBle_eventHandlerFlag & CYBLE_CALLBACK) != 0u)
 653:.\Generated_Source\PSoC4/ble_eventHandler.c ****     {
 654:.\Generated_Source\PSoC4/ble_eventHandler.c ****         CyBle_HtscWriteResponseEventHandler(eventParam);
 655:.\Generated_Source\PSoC4/ble_eventHandler.c ****     }
 656:.\Generated_Source\PSoC4/ble_eventHandler.c **** #endif /* CYBLE_HTS_CLIENT */
 657:.\Generated_Source\PSoC4/ble_eventHandler.c **** 
 658:.\Generated_Source\PSoC4/ble_eventHandler.c **** #ifdef CYBLE_IPS_CLIENT
 659:.\Generated_Source\PSoC4/ble_eventHandler.c ****     if((cyBle_eventHandlerFlag & CYBLE_CALLBACK) != 0u)
 660:.\Generated_Source\PSoC4/ble_eventHandler.c ****     {
ARM GAS  C:\Users\alvin\AppData\Local\Temp\cc0iGj3s.s 			page 13


 661:.\Generated_Source\PSoC4/ble_eventHandler.c ****         CyBle_IpscWriteResponseEventHandler(eventParam);
 662:.\Generated_Source\PSoC4/ble_eventHandler.c ****     }
 663:.\Generated_Source\PSoC4/ble_eventHandler.c **** #endif /* CYBLE_IPS_CLIENT */
 664:.\Generated_Source\PSoC4/ble_eventHandler.c **** 
 665:.\Generated_Source\PSoC4/ble_eventHandler.c **** #ifdef CYBLE_LLS_CLIENT
 666:.\Generated_Source\PSoC4/ble_eventHandler.c ****     if((cyBle_eventHandlerFlag & CYBLE_CALLBACK) != 0u)
 667:.\Generated_Source\PSoC4/ble_eventHandler.c ****     {
 668:.\Generated_Source\PSoC4/ble_eventHandler.c ****         CyBle_LlscWriteResponseEventHandler(eventParam);
 669:.\Generated_Source\PSoC4/ble_eventHandler.c ****     }
 670:.\Generated_Source\PSoC4/ble_eventHandler.c **** #endif /* CYBLE_LLS_CLIENT */
 671:.\Generated_Source\PSoC4/ble_eventHandler.c **** 
 672:.\Generated_Source\PSoC4/ble_eventHandler.c **** #ifdef CYBLE_LNS_CLIENT
 673:.\Generated_Source\PSoC4/ble_eventHandler.c ****     if((cyBle_eventHandlerFlag & CYBLE_CALLBACK) != 0u)
 674:.\Generated_Source\PSoC4/ble_eventHandler.c ****     {
 675:.\Generated_Source\PSoC4/ble_eventHandler.c ****         CyBle_LnscWriteResponseEventHandler(eventParam);
 676:.\Generated_Source\PSoC4/ble_eventHandler.c ****     }
 677:.\Generated_Source\PSoC4/ble_eventHandler.c **** #endif /* CYBLE_LNS_CLIENT */
 678:.\Generated_Source\PSoC4/ble_eventHandler.c **** 
 679:.\Generated_Source\PSoC4/ble_eventHandler.c **** #ifdef CYBLE_PASS_CLIENT
 680:.\Generated_Source\PSoC4/ble_eventHandler.c ****     if((cyBle_eventHandlerFlag & CYBLE_CALLBACK) != 0u)
 681:.\Generated_Source\PSoC4/ble_eventHandler.c ****     {
 682:.\Generated_Source\PSoC4/ble_eventHandler.c ****         CyBle_PasscWriteResponseEventHandler(eventParam);
 683:.\Generated_Source\PSoC4/ble_eventHandler.c ****     }
 684:.\Generated_Source\PSoC4/ble_eventHandler.c **** #endif /* CYBLE_PASS_CLIENT */
 685:.\Generated_Source\PSoC4/ble_eventHandler.c **** 
 686:.\Generated_Source\PSoC4/ble_eventHandler.c **** #ifdef CYBLE_RSCS_CLIENT
 687:.\Generated_Source\PSoC4/ble_eventHandler.c ****     if((cyBle_eventHandlerFlag & CYBLE_CALLBACK) != 0u)
 688:.\Generated_Source\PSoC4/ble_eventHandler.c ****     {
 689:.\Generated_Source\PSoC4/ble_eventHandler.c ****         CyBle_RscscWriteResponseEventHandler(eventParam);
 690:.\Generated_Source\PSoC4/ble_eventHandler.c ****     }
 691:.\Generated_Source\PSoC4/ble_eventHandler.c **** #endif /* CYBLE_RSCS_CLIENT */
 692:.\Generated_Source\PSoC4/ble_eventHandler.c **** 
 693:.\Generated_Source\PSoC4/ble_eventHandler.c **** #ifdef CYBLE_SCPS_CLIENT
 694:.\Generated_Source\PSoC4/ble_eventHandler.c ****     if((cyBle_eventHandlerFlag & CYBLE_CALLBACK) != 0u)
 695:.\Generated_Source\PSoC4/ble_eventHandler.c ****     {
 696:.\Generated_Source\PSoC4/ble_eventHandler.c ****         CyBle_ScpscWriteResponseEventHandler(eventParam);
 697:.\Generated_Source\PSoC4/ble_eventHandler.c ****     }
 698:.\Generated_Source\PSoC4/ble_eventHandler.c **** #endif /* CYBLE_SCPS_CLIENT */
 699:.\Generated_Source\PSoC4/ble_eventHandler.c **** 
 700:.\Generated_Source\PSoC4/ble_eventHandler.c **** #ifdef CYBLE_TPS_CLIENT
 701:.\Generated_Source\PSoC4/ble_eventHandler.c ****     if((cyBle_eventHandlerFlag & CYBLE_CALLBACK) != 0u)
 702:.\Generated_Source\PSoC4/ble_eventHandler.c ****     {
 703:.\Generated_Source\PSoC4/ble_eventHandler.c ****         CyBle_TpscWriteResponseEventHandler(eventParam);
 704:.\Generated_Source\PSoC4/ble_eventHandler.c ****     }
 705:.\Generated_Source\PSoC4/ble_eventHandler.c **** #endif /* CYBLE_TPS_CLIENT */
 706:.\Generated_Source\PSoC4/ble_eventHandler.c **** 
 707:.\Generated_Source\PSoC4/ble_eventHandler.c **** #ifdef CYBLE_UDS_CLIENT
 708:.\Generated_Source\PSoC4/ble_eventHandler.c ****     if((cyBle_eventHandlerFlag & CYBLE_CALLBACK) != 0u)
 709:.\Generated_Source\PSoC4/ble_eventHandler.c ****     {
 710:.\Generated_Source\PSoC4/ble_eventHandler.c ****         CyBle_UdscWriteResponseEventHandler(eventParam);
 711:.\Generated_Source\PSoC4/ble_eventHandler.c ****     }
 712:.\Generated_Source\PSoC4/ble_eventHandler.c **** #endif /* CYBLE_UDS_CLIENT */
 713:.\Generated_Source\PSoC4/ble_eventHandler.c **** #ifdef CYBLE_WPTS_CLIENT
 714:.\Generated_Source\PSoC4/ble_eventHandler.c ****     if((cyBle_eventHandlerFlag & CYBLE_CALLBACK) != 0u)
 715:.\Generated_Source\PSoC4/ble_eventHandler.c ****     {
 716:.\Generated_Source\PSoC4/ble_eventHandler.c ****         CyBle_WptscWriteResponseEventHandler(eventParam);
 717:.\Generated_Source\PSoC4/ble_eventHandler.c ****     }
ARM GAS  C:\Users\alvin\AppData\Local\Temp\cc0iGj3s.s 			page 14


 718:.\Generated_Source\PSoC4/ble_eventHandler.c **** #endif /* CYBLE_WPTS_CLIENT */
 719:.\Generated_Source\PSoC4/ble_eventHandler.c **** #ifdef CYBLE_WSS_CLIENT
 720:.\Generated_Source\PSoC4/ble_eventHandler.c ****     if((cyBle_eventHandlerFlag & CYBLE_CALLBACK) != 0u)
 721:.\Generated_Source\PSoC4/ble_eventHandler.c ****     {
 722:.\Generated_Source\PSoC4/ble_eventHandler.c ****         CyBle_WsscWriteResponseEventHandler(eventParam);
 723:.\Generated_Source\PSoC4/ble_eventHandler.c ****     }
 724:.\Generated_Source\PSoC4/ble_eventHandler.c **** #endif /* CYBLE_WSS_CLIENT */
 725:.\Generated_Source\PSoC4/ble_eventHandler.c **** }
 726:.\Generated_Source\PSoC4/ble_eventHandler.c **** 
 727:.\Generated_Source\PSoC4/ble_eventHandler.c **** 
 728:.\Generated_Source\PSoC4/ble_eventHandler.c **** /******************************************************************************    
 729:.\Generated_Source\PSoC4/ble_eventHandler.c **** * Function Name: CyBle_NotificationEventHandler
 730:.\Generated_Source\PSoC4/ble_eventHandler.c **** ***************************************************************************//**
 731:.\Generated_Source\PSoC4/ble_eventHandler.c **** * 
 732:.\Generated_Source\PSoC4/ble_eventHandler.c **** *  Handles the Notification event from BLE stack.
 733:.\Generated_Source\PSoC4/ble_eventHandler.c **** * 
 734:.\Generated_Source\PSoC4/ble_eventHandler.c **** *  \param eventParam: event parameter
 735:.\Generated_Source\PSoC4/ble_eventHandler.c **** * 
 736:.\Generated_Source\PSoC4/ble_eventHandler.c **** * \return
 737:.\Generated_Source\PSoC4/ble_eventHandler.c **** *  None
 738:.\Generated_Source\PSoC4/ble_eventHandler.c **** * 
 739:.\Generated_Source\PSoC4/ble_eventHandler.c **** ******************************************************************************/
 740:.\Generated_Source\PSoC4/ble_eventHandler.c **** static void CyBle_NotificationEventHandler(CYBLE_GATTC_HANDLE_VALUE_NTF_PARAM_T *eventParam)
 741:.\Generated_Source\PSoC4/ble_eventHandler.c **** {
 742:.\Generated_Source\PSoC4/ble_eventHandler.c **** #ifdef CYBLE_ANCS_CLIENT
 743:.\Generated_Source\PSoC4/ble_eventHandler.c ****     CyBle_AncscNotificationEventHandler(eventParam);
 744:.\Generated_Source\PSoC4/ble_eventHandler.c **** #endif /* CYBLE_ANCS_CLIENT */
 745:.\Generated_Source\PSoC4/ble_eventHandler.c **** #ifdef CYBLE_ANS_CLIENT
 746:.\Generated_Source\PSoC4/ble_eventHandler.c ****     if((cyBle_eventHandlerFlag & CYBLE_CALLBACK) != 0u)
 747:.\Generated_Source\PSoC4/ble_eventHandler.c ****     {
 748:.\Generated_Source\PSoC4/ble_eventHandler.c ****         CyBle_AnscNotificationEventHandler(eventParam);
 749:.\Generated_Source\PSoC4/ble_eventHandler.c ****     }
 750:.\Generated_Source\PSoC4/ble_eventHandler.c **** #endif /* CYBLE_ANS_CLIENT */
 751:.\Generated_Source\PSoC4/ble_eventHandler.c **** #ifdef CYBLE_BAS_CLIENT
 752:.\Generated_Source\PSoC4/ble_eventHandler.c ****     if((cyBle_eventHandlerFlag & CYBLE_CALLBACK) != 0u)
 753:.\Generated_Source\PSoC4/ble_eventHandler.c ****     {
 754:.\Generated_Source\PSoC4/ble_eventHandler.c ****         CyBle_BascNotificationEventHandler(eventParam);
 755:.\Generated_Source\PSoC4/ble_eventHandler.c ****     }
 756:.\Generated_Source\PSoC4/ble_eventHandler.c **** #endif /* CYBLE_BAS_CLIENT */
 757:.\Generated_Source\PSoC4/ble_eventHandler.c **** #ifdef CYBLE_BLS_CLIENT
 758:.\Generated_Source\PSoC4/ble_eventHandler.c ****     if((cyBle_eventHandlerFlag & CYBLE_CALLBACK) != 0u)
 759:.\Generated_Source\PSoC4/ble_eventHandler.c ****     {
 760:.\Generated_Source\PSoC4/ble_eventHandler.c ****         CyBle_BlscNotificationEventHandler(eventParam);
 761:.\Generated_Source\PSoC4/ble_eventHandler.c ****     }
 762:.\Generated_Source\PSoC4/ble_eventHandler.c **** #endif /* CYBLE_BLS_CLIENT */
 763:.\Generated_Source\PSoC4/ble_eventHandler.c **** #ifdef CYBLE_CGMS_CLIENT
 764:.\Generated_Source\PSoC4/ble_eventHandler.c ****     if((cyBle_eventHandlerFlag & CYBLE_CALLBACK) != 0u)
 765:.\Generated_Source\PSoC4/ble_eventHandler.c ****     {
 766:.\Generated_Source\PSoC4/ble_eventHandler.c ****         CyBle_CgmscNotificationEventHandler(eventParam);
 767:.\Generated_Source\PSoC4/ble_eventHandler.c ****     }
 768:.\Generated_Source\PSoC4/ble_eventHandler.c **** #endif /* CYBLE_CGMS_CLIENT */
 769:.\Generated_Source\PSoC4/ble_eventHandler.c **** #ifdef CYBLE_CPS_CLIENT
 770:.\Generated_Source\PSoC4/ble_eventHandler.c ****     if((cyBle_eventHandlerFlag & CYBLE_CALLBACK) != 0u)
 771:.\Generated_Source\PSoC4/ble_eventHandler.c ****     {
 772:.\Generated_Source\PSoC4/ble_eventHandler.c ****         CyBle_CpscNotificationEventHandler(eventParam);
 773:.\Generated_Source\PSoC4/ble_eventHandler.c ****     }
 774:.\Generated_Source\PSoC4/ble_eventHandler.c **** #endif /* CYBLE_CPS_CLIENT */
ARM GAS  C:\Users\alvin\AppData\Local\Temp\cc0iGj3s.s 			page 15


 775:.\Generated_Source\PSoC4/ble_eventHandler.c **** #ifdef CYBLE_CSCS_CLIENT
 776:.\Generated_Source\PSoC4/ble_eventHandler.c ****     if((cyBle_eventHandlerFlag & CYBLE_CALLBACK) != 0u)
 777:.\Generated_Source\PSoC4/ble_eventHandler.c ****     {
 778:.\Generated_Source\PSoC4/ble_eventHandler.c ****         CyBle_CscscNotificationEventHandler(eventParam);
 779:.\Generated_Source\PSoC4/ble_eventHandler.c ****     }
 780:.\Generated_Source\PSoC4/ble_eventHandler.c **** #endif /* CYBLE_CSCS_CLIENT */
 781:.\Generated_Source\PSoC4/ble_eventHandler.c **** #ifdef CYBLE_CTS_CLIENT
 782:.\Generated_Source\PSoC4/ble_eventHandler.c ****     if((cyBle_eventHandlerFlag & CYBLE_CALLBACK) != 0u)
 783:.\Generated_Source\PSoC4/ble_eventHandler.c ****     {
 784:.\Generated_Source\PSoC4/ble_eventHandler.c ****         CyBle_CtscNotificationEventHandler(eventParam);
 785:.\Generated_Source\PSoC4/ble_eventHandler.c ****     }
 786:.\Generated_Source\PSoC4/ble_eventHandler.c **** #endif /* CYBLE_CTS_CLIENT */
 787:.\Generated_Source\PSoC4/ble_eventHandler.c **** #ifdef CYBLE_ESS_CLIENT
 788:.\Generated_Source\PSoC4/ble_eventHandler.c ****     if((cyBle_eventHandlerFlag & CYBLE_CALLBACK) != 0u)
 789:.\Generated_Source\PSoC4/ble_eventHandler.c ****     {
 790:.\Generated_Source\PSoC4/ble_eventHandler.c ****         CyBle_EsscNotificationEventHandler(eventParam);
 791:.\Generated_Source\PSoC4/ble_eventHandler.c ****     }
 792:.\Generated_Source\PSoC4/ble_eventHandler.c **** #endif /* CYBLE_ESS_CLIENT */
 793:.\Generated_Source\PSoC4/ble_eventHandler.c **** #ifdef CYBLE_GLS_CLIENT
 794:.\Generated_Source\PSoC4/ble_eventHandler.c ****     if((cyBle_eventHandlerFlag & CYBLE_CALLBACK) != 0u)
 795:.\Generated_Source\PSoC4/ble_eventHandler.c ****     {
 796:.\Generated_Source\PSoC4/ble_eventHandler.c ****         CyBle_GlscNotificationEventHandler(eventParam);
 797:.\Generated_Source\PSoC4/ble_eventHandler.c ****     }
 798:.\Generated_Source\PSoC4/ble_eventHandler.c **** #endif /* CYBLE_GLS_CLIENT */
 799:.\Generated_Source\PSoC4/ble_eventHandler.c **** #ifdef CYBLE_HIDS_CLIENT
 800:.\Generated_Source\PSoC4/ble_eventHandler.c ****     if((cyBle_eventHandlerFlag & CYBLE_CALLBACK) != 0u)
 801:.\Generated_Source\PSoC4/ble_eventHandler.c ****     {
 802:.\Generated_Source\PSoC4/ble_eventHandler.c ****         CyBle_HidscNotificationEventHandler(eventParam);
 803:.\Generated_Source\PSoC4/ble_eventHandler.c ****     }
 804:.\Generated_Source\PSoC4/ble_eventHandler.c **** #endif /* CYBLE_HIDS_CLIENT */
 805:.\Generated_Source\PSoC4/ble_eventHandler.c **** #ifdef CYBLE_HPS_CLIENT
 806:.\Generated_Source\PSoC4/ble_eventHandler.c ****     if((cyBle_eventHandlerFlag & CYBLE_CALLBACK) != 0u)
 807:.\Generated_Source\PSoC4/ble_eventHandler.c ****     {
 808:.\Generated_Source\PSoC4/ble_eventHandler.c ****         CyBle_HpscNotificationEventHandler(eventParam);
 809:.\Generated_Source\PSoC4/ble_eventHandler.c ****     }
 810:.\Generated_Source\PSoC4/ble_eventHandler.c **** #endif /* CYBLE_HPS_CLIENT */
 811:.\Generated_Source\PSoC4/ble_eventHandler.c **** #ifdef CYBLE_HRS_CLIENT
 812:.\Generated_Source\PSoC4/ble_eventHandler.c ****     if((cyBle_eventHandlerFlag & CYBLE_CALLBACK) != 0u)
 813:.\Generated_Source\PSoC4/ble_eventHandler.c ****     {
 814:.\Generated_Source\PSoC4/ble_eventHandler.c ****         CyBle_HrscNotificationEventHandler(eventParam);
 815:.\Generated_Source\PSoC4/ble_eventHandler.c ****     }
 816:.\Generated_Source\PSoC4/ble_eventHandler.c **** #endif /* CYBLE_HRS_CLIENT */
 817:.\Generated_Source\PSoC4/ble_eventHandler.c **** #ifdef CYBLE_HTS_CLIENT
 818:.\Generated_Source\PSoC4/ble_eventHandler.c ****     if((cyBle_eventHandlerFlag & CYBLE_CALLBACK) != 0u)
 819:.\Generated_Source\PSoC4/ble_eventHandler.c ****     {
 820:.\Generated_Source\PSoC4/ble_eventHandler.c ****         CyBle_HtscNotificationEventHandler(eventParam);
 821:.\Generated_Source\PSoC4/ble_eventHandler.c ****     }
 822:.\Generated_Source\PSoC4/ble_eventHandler.c **** #endif /* CYBLE_HTS_CLIENT */
 823:.\Generated_Source\PSoC4/ble_eventHandler.c **** #ifdef CYBLE_LNS_CLIENT
 824:.\Generated_Source\PSoC4/ble_eventHandler.c ****     if((cyBle_eventHandlerFlag & CYBLE_CALLBACK) != 0u)
 825:.\Generated_Source\PSoC4/ble_eventHandler.c ****     {
 826:.\Generated_Source\PSoC4/ble_eventHandler.c ****         CyBle_LnscNotificationEventHandler(eventParam);
 827:.\Generated_Source\PSoC4/ble_eventHandler.c ****     }
 828:.\Generated_Source\PSoC4/ble_eventHandler.c **** #endif /* CYBLE_LNS_CLIENT */
 829:.\Generated_Source\PSoC4/ble_eventHandler.c **** #ifdef CYBLE_PASS_CLIENT
 830:.\Generated_Source\PSoC4/ble_eventHandler.c ****     if((cyBle_eventHandlerFlag & CYBLE_CALLBACK) != 0u)
 831:.\Generated_Source\PSoC4/ble_eventHandler.c ****     {
ARM GAS  C:\Users\alvin\AppData\Local\Temp\cc0iGj3s.s 			page 16


 832:.\Generated_Source\PSoC4/ble_eventHandler.c ****         CyBle_PasscNotificationEventHandler(eventParam);
 833:.\Generated_Source\PSoC4/ble_eventHandler.c ****     }
 834:.\Generated_Source\PSoC4/ble_eventHandler.c **** #endif /* CYBLE_PASS_CLIENT */
 835:.\Generated_Source\PSoC4/ble_eventHandler.c **** #ifdef CYBLE_RSCS_CLIENT
 836:.\Generated_Source\PSoC4/ble_eventHandler.c ****     if((cyBle_eventHandlerFlag & CYBLE_CALLBACK) != 0u)
 837:.\Generated_Source\PSoC4/ble_eventHandler.c ****     {
 838:.\Generated_Source\PSoC4/ble_eventHandler.c ****         CyBle_RscscNotificationEventHandler(eventParam);
 839:.\Generated_Source\PSoC4/ble_eventHandler.c ****     }
 840:.\Generated_Source\PSoC4/ble_eventHandler.c **** #endif /* CYBLE_RSCS_CLIENT */
 841:.\Generated_Source\PSoC4/ble_eventHandler.c **** #ifdef CYBLE_SCPS_CLIENT
 842:.\Generated_Source\PSoC4/ble_eventHandler.c ****     if((cyBle_eventHandlerFlag & CYBLE_CALLBACK) != 0u)
 843:.\Generated_Source\PSoC4/ble_eventHandler.c ****     {
 844:.\Generated_Source\PSoC4/ble_eventHandler.c ****         CyBle_ScpscNotificationEventHandler(eventParam);
 845:.\Generated_Source\PSoC4/ble_eventHandler.c ****     }
 846:.\Generated_Source\PSoC4/ble_eventHandler.c **** #endif /* CYBLE_SCPS_CLIENT */
 847:.\Generated_Source\PSoC4/ble_eventHandler.c **** #ifdef CYBLE_TPS_CLIENT
 848:.\Generated_Source\PSoC4/ble_eventHandler.c ****     if((cyBle_eventHandlerFlag & CYBLE_CALLBACK) != 0u)
 849:.\Generated_Source\PSoC4/ble_eventHandler.c ****     {
 850:.\Generated_Source\PSoC4/ble_eventHandler.c ****         CyBle_TpscNotificationEventHandler(eventParam);
 851:.\Generated_Source\PSoC4/ble_eventHandler.c ****     }
 852:.\Generated_Source\PSoC4/ble_eventHandler.c **** #endif /* CYBLE_TPS_CLIENT */
 853:.\Generated_Source\PSoC4/ble_eventHandler.c **** #ifdef CYBLE_UDS_CLIENT
 854:.\Generated_Source\PSoC4/ble_eventHandler.c ****     if((cyBle_eventHandlerFlag & CYBLE_CALLBACK) != 0u)
 855:.\Generated_Source\PSoC4/ble_eventHandler.c ****     {
 856:.\Generated_Source\PSoC4/ble_eventHandler.c ****         CyBle_UdscNotificationEventHandler(eventParam);
 857:.\Generated_Source\PSoC4/ble_eventHandler.c ****     }
 858:.\Generated_Source\PSoC4/ble_eventHandler.c **** #endif /* CYBLE_UDS_CLIENT */
 859:.\Generated_Source\PSoC4/ble_eventHandler.c **** #ifdef CYBLE_WPTS_CLIENT
 860:.\Generated_Source\PSoC4/ble_eventHandler.c ****     if((cyBle_eventHandlerFlag & CYBLE_CALLBACK) != 0u)
 861:.\Generated_Source\PSoC4/ble_eventHandler.c ****     {
 862:.\Generated_Source\PSoC4/ble_eventHandler.c ****         CyBle_WptscNotificationEventHandler(eventParam);
 863:.\Generated_Source\PSoC4/ble_eventHandler.c ****     }
 864:.\Generated_Source\PSoC4/ble_eventHandler.c **** #endif /* CYBLE_WPTS_CLIENT */
 865:.\Generated_Source\PSoC4/ble_eventHandler.c **** }
 866:.\Generated_Source\PSoC4/ble_eventHandler.c **** 
 867:.\Generated_Source\PSoC4/ble_eventHandler.c **** 
 868:.\Generated_Source\PSoC4/ble_eventHandler.c **** /******************************************************************************    
 869:.\Generated_Source\PSoC4/ble_eventHandler.c **** * Function Name: CyBle_IndicationEventHandler
 870:.\Generated_Source\PSoC4/ble_eventHandler.c **** ***************************************************************************//**
 871:.\Generated_Source\PSoC4/ble_eventHandler.c **** * 
 872:.\Generated_Source\PSoC4/ble_eventHandler.c **** *  Handles the Indication event from BLE stack.
 873:.\Generated_Source\PSoC4/ble_eventHandler.c **** * 
 874:.\Generated_Source\PSoC4/ble_eventHandler.c **** *  \param eventParam: event parameter
 875:.\Generated_Source\PSoC4/ble_eventHandler.c **** * 
 876:.\Generated_Source\PSoC4/ble_eventHandler.c **** * \return
 877:.\Generated_Source\PSoC4/ble_eventHandler.c **** *  None
 878:.\Generated_Source\PSoC4/ble_eventHandler.c **** * 
 879:.\Generated_Source\PSoC4/ble_eventHandler.c **** ******************************************************************************/
 880:.\Generated_Source\PSoC4/ble_eventHandler.c **** static void CyBle_IndicationEventHandler(CYBLE_GATTC_HANDLE_VALUE_IND_PARAM_T *eventParam)
 881:.\Generated_Source\PSoC4/ble_eventHandler.c **** {
 882:.\Generated_Source\PSoC4/ble_eventHandler.c **** #ifdef CYBLE_BCS_CLIENT
 883:.\Generated_Source\PSoC4/ble_eventHandler.c ****     if((cyBle_eventHandlerFlag & CYBLE_CALLBACK) != 0u)
 884:.\Generated_Source\PSoC4/ble_eventHandler.c ****     {
 885:.\Generated_Source\PSoC4/ble_eventHandler.c ****         CyBle_BcscIndicationEventHandler(eventParam);
 886:.\Generated_Source\PSoC4/ble_eventHandler.c ****     }
 887:.\Generated_Source\PSoC4/ble_eventHandler.c **** #endif /* CYBLE_BCS_CLIENT */
 888:.\Generated_Source\PSoC4/ble_eventHandler.c **** #ifdef CYBLE_BLS_CLIENT
ARM GAS  C:\Users\alvin\AppData\Local\Temp\cc0iGj3s.s 			page 17


 889:.\Generated_Source\PSoC4/ble_eventHandler.c ****     if((cyBle_eventHandlerFlag & CYBLE_CALLBACK) != 0u)
 890:.\Generated_Source\PSoC4/ble_eventHandler.c ****     {
 891:.\Generated_Source\PSoC4/ble_eventHandler.c ****         CyBle_BlscIndicationEventHandler(eventParam);
 892:.\Generated_Source\PSoC4/ble_eventHandler.c ****     }
 893:.\Generated_Source\PSoC4/ble_eventHandler.c **** #endif /* CYBLE_BLS_CLIENT */
 894:.\Generated_Source\PSoC4/ble_eventHandler.c **** #ifdef CYBLE_CGMS_CLIENT
 895:.\Generated_Source\PSoC4/ble_eventHandler.c ****     if((cyBle_eventHandlerFlag & CYBLE_CALLBACK) != 0u)
 896:.\Generated_Source\PSoC4/ble_eventHandler.c ****     {
 897:.\Generated_Source\PSoC4/ble_eventHandler.c ****         CyBle_CgmscIndicationEventHandler(eventParam);
 898:.\Generated_Source\PSoC4/ble_eventHandler.c ****     }
 899:.\Generated_Source\PSoC4/ble_eventHandler.c **** #endif /* CYBLE_CGMS_CLIENT */
 900:.\Generated_Source\PSoC4/ble_eventHandler.c **** #ifdef CYBLE_CPS_CLIENT
 901:.\Generated_Source\PSoC4/ble_eventHandler.c ****     if((cyBle_eventHandlerFlag & CYBLE_CALLBACK) != 0u)
 902:.\Generated_Source\PSoC4/ble_eventHandler.c ****     {
 903:.\Generated_Source\PSoC4/ble_eventHandler.c ****         CyBle_CpscIndicationEventHandler(eventParam);
 904:.\Generated_Source\PSoC4/ble_eventHandler.c ****     }
 905:.\Generated_Source\PSoC4/ble_eventHandler.c **** #endif /* CYBLE_CPS_CLIENT */
 906:.\Generated_Source\PSoC4/ble_eventHandler.c **** #ifdef CYBLE_CSCS_CLIENT
 907:.\Generated_Source\PSoC4/ble_eventHandler.c ****     if((cyBle_eventHandlerFlag & CYBLE_CALLBACK) != 0u)
 908:.\Generated_Source\PSoC4/ble_eventHandler.c ****     {
 909:.\Generated_Source\PSoC4/ble_eventHandler.c ****         CyBle_CscscIndicationEventHandler(eventParam);
 910:.\Generated_Source\PSoC4/ble_eventHandler.c ****     }
 911:.\Generated_Source\PSoC4/ble_eventHandler.c **** #endif /* CYBLE_CSCS_CLIENT */
 912:.\Generated_Source\PSoC4/ble_eventHandler.c **** #ifdef CYBLE_ESS_CLIENT
 913:.\Generated_Source\PSoC4/ble_eventHandler.c ****     if((cyBle_eventHandlerFlag & CYBLE_CALLBACK) != 0u)
 914:.\Generated_Source\PSoC4/ble_eventHandler.c ****     {
 915:.\Generated_Source\PSoC4/ble_eventHandler.c ****         CyBle_EsscIndicationEventHandler(eventParam);
 916:.\Generated_Source\PSoC4/ble_eventHandler.c ****     }
 917:.\Generated_Source\PSoC4/ble_eventHandler.c **** #endif /* CYBLE_ESS_CLIENT */
 918:.\Generated_Source\PSoC4/ble_eventHandler.c **** #ifdef CYBLE_GLS_CLIENT
 919:.\Generated_Source\PSoC4/ble_eventHandler.c ****     if((cyBle_eventHandlerFlag & CYBLE_CALLBACK) != 0u)
 920:.\Generated_Source\PSoC4/ble_eventHandler.c ****     {
 921:.\Generated_Source\PSoC4/ble_eventHandler.c ****         CyBle_GlscIndicationEventHandler(eventParam);
 922:.\Generated_Source\PSoC4/ble_eventHandler.c ****     }
 923:.\Generated_Source\PSoC4/ble_eventHandler.c **** #endif /* CYBLE_GLS_CLIENT */
 924:.\Generated_Source\PSoC4/ble_eventHandler.c **** #ifdef CYBLE_HTS_CLIENT
 925:.\Generated_Source\PSoC4/ble_eventHandler.c ****     if((cyBle_eventHandlerFlag & CYBLE_CALLBACK) != 0u)
 926:.\Generated_Source\PSoC4/ble_eventHandler.c ****     {
 927:.\Generated_Source\PSoC4/ble_eventHandler.c ****         CyBle_HtscIndicationEventHandler(eventParam);
 928:.\Generated_Source\PSoC4/ble_eventHandler.c ****     }
 929:.\Generated_Source\PSoC4/ble_eventHandler.c **** #endif /* CYBLE_HTS_CLIENT */
 930:.\Generated_Source\PSoC4/ble_eventHandler.c **** #ifdef CYBLE_LNS_CLIENT
 931:.\Generated_Source\PSoC4/ble_eventHandler.c ****     if((cyBle_eventHandlerFlag & CYBLE_CALLBACK) != 0u)
 932:.\Generated_Source\PSoC4/ble_eventHandler.c ****     {
 933:.\Generated_Source\PSoC4/ble_eventHandler.c ****         CyBle_LnscIndicationEventHandler(eventParam);
 934:.\Generated_Source\PSoC4/ble_eventHandler.c ****     }
 935:.\Generated_Source\PSoC4/ble_eventHandler.c **** #endif /* CYBLE_LNS_CLIENT */
 936:.\Generated_Source\PSoC4/ble_eventHandler.c **** #ifdef CYBLE_RSCS_CLIENT
 937:.\Generated_Source\PSoC4/ble_eventHandler.c ****     if((cyBle_eventHandlerFlag & CYBLE_CALLBACK) != 0u)
 938:.\Generated_Source\PSoC4/ble_eventHandler.c ****     {
 939:.\Generated_Source\PSoC4/ble_eventHandler.c ****         CyBle_RscscIndicationEventHandler(eventParam);
 940:.\Generated_Source\PSoC4/ble_eventHandler.c ****     }
 941:.\Generated_Source\PSoC4/ble_eventHandler.c **** #endif /* CYBLE_RSCS_CLIENT */
 942:.\Generated_Source\PSoC4/ble_eventHandler.c **** #ifdef CYBLE_UDS_CLIENT
 943:.\Generated_Source\PSoC4/ble_eventHandler.c ****     if((cyBle_eventHandlerFlag & CYBLE_CALLBACK) != 0u)
 944:.\Generated_Source\PSoC4/ble_eventHandler.c ****     {
 945:.\Generated_Source\PSoC4/ble_eventHandler.c ****         CyBle_UdscIndicationEventHandler(eventParam);
ARM GAS  C:\Users\alvin\AppData\Local\Temp\cc0iGj3s.s 			page 18


 946:.\Generated_Source\PSoC4/ble_eventHandler.c ****     }
 947:.\Generated_Source\PSoC4/ble_eventHandler.c **** #endif /* CYBLE_UDS_CLIENT */
 948:.\Generated_Source\PSoC4/ble_eventHandler.c **** #ifdef CYBLE_WPTS_CLIENT
 949:.\Generated_Source\PSoC4/ble_eventHandler.c ****     if((cyBle_eventHandlerFlag & CYBLE_CALLBACK) != 0u)
 950:.\Generated_Source\PSoC4/ble_eventHandler.c ****     {
 951:.\Generated_Source\PSoC4/ble_eventHandler.c ****         CyBle_WptscIndicationEventHandler(eventParam);
 952:.\Generated_Source\PSoC4/ble_eventHandler.c ****     }
 953:.\Generated_Source\PSoC4/ble_eventHandler.c **** #endif /* CYBLE_WPTS_CLIENT */
 954:.\Generated_Source\PSoC4/ble_eventHandler.c **** #ifdef CYBLE_WSS_CLIENT
 955:.\Generated_Source\PSoC4/ble_eventHandler.c ****     if((cyBle_eventHandlerFlag & CYBLE_CALLBACK) != 0u)
 956:.\Generated_Source\PSoC4/ble_eventHandler.c ****     {
 957:.\Generated_Source\PSoC4/ble_eventHandler.c ****         CyBle_WsscIndicationEventHandler(eventParam);
 958:.\Generated_Source\PSoC4/ble_eventHandler.c ****     }
 959:.\Generated_Source\PSoC4/ble_eventHandler.c **** #endif /* CYBLE_WSS_CLIENT */
 960:.\Generated_Source\PSoC4/ble_eventHandler.c **** }
 961:.\Generated_Source\PSoC4/ble_eventHandler.c **** 
 962:.\Generated_Source\PSoC4/ble_eventHandler.c **** 
 963:.\Generated_Source\PSoC4/ble_eventHandler.c **** 
 964:.\Generated_Source\PSoC4/ble_eventHandler.c **** /******************************************************************************    
 965:.\Generated_Source\PSoC4/ble_eventHandler.c **** * Function Name: CyBle_ReadResponseEventHandler
 966:.\Generated_Source\PSoC4/ble_eventHandler.c **** ***************************************************************************//**
 967:.\Generated_Source\PSoC4/ble_eventHandler.c **** * 
 968:.\Generated_Source\PSoC4/ble_eventHandler.c **** *  Handles the Read Response event from BLE stack.
 969:.\Generated_Source\PSoC4/ble_eventHandler.c **** * 
 970:.\Generated_Source\PSoC4/ble_eventHandler.c **** *  \param eventParam: event parameter
 971:.\Generated_Source\PSoC4/ble_eventHandler.c **** * 
 972:.\Generated_Source\PSoC4/ble_eventHandler.c **** * \return
 973:.\Generated_Source\PSoC4/ble_eventHandler.c **** *  None
 974:.\Generated_Source\PSoC4/ble_eventHandler.c **** * 
 975:.\Generated_Source\PSoC4/ble_eventHandler.c **** ******************************************************************************/
 976:.\Generated_Source\PSoC4/ble_eventHandler.c **** static void CyBle_ReadResponseEventHandler(CYBLE_GATTC_READ_RSP_PARAM_T *eventParam)
 977:.\Generated_Source\PSoC4/ble_eventHandler.c **** {
 978:.\Generated_Source\PSoC4/ble_eventHandler.c **** #ifdef CYBLE_CUSTOM_CLIENT
 979:.\Generated_Source\PSoC4/ble_eventHandler.c ****     /* Read response with 128-bit included service uuid */
 980:.\Generated_Source\PSoC4/ble_eventHandler.c ****     if((CYBLE_CLIENT_STATE_INCL_DISCOVERING == CyBle_GetClientState()) &&
 981:.\Generated_Source\PSoC4/ble_eventHandler.c ****        (cyBle_discInclInfo.inclDefHandle != 0u))
 982:.\Generated_Source\PSoC4/ble_eventHandler.c ****     {
 983:.\Generated_Source\PSoC4/ble_eventHandler.c ****         CYBLE_DISC_SRVC128_INFO_T discServInfo;
 984:.\Generated_Source\PSoC4/ble_eventHandler.c **** 
 985:.\Generated_Source\PSoC4/ble_eventHandler.c ****         /* Store service range */
 986:.\Generated_Source\PSoC4/ble_eventHandler.c ****         discServInfo.range = cyBle_discInclInfo.inclHandleRange;
 987:.\Generated_Source\PSoC4/ble_eventHandler.c ****         (void)memcpy((void *) discServInfo.uuid.uuid128.value, (void *)eventParam->value.val, event
 988:.\Generated_Source\PSoC4/ble_eventHandler.c ****         CyBle_CustomcDiscoverServiceEventHandler(&discServInfo);
 989:.\Generated_Source\PSoC4/ble_eventHandler.c ****         
 990:.\Generated_Source\PSoC4/ble_eventHandler.c ****         /* Re-initiate CyBle_GattcFindIncludedServices function, setting the start
 991:.\Generated_Source\PSoC4/ble_eventHandler.c ****            handle to the attribute handle which is placed next to the one used in
 992:.\Generated_Source\PSoC4/ble_eventHandler.c ****            the above step.
 993:.\Generated_Source\PSoC4/ble_eventHandler.c ****         */
 994:.\Generated_Source\PSoC4/ble_eventHandler.c ****         discServInfo.range.startHandle = cyBle_discInclInfo.inclDefHandle + 1u;
 995:.\Generated_Source\PSoC4/ble_eventHandler.c ****         discServInfo.range.endHandle = cyBle_serverInfo[cyBle_disCount].range.endHandle;
 996:.\Generated_Source\PSoC4/ble_eventHandler.c ****         if(discServInfo.range.startHandle <= discServInfo.range.endHandle)
 997:.\Generated_Source\PSoC4/ble_eventHandler.c ****         {
 998:.\Generated_Source\PSoC4/ble_eventHandler.c ****             if(CYBLE_ERROR_OK != CyBle_GattcFindIncludedServices(cyBle_connHandle, &discServInfo.ra
 999:.\Generated_Source\PSoC4/ble_eventHandler.c ****             {
1000:.\Generated_Source\PSoC4/ble_eventHandler.c ****                 CyBle_ApplCallback(CYBLE_EVT_GATTC_INCL_DISCOVERY_FAILED, NULL);
1001:.\Generated_Source\PSoC4/ble_eventHandler.c ****                 cyBle_eventHandlerFlag &= (uint8)~CYBLE_AUTO_DISCOVERY;
1002:.\Generated_Source\PSoC4/ble_eventHandler.c ****             }
ARM GAS  C:\Users\alvin\AppData\Local\Temp\cc0iGj3s.s 			page 19


1003:.\Generated_Source\PSoC4/ble_eventHandler.c ****         }
1004:.\Generated_Source\PSoC4/ble_eventHandler.c ****         else /* Continue discovery of the following service */
1005:.\Generated_Source\PSoC4/ble_eventHandler.c ****         {
1006:.\Generated_Source\PSoC4/ble_eventHandler.c ****             CyBle_NextInclDiscovery(CYBLE_DISCOVERY_CONTINUE);
1007:.\Generated_Source\PSoC4/ble_eventHandler.c ****         }
1008:.\Generated_Source\PSoC4/ble_eventHandler.c ****         
1009:.\Generated_Source\PSoC4/ble_eventHandler.c ****         cyBle_eventHandlerFlag &= (uint8)~CYBLE_CALLBACK;
1010:.\Generated_Source\PSoC4/ble_eventHandler.c ****     #ifdef CYBLE_CUSTOM_CLIENT
1011:.\Generated_Source\PSoC4/ble_eventHandler.c ****         cyBle_discInclInfo.inclDefHandle = 0u;
1012:.\Generated_Source\PSoC4/ble_eventHandler.c ****     #endif /* CYBLE_CUSTOM_CLIENT */
1013:.\Generated_Source\PSoC4/ble_eventHandler.c ****     }
1014:.\Generated_Source\PSoC4/ble_eventHandler.c **** #endif /* CYBLE_CUSTOM_CLIENT */
1015:.\Generated_Source\PSoC4/ble_eventHandler.c **** #ifdef CYBLE_ANCS_CLIENT
1016:.\Generated_Source\PSoC4/ble_eventHandler.c ****     if((cyBle_eventHandlerFlag & CYBLE_CALLBACK) != 0u)
1017:.\Generated_Source\PSoC4/ble_eventHandler.c ****     {
1018:.\Generated_Source\PSoC4/ble_eventHandler.c ****         CyBle_AncscReadResponseEventHandler(eventParam);
1019:.\Generated_Source\PSoC4/ble_eventHandler.c ****     }
1020:.\Generated_Source\PSoC4/ble_eventHandler.c **** #endif /* CYBLE_ANCS_CLIENT */
1021:.\Generated_Source\PSoC4/ble_eventHandler.c **** #ifdef CYBLE_ANS_CLIENT
1022:.\Generated_Source\PSoC4/ble_eventHandler.c ****     if((cyBle_eventHandlerFlag & CYBLE_CALLBACK) != 0u)
1023:.\Generated_Source\PSoC4/ble_eventHandler.c ****     {
1024:.\Generated_Source\PSoC4/ble_eventHandler.c ****         CyBle_AnscReadResponseEventHandler(eventParam);
1025:.\Generated_Source\PSoC4/ble_eventHandler.c ****     }
1026:.\Generated_Source\PSoC4/ble_eventHandler.c **** #endif /* CYBLE_ANS_CLIENT */
1027:.\Generated_Source\PSoC4/ble_eventHandler.c **** #ifdef CYBLE_BAS_CLIENT
1028:.\Generated_Source\PSoC4/ble_eventHandler.c ****     if((cyBle_eventHandlerFlag & CYBLE_CALLBACK) != 0u)
1029:.\Generated_Source\PSoC4/ble_eventHandler.c ****     {
1030:.\Generated_Source\PSoC4/ble_eventHandler.c ****         CyBle_BascReadResponseEventHandler(eventParam);
1031:.\Generated_Source\PSoC4/ble_eventHandler.c ****     }
1032:.\Generated_Source\PSoC4/ble_eventHandler.c **** #endif /* CYBLE_BAS_CLIENT */
1033:.\Generated_Source\PSoC4/ble_eventHandler.c **** #ifdef CYBLE_BLS_CLIENT
1034:.\Generated_Source\PSoC4/ble_eventHandler.c ****     if((cyBle_eventHandlerFlag & CYBLE_CALLBACK) != 0u)
1035:.\Generated_Source\PSoC4/ble_eventHandler.c ****     {
1036:.\Generated_Source\PSoC4/ble_eventHandler.c ****         CyBle_BlscReadResponseEventHandler(eventParam);
1037:.\Generated_Source\PSoC4/ble_eventHandler.c ****     }
1038:.\Generated_Source\PSoC4/ble_eventHandler.c **** #endif /* CYBLE_BLS_CLIENT */
1039:.\Generated_Source\PSoC4/ble_eventHandler.c **** #ifdef CYBLE_BCS_CLIENT
1040:.\Generated_Source\PSoC4/ble_eventHandler.c ****     if((cyBle_eventHandlerFlag & CYBLE_CALLBACK) != 0u)
1041:.\Generated_Source\PSoC4/ble_eventHandler.c ****     {
1042:.\Generated_Source\PSoC4/ble_eventHandler.c ****         CyBle_BcscReadResponseEventHandler(eventParam);
1043:.\Generated_Source\PSoC4/ble_eventHandler.c ****     }
1044:.\Generated_Source\PSoC4/ble_eventHandler.c **** #endif /* CYBLE_BCS_CLIENT */
1045:.\Generated_Source\PSoC4/ble_eventHandler.c **** #ifdef CYBLE_BMS_CLIENT
1046:.\Generated_Source\PSoC4/ble_eventHandler.c ****     if((cyBle_eventHandlerFlag & CYBLE_CALLBACK) != 0u)
1047:.\Generated_Source\PSoC4/ble_eventHandler.c ****     {
1048:.\Generated_Source\PSoC4/ble_eventHandler.c ****         CyBle_BmscReadResponseEventHandler(eventParam);
1049:.\Generated_Source\PSoC4/ble_eventHandler.c ****     }
1050:.\Generated_Source\PSoC4/ble_eventHandler.c **** #endif /* CYBLE_BMS_CLIENT */
1051:.\Generated_Source\PSoC4/ble_eventHandler.c **** #ifdef CYBLE_CGMS_CLIENT
1052:.\Generated_Source\PSoC4/ble_eventHandler.c ****     if((cyBle_eventHandlerFlag & CYBLE_CALLBACK) != 0u)
1053:.\Generated_Source\PSoC4/ble_eventHandler.c ****     {
1054:.\Generated_Source\PSoC4/ble_eventHandler.c ****         CyBle_CgmscReadResponseEventHandler(eventParam);
1055:.\Generated_Source\PSoC4/ble_eventHandler.c ****     }
1056:.\Generated_Source\PSoC4/ble_eventHandler.c **** #endif /* CYBLE_CGMS_CLIENT */
1057:.\Generated_Source\PSoC4/ble_eventHandler.c **** #ifdef CYBLE_CPS_CLIENT
1058:.\Generated_Source\PSoC4/ble_eventHandler.c ****     if((cyBle_eventHandlerFlag & CYBLE_CALLBACK) != 0u)
1059:.\Generated_Source\PSoC4/ble_eventHandler.c ****     {
ARM GAS  C:\Users\alvin\AppData\Local\Temp\cc0iGj3s.s 			page 20


1060:.\Generated_Source\PSoC4/ble_eventHandler.c ****         CyBle_CpscReadResponseEventHandler(eventParam);
1061:.\Generated_Source\PSoC4/ble_eventHandler.c ****     }
1062:.\Generated_Source\PSoC4/ble_eventHandler.c **** #endif /* CYBLE_CPS_CLIENT */
1063:.\Generated_Source\PSoC4/ble_eventHandler.c **** #ifdef CYBLE_CSCS_CLIENT
1064:.\Generated_Source\PSoC4/ble_eventHandler.c ****     if((cyBle_eventHandlerFlag & CYBLE_CALLBACK) != 0u)
1065:.\Generated_Source\PSoC4/ble_eventHandler.c ****     {
1066:.\Generated_Source\PSoC4/ble_eventHandler.c ****         CyBle_CscscReadResponseEventHandler(eventParam);
1067:.\Generated_Source\PSoC4/ble_eventHandler.c ****     }
1068:.\Generated_Source\PSoC4/ble_eventHandler.c **** #endif /* CYBLE_CSCS_CLIENT */
1069:.\Generated_Source\PSoC4/ble_eventHandler.c **** #ifdef CYBLE_CTS_CLIENT
1070:.\Generated_Source\PSoC4/ble_eventHandler.c ****     if((cyBle_eventHandlerFlag & CYBLE_CALLBACK) != 0u)
1071:.\Generated_Source\PSoC4/ble_eventHandler.c ****     {
1072:.\Generated_Source\PSoC4/ble_eventHandler.c ****         CyBle_CtscReadResponseEventHandler(eventParam);
1073:.\Generated_Source\PSoC4/ble_eventHandler.c ****     }
1074:.\Generated_Source\PSoC4/ble_eventHandler.c **** #endif /* CYBLE_BAS_CLIENT */
1075:.\Generated_Source\PSoC4/ble_eventHandler.c **** #ifdef CYBLE_DIS_CLIENT
1076:.\Generated_Source\PSoC4/ble_eventHandler.c ****     if((cyBle_eventHandlerFlag & CYBLE_CALLBACK) != 0u)
1077:.\Generated_Source\PSoC4/ble_eventHandler.c ****     {
1078:.\Generated_Source\PSoC4/ble_eventHandler.c ****         CyBle_DiscReadResponseEventHandler(eventParam);
1079:.\Generated_Source\PSoC4/ble_eventHandler.c ****     }
1080:.\Generated_Source\PSoC4/ble_eventHandler.c **** #endif /* CYBLE_DIS_CLIENT */
1081:.\Generated_Source\PSoC4/ble_eventHandler.c **** #ifdef CYBLE_ESS_CLIENT
1082:.\Generated_Source\PSoC4/ble_eventHandler.c ****     if((cyBle_eventHandlerFlag & CYBLE_CALLBACK) != 0u)
1083:.\Generated_Source\PSoC4/ble_eventHandler.c ****     {
1084:.\Generated_Source\PSoC4/ble_eventHandler.c ****         CyBle_EsscReadResponseEventHandler(eventParam);
1085:.\Generated_Source\PSoC4/ble_eventHandler.c ****     }
1086:.\Generated_Source\PSoC4/ble_eventHandler.c **** #endif /* CYBLE_ESS_CLIENT */
1087:.\Generated_Source\PSoC4/ble_eventHandler.c **** #ifdef CYBLE_GLS_CLIENT
1088:.\Generated_Source\PSoC4/ble_eventHandler.c ****     if((cyBle_eventHandlerFlag & CYBLE_CALLBACK) != 0u)
1089:.\Generated_Source\PSoC4/ble_eventHandler.c ****     {
1090:.\Generated_Source\PSoC4/ble_eventHandler.c ****         CyBle_GlscReadResponseEventHandler(eventParam);
1091:.\Generated_Source\PSoC4/ble_eventHandler.c ****     }
1092:.\Generated_Source\PSoC4/ble_eventHandler.c **** #endif /* CYBLE_GLS_CLIENT */
1093:.\Generated_Source\PSoC4/ble_eventHandler.c **** #ifdef CYBLE_HIDS_CLIENT
1094:.\Generated_Source\PSoC4/ble_eventHandler.c ****     if((cyBle_eventHandlerFlag & CYBLE_CALLBACK) != 0u)
1095:.\Generated_Source\PSoC4/ble_eventHandler.c ****     {
1096:.\Generated_Source\PSoC4/ble_eventHandler.c ****         CyBle_HidscReadResponseEventHandler(eventParam);
1097:.\Generated_Source\PSoC4/ble_eventHandler.c ****     }
1098:.\Generated_Source\PSoC4/ble_eventHandler.c **** #endif /* CYBLE_HIDS_CLIENT */
1099:.\Generated_Source\PSoC4/ble_eventHandler.c **** #ifdef CYBLE_HPS_CLIENT
1100:.\Generated_Source\PSoC4/ble_eventHandler.c ****     if((cyBle_eventHandlerFlag & CYBLE_CALLBACK) != 0u)
1101:.\Generated_Source\PSoC4/ble_eventHandler.c ****     {
1102:.\Generated_Source\PSoC4/ble_eventHandler.c ****         CyBle_HpscReadResponseEventHandler(eventParam);
1103:.\Generated_Source\PSoC4/ble_eventHandler.c ****     }
1104:.\Generated_Source\PSoC4/ble_eventHandler.c **** #endif /* CYBLE_HPS_CLIENT */
1105:.\Generated_Source\PSoC4/ble_eventHandler.c **** #ifdef CYBLE_HRS_CLIENT
1106:.\Generated_Source\PSoC4/ble_eventHandler.c ****     if((cyBle_eventHandlerFlag & CYBLE_CALLBACK) != 0u)
1107:.\Generated_Source\PSoC4/ble_eventHandler.c ****     {
1108:.\Generated_Source\PSoC4/ble_eventHandler.c ****         CyBle_HrscReadResponseEventHandler(eventParam);
1109:.\Generated_Source\PSoC4/ble_eventHandler.c ****     }
1110:.\Generated_Source\PSoC4/ble_eventHandler.c **** #endif /* CYBLE_HRS_CLIENT */
1111:.\Generated_Source\PSoC4/ble_eventHandler.c **** #ifdef CYBLE_HTS_CLIENT
1112:.\Generated_Source\PSoC4/ble_eventHandler.c ****     if((cyBle_eventHandlerFlag & CYBLE_CALLBACK) != 0u)
1113:.\Generated_Source\PSoC4/ble_eventHandler.c ****     {
1114:.\Generated_Source\PSoC4/ble_eventHandler.c ****         CyBle_HtscReadResponseEventHandler(eventParam);
1115:.\Generated_Source\PSoC4/ble_eventHandler.c ****     }
1116:.\Generated_Source\PSoC4/ble_eventHandler.c **** #endif /* CYBLE_HTS_CLIENT */
ARM GAS  C:\Users\alvin\AppData\Local\Temp\cc0iGj3s.s 			page 21


1117:.\Generated_Source\PSoC4/ble_eventHandler.c **** #ifdef CYBLE_IPS_CLIENT
1118:.\Generated_Source\PSoC4/ble_eventHandler.c ****     if((cyBle_eventHandlerFlag & CYBLE_CALLBACK) != 0u)
1119:.\Generated_Source\PSoC4/ble_eventHandler.c ****     {
1120:.\Generated_Source\PSoC4/ble_eventHandler.c ****         CyBle_IpscReadResponseEventHandler(eventParam);
1121:.\Generated_Source\PSoC4/ble_eventHandler.c ****     }
1122:.\Generated_Source\PSoC4/ble_eventHandler.c **** #endif /* CYBLE_IPS_CLIENT */
1123:.\Generated_Source\PSoC4/ble_eventHandler.c **** #ifdef CYBLE_LLS_CLIENT
1124:.\Generated_Source\PSoC4/ble_eventHandler.c ****     if((cyBle_eventHandlerFlag & CYBLE_CALLBACK) != 0u)
1125:.\Generated_Source\PSoC4/ble_eventHandler.c ****     {
1126:.\Generated_Source\PSoC4/ble_eventHandler.c ****         CyBle_LlscReadResponseEventHandler(eventParam);
1127:.\Generated_Source\PSoC4/ble_eventHandler.c ****     }
1128:.\Generated_Source\PSoC4/ble_eventHandler.c **** #endif /* CYBLE_LLS_CLIENT */
1129:.\Generated_Source\PSoC4/ble_eventHandler.c **** #ifdef CYBLE_LNS_CLIENT
1130:.\Generated_Source\PSoC4/ble_eventHandler.c ****     if((cyBle_eventHandlerFlag & CYBLE_CALLBACK) != 0u)
1131:.\Generated_Source\PSoC4/ble_eventHandler.c ****     {
1132:.\Generated_Source\PSoC4/ble_eventHandler.c ****         CyBle_LnscReadResponseEventHandler(eventParam);
1133:.\Generated_Source\PSoC4/ble_eventHandler.c ****     }
1134:.\Generated_Source\PSoC4/ble_eventHandler.c **** #endif /* CYBLE_LNS_CLIENT */
1135:.\Generated_Source\PSoC4/ble_eventHandler.c **** #ifdef CYBLE_NDCS_CLIENT
1136:.\Generated_Source\PSoC4/ble_eventHandler.c ****     if((cyBle_eventHandlerFlag & CYBLE_CALLBACK) != 0u)
1137:.\Generated_Source\PSoC4/ble_eventHandler.c ****     {
1138:.\Generated_Source\PSoC4/ble_eventHandler.c ****         CyBle_NdcscReadResponseEventHandler(eventParam);
1139:.\Generated_Source\PSoC4/ble_eventHandler.c ****     }
1140:.\Generated_Source\PSoC4/ble_eventHandler.c **** #endif /* CYBLE_NDCS_CLIENT */
1141:.\Generated_Source\PSoC4/ble_eventHandler.c **** #ifdef CYBLE_PASS_CLIENT
1142:.\Generated_Source\PSoC4/ble_eventHandler.c ****     if((cyBle_eventHandlerFlag & CYBLE_CALLBACK) != 0u)
1143:.\Generated_Source\PSoC4/ble_eventHandler.c ****     {
1144:.\Generated_Source\PSoC4/ble_eventHandler.c ****         CyBle_PasscReadResponseEventHandler(eventParam);
1145:.\Generated_Source\PSoC4/ble_eventHandler.c ****     }
1146:.\Generated_Source\PSoC4/ble_eventHandler.c **** #endif /* CYBLE_PASS_CLIENT */
1147:.\Generated_Source\PSoC4/ble_eventHandler.c **** #ifdef CYBLE_RSCS_CLIENT
1148:.\Generated_Source\PSoC4/ble_eventHandler.c ****     if((cyBle_eventHandlerFlag & CYBLE_CALLBACK) != 0u)
1149:.\Generated_Source\PSoC4/ble_eventHandler.c ****     {
1150:.\Generated_Source\PSoC4/ble_eventHandler.c ****         CyBle_RscscReadResponseEventHandler(eventParam);
1151:.\Generated_Source\PSoC4/ble_eventHandler.c ****     }
1152:.\Generated_Source\PSoC4/ble_eventHandler.c **** #endif /* CYBLE_RSCS_CLIENT */
1153:.\Generated_Source\PSoC4/ble_eventHandler.c **** #ifdef CYBLE_RTUS_CLIENT
1154:.\Generated_Source\PSoC4/ble_eventHandler.c ****     if((cyBle_eventHandlerFlag & CYBLE_CALLBACK) != 0u)
1155:.\Generated_Source\PSoC4/ble_eventHandler.c ****     {
1156:.\Generated_Source\PSoC4/ble_eventHandler.c ****         CyBle_RtuscReadResponseEventHandler(eventParam);
1157:.\Generated_Source\PSoC4/ble_eventHandler.c ****     }
1158:.\Generated_Source\PSoC4/ble_eventHandler.c **** #endif /* CYBLE_RTUS_CLIENT */
1159:.\Generated_Source\PSoC4/ble_eventHandler.c **** #ifdef CYBLE_SCPS_CLIENT
1160:.\Generated_Source\PSoC4/ble_eventHandler.c ****     if((cyBle_eventHandlerFlag & CYBLE_CALLBACK) != 0u)
1161:.\Generated_Source\PSoC4/ble_eventHandler.c ****     {
1162:.\Generated_Source\PSoC4/ble_eventHandler.c ****         CyBle_ScpscReadResponseEventHandler(eventParam);
1163:.\Generated_Source\PSoC4/ble_eventHandler.c ****     }
1164:.\Generated_Source\PSoC4/ble_eventHandler.c **** #endif /* CYBLE_SCPS_CLIENT */
1165:.\Generated_Source\PSoC4/ble_eventHandler.c **** #ifdef CYBLE_TPS_CLIENT
1166:.\Generated_Source\PSoC4/ble_eventHandler.c ****     if((cyBle_eventHandlerFlag & CYBLE_CALLBACK) != 0u)
1167:.\Generated_Source\PSoC4/ble_eventHandler.c ****     {
1168:.\Generated_Source\PSoC4/ble_eventHandler.c ****         CyBle_TpscReadResponseEventHandler(eventParam);
1169:.\Generated_Source\PSoC4/ble_eventHandler.c ****     }
1170:.\Generated_Source\PSoC4/ble_eventHandler.c **** #endif /* CYBLE_TPS_CLIENT */
1171:.\Generated_Source\PSoC4/ble_eventHandler.c **** #ifdef CYBLE_UDS_CLIENT
1172:.\Generated_Source\PSoC4/ble_eventHandler.c ****     if((cyBle_eventHandlerFlag & CYBLE_CALLBACK) != 0u)
1173:.\Generated_Source\PSoC4/ble_eventHandler.c ****     {
ARM GAS  C:\Users\alvin\AppData\Local\Temp\cc0iGj3s.s 			page 22


1174:.\Generated_Source\PSoC4/ble_eventHandler.c ****         CyBle_UdscReadResponseEventHandler(eventParam);
1175:.\Generated_Source\PSoC4/ble_eventHandler.c ****     }
1176:.\Generated_Source\PSoC4/ble_eventHandler.c **** #endif /* CYBLE_UDS_CLIENT */
1177:.\Generated_Source\PSoC4/ble_eventHandler.c **** #ifdef CYBLE_WPTS_CLIENT
1178:.\Generated_Source\PSoC4/ble_eventHandler.c ****     if((cyBle_eventHandlerFlag & CYBLE_CALLBACK) != 0u)
1179:.\Generated_Source\PSoC4/ble_eventHandler.c ****     {
1180:.\Generated_Source\PSoC4/ble_eventHandler.c ****         CyBle_WptscReadResponseEventHandler(eventParam);
1181:.\Generated_Source\PSoC4/ble_eventHandler.c ****     }
1182:.\Generated_Source\PSoC4/ble_eventHandler.c **** #endif /* CYBLE_WPTS_CLIENT */
1183:.\Generated_Source\PSoC4/ble_eventHandler.c **** #ifdef CYBLE_WSS_CLIENT
1184:.\Generated_Source\PSoC4/ble_eventHandler.c ****     if((cyBle_eventHandlerFlag & CYBLE_CALLBACK) != 0u)
1185:.\Generated_Source\PSoC4/ble_eventHandler.c ****     {
1186:.\Generated_Source\PSoC4/ble_eventHandler.c ****         CyBle_WsscReadResponseEventHandler(eventParam);
1187:.\Generated_Source\PSoC4/ble_eventHandler.c ****     }
1188:.\Generated_Source\PSoC4/ble_eventHandler.c **** #endif /* CYBLE_WSS_CLIENT */
1189:.\Generated_Source\PSoC4/ble_eventHandler.c **** }
1190:.\Generated_Source\PSoC4/ble_eventHandler.c **** 
1191:.\Generated_Source\PSoC4/ble_eventHandler.c **** /******************************************************************************    
1192:.\Generated_Source\PSoC4/ble_eventHandler.c **** * Function Name: CyBle_ReadMultipleResponseEventHandler
1193:.\Generated_Source\PSoC4/ble_eventHandler.c **** ***************************************************************************//**
1194:.\Generated_Source\PSoC4/ble_eventHandler.c **** * 
1195:.\Generated_Source\PSoC4/ble_eventHandler.c **** *  Handles the Read Multiple Response event from BLE stack.
1196:.\Generated_Source\PSoC4/ble_eventHandler.c **** * 
1197:.\Generated_Source\PSoC4/ble_eventHandler.c **** *  \param eventParam: event parameter
1198:.\Generated_Source\PSoC4/ble_eventHandler.c **** * 
1199:.\Generated_Source\PSoC4/ble_eventHandler.c **** * \return
1200:.\Generated_Source\PSoC4/ble_eventHandler.c **** *  None
1201:.\Generated_Source\PSoC4/ble_eventHandler.c **** * 
1202:.\Generated_Source\PSoC4/ble_eventHandler.c **** ******************************************************************************/
1203:.\Generated_Source\PSoC4/ble_eventHandler.c **** static void CyBle_ReadMultipleResponseEventHandler(CYBLE_GATTC_READ_RSP_PARAM_T *eventParam)
1204:.\Generated_Source\PSoC4/ble_eventHandler.c **** {
1205:.\Generated_Source\PSoC4/ble_eventHandler.c **** #ifdef CYBLE_CUSTOM_CLIENT
1206:.\Generated_Source\PSoC4/ble_eventHandler.c ****     /* Read response with 128-bit included service uuid */
1207:.\Generated_Source\PSoC4/ble_eventHandler.c ****     if((CYBLE_CLIENT_STATE_INCL_DISCOVERING == CyBle_GetClientState()) &&
1208:.\Generated_Source\PSoC4/ble_eventHandler.c ****        (cyBle_discInclInfo.inclDefHandle != 0u))
1209:.\Generated_Source\PSoC4/ble_eventHandler.c ****     {
1210:.\Generated_Source\PSoC4/ble_eventHandler.c ****         CYBLE_DISC_SRVC128_INFO_T discServInfo;
1211:.\Generated_Source\PSoC4/ble_eventHandler.c **** 
1212:.\Generated_Source\PSoC4/ble_eventHandler.c ****         /* Store service range */
1213:.\Generated_Source\PSoC4/ble_eventHandler.c ****         discServInfo.range = cyBle_discInclInfo.inclHandleRange;
1214:.\Generated_Source\PSoC4/ble_eventHandler.c ****         (void)memcpy((void *) discServInfo.uuid.uuid128.value, (void *)eventParam->value.val, event
1215:.\Generated_Source\PSoC4/ble_eventHandler.c ****         CyBle_CustomcDiscoverServiceEventHandler(&discServInfo);
1216:.\Generated_Source\PSoC4/ble_eventHandler.c ****         
1217:.\Generated_Source\PSoC4/ble_eventHandler.c ****         /* Re-initiate CyBle_GattcFindIncludedServices function, setting the start
1218:.\Generated_Source\PSoC4/ble_eventHandler.c ****            handle to the attribute handle which is placed next to the one used in
1219:.\Generated_Source\PSoC4/ble_eventHandler.c ****            the above step.
1220:.\Generated_Source\PSoC4/ble_eventHandler.c ****         */
1221:.\Generated_Source\PSoC4/ble_eventHandler.c ****         discServInfo.range.startHandle = cyBle_discInclInfo.inclDefHandle + 1;
1222:.\Generated_Source\PSoC4/ble_eventHandler.c ****         discServInfo.range.endHandle = cyBle_serverInfo[cyBle_disCount].range.endHandle;
1223:.\Generated_Source\PSoC4/ble_eventHandler.c ****         if(discServInfo.range.startHandle <= discServInfo.range.endHandle)
1224:.\Generated_Source\PSoC4/ble_eventHandler.c ****         {
1225:.\Generated_Source\PSoC4/ble_eventHandler.c ****             if(CYBLE_ERROR_OK != CyBle_GattcFindIncludedServices(cyBle_connHandle, &discServInfo.ra
1226:.\Generated_Source\PSoC4/ble_eventHandler.c ****             {
1227:.\Generated_Source\PSoC4/ble_eventHandler.c ****                 CyBle_ApplCallback(CYBLE_EVT_GATTC_INCL_DISCOVERY_FAILED, NULL);
1228:.\Generated_Source\PSoC4/ble_eventHandler.c ****                 cyBle_eventHandlerFlag &= (uint8)~CYBLE_AUTO_DISCOVERY;
1229:.\Generated_Source\PSoC4/ble_eventHandler.c ****             }
1230:.\Generated_Source\PSoC4/ble_eventHandler.c ****         }
ARM GAS  C:\Users\alvin\AppData\Local\Temp\cc0iGj3s.s 			page 23


1231:.\Generated_Source\PSoC4/ble_eventHandler.c ****         else /* Continue discovery of the following service */
1232:.\Generated_Source\PSoC4/ble_eventHandler.c ****         {
1233:.\Generated_Source\PSoC4/ble_eventHandler.c ****             CyBle_NextInclDiscovery(CYBLE_DISCOVERY_CONTINUE);
1234:.\Generated_Source\PSoC4/ble_eventHandler.c ****         }
1235:.\Generated_Source\PSoC4/ble_eventHandler.c ****         
1236:.\Generated_Source\PSoC4/ble_eventHandler.c ****         cyBle_eventHandlerFlag &= (uint8)~CYBLE_CALLBACK;
1237:.\Generated_Source\PSoC4/ble_eventHandler.c ****     #ifdef CYBLE_CUSTOM_CLIENT
1238:.\Generated_Source\PSoC4/ble_eventHandler.c ****         cyBle_discInclInfo.inclDefHandle = 0u;
1239:.\Generated_Source\PSoC4/ble_eventHandler.c ****     #endif /* CYBLE_CUSTOM_CLIENT */
1240:.\Generated_Source\PSoC4/ble_eventHandler.c ****     }
1241:.\Generated_Source\PSoC4/ble_eventHandler.c **** #endif /* CYBLE_CUSTOM_CLIENT */
1242:.\Generated_Source\PSoC4/ble_eventHandler.c **** #ifdef CYBLE_IPS_CLIENT
1243:.\Generated_Source\PSoC4/ble_eventHandler.c ****     if((cyBle_eventHandlerFlag & CYBLE_CALLBACK) != 0u)
1244:.\Generated_Source\PSoC4/ble_eventHandler.c ****     {
1245:.\Generated_Source\PSoC4/ble_eventHandler.c ****         CyBle_IpscReadMultipleResponseEventHandler(eventParam);
1246:.\Generated_Source\PSoC4/ble_eventHandler.c ****     }
1247:.\Generated_Source\PSoC4/ble_eventHandler.c **** #endif /* CYBLE_IPS_CLIENT */
1248:.\Generated_Source\PSoC4/ble_eventHandler.c ****     /* MISRA 16.7 violavion workarround */
1249:.\Generated_Source\PSoC4/ble_eventHandler.c ****     eventParam = eventParam;
1250:.\Generated_Source\PSoC4/ble_eventHandler.c **** }
1251:.\Generated_Source\PSoC4/ble_eventHandler.c **** #endif /* CYBLE_GATT_ROLE_CLIENT */
1252:.\Generated_Source\PSoC4/ble_eventHandler.c **** 
1253:.\Generated_Source\PSoC4/ble_eventHandler.c **** 
1254:.\Generated_Source\PSoC4/ble_eventHandler.c **** /****************************************************************************** 
1255:.\Generated_Source\PSoC4/ble_eventHandler.c **** * Function Name: CyBle_DisconnectEventHandler
1256:.\Generated_Source\PSoC4/ble_eventHandler.c **** ***************************************************************************//**
1257:.\Generated_Source\PSoC4/ble_eventHandler.c **** * 
1258:.\Generated_Source\PSoC4/ble_eventHandler.c **** *  Handles the GATT Disconnection event from the BLE stack.
1259:.\Generated_Source\PSoC4/ble_eventHandler.c **** * 
1260:.\Generated_Source\PSoC4/ble_eventHandler.c **** * \return
1261:.\Generated_Source\PSoC4/ble_eventHandler.c **** *  None
1262:.\Generated_Source\PSoC4/ble_eventHandler.c **** * 
1263:.\Generated_Source\PSoC4/ble_eventHandler.c **** ******************************************************************************/
1264:.\Generated_Source\PSoC4/ble_eventHandler.c **** static void CyBle_GattDisconnectEventHandler(void)
1265:.\Generated_Source\PSoC4/ble_eventHandler.c **** {
  25              		.loc 1 1265 0
  26              		.cfi_startproc
1266:.\Generated_Source\PSoC4/ble_eventHandler.c ****     cyBle_connHandle.attId = 0u;
  27              		.loc 1 1266 0
  28 0000 024B     		ldr	r3, .L2
  29 0002 0022     		mov	r2, #0
  30 0004 5A70     		strb	r2, [r3, #1]
1267:.\Generated_Source\PSoC4/ble_eventHandler.c ****     cyBle_connHandle.bdHandle = 0u;
  31              		.loc 1 1267 0
  32 0006 1A70     		strb	r2, [r3]
1268:.\Generated_Source\PSoC4/ble_eventHandler.c ****     
1269:.\Generated_Source\PSoC4/ble_eventHandler.c ****     #if (CYBLE_GATT_ROLE_CLIENT)
1270:.\Generated_Source\PSoC4/ble_eventHandler.c ****         if(CYBLE_CLIENT_STATE_DISCOVERED == CyBle_GetClientState())
1271:.\Generated_Source\PSoC4/ble_eventHandler.c ****         {
1272:.\Generated_Source\PSoC4/ble_eventHandler.c ****             CyBle_SetClientState(CYBLE_CLIENT_STATE_DISCONNECTED_DISCOVERED);
1273:.\Generated_Source\PSoC4/ble_eventHandler.c ****         }
1274:.\Generated_Source\PSoC4/ble_eventHandler.c ****         else
1275:.\Generated_Source\PSoC4/ble_eventHandler.c ****         {
1276:.\Generated_Source\PSoC4/ble_eventHandler.c ****             CyBle_SetClientState(CYBLE_CLIENT_STATE_DISCONNECTED);
1277:.\Generated_Source\PSoC4/ble_eventHandler.c ****         }
1278:.\Generated_Source\PSoC4/ble_eventHandler.c ****     #endif /* CYBLE_GATT_ROLE_CLIENT */
1279:.\Generated_Source\PSoC4/ble_eventHandler.c ****         
ARM GAS  C:\Users\alvin\AppData\Local\Temp\cc0iGj3s.s 			page 24


1280:.\Generated_Source\PSoC4/ble_eventHandler.c ****     #ifdef CYBLE_CPS_SERVER
1281:.\Generated_Source\PSoC4/ble_eventHandler.c ****         #if CYBLE_GAP_ROLE_BROADCASTER
1282:.\Generated_Source\PSoC4/ble_eventHandler.c ****             CyBle_CpssDisconnectEventHandler();
1283:.\Generated_Source\PSoC4/ble_eventHandler.c ****         #endif /* CYBLE_GAP_ROLE_BROADCASTER */
1284:.\Generated_Source\PSoC4/ble_eventHandler.c ****     #endif /* CYBLE_CPS_SERVER */
1285:.\Generated_Source\PSoC4/ble_eventHandler.c **** 
1286:.\Generated_Source\PSoC4/ble_eventHandler.c ****     #ifdef CYBLE_CPS_CLIENT
1287:.\Generated_Source\PSoC4/ble_eventHandler.c ****         CyBle_CpscDisconnectEventHandler();
1288:.\Generated_Source\PSoC4/ble_eventHandler.c ****     #endif /* CYBLE_CPS_CLIENT */
1289:.\Generated_Source\PSoC4/ble_eventHandler.c **** 
1290:.\Generated_Source\PSoC4/ble_eventHandler.c ****     #ifdef CYBLE_IAS_SERVER
1291:.\Generated_Source\PSoC4/ble_eventHandler.c ****         CyBle_IassDisconnectEventHandler();
1292:.\Generated_Source\PSoC4/ble_eventHandler.c ****     #endif /* CYBLE_IAS_SERVER */
1293:.\Generated_Source\PSoC4/ble_eventHandler.c ****     
1294:.\Generated_Source\PSoC4/ble_eventHandler.c ****     #ifdef CYBLE_GLS_SERVER
1295:.\Generated_Source\PSoC4/ble_eventHandler.c ****         CyBle_GlsInit();
1296:.\Generated_Source\PSoC4/ble_eventHandler.c ****     #endif /* CYBLE_GLS_SERVER */
1297:.\Generated_Source\PSoC4/ble_eventHandler.c ****     
1298:.\Generated_Source\PSoC4/ble_eventHandler.c ****     #ifdef CYBLE_LNS_SERVER
1299:.\Generated_Source\PSoC4/ble_eventHandler.c ****         CyBle_LnsInit();
1300:.\Generated_Source\PSoC4/ble_eventHandler.c ****     #endif /* CYBLE_LNS_SERVER */
1301:.\Generated_Source\PSoC4/ble_eventHandler.c ****     
1302:.\Generated_Source\PSoC4/ble_eventHandler.c ****     #ifdef CYBLE_UDS_SERVER
1303:.\Generated_Source\PSoC4/ble_eventHandler.c ****         CyBle_UdsInit();
1304:.\Generated_Source\PSoC4/ble_eventHandler.c ****     #endif /* CYBLE_UDS_SERVER */
1305:.\Generated_Source\PSoC4/ble_eventHandler.c **** }
  33              		.loc 1 1305 0
  34              		@ sp needed
  35 0008 7047     		bx	lr
  36              	.L3:
  37 000a C046     		.align	2
  38              	.L2:
  39 000c 00000000 		.word	cyBle_connHandle
  40              		.cfi_endproc
  41              	.LFE4:
  42              		.size	CyBle_GattDisconnectEventHandler, .-CyBle_GattDisconnectEventHandler
  43              		.section	.text.CyBle_WriteReqHandler,"ax",%progbits
  44              		.align	2
  45              		.code	16
  46              		.thumb_func
  47              		.type	CyBle_WriteReqHandler, %function
  48              	CyBle_WriteReqHandler:
  49              	.LFB2:
 233:.\Generated_Source\PSoC4/ble_eventHandler.c ****     CYBLE_GATT_ERR_CODE_T gattErr;
  50              		.loc 1 233 0
  51              		.cfi_startproc
  52              	.LVL0:
  53 0000 10B5     		push	{r4, lr}
  54              		.cfi_def_cfa_offset 8
  55              		.cfi_offset 4, -8
  56              		.cfi_offset 14, -4
  57 0002 82B0     		sub	sp, sp, #8
  58              		.cfi_def_cfa_offset 16
  59 0004 041C     		mov	r4, r0
 239:.\Generated_Source\PSoC4/ble_eventHandler.c **** #ifdef CYBLE_ANCS_SERVER
  60              		.loc 1 239 0
  61 0006 FFF7FEFF 		bl	CyBle_GattsWriteEventHandler
ARM GAS  C:\Users\alvin\AppData\Local\Temp\cc0iGj3s.s 			page 25


  62              	.LVL1:
 404:.\Generated_Source\PSoC4/ble_eventHandler.c ****     {
  63              		.loc 1 404 0
  64 000a 0A4B     		ldr	r3, .L7
  65 000c 1B78     		ldrb	r3, [r3]
  66 000e DB07     		lsl	r3, r3, #31
  67 0010 0ED4     		bmi	.L4
 406:.\Generated_Source\PSoC4/ble_eventHandler.c ****         {
  68              		.loc 1 406 0
  69 0012 0028     		cmp	r0, #0
  70 0014 09D0     		beq	.L6
  71              	.LBB2:
 410:.\Generated_Source\PSoC4/ble_eventHandler.c ****             err_param.attrHandle = eventParam->handleValPair.attrHandle;
  72              		.loc 1 410 0
  73 0016 01A9     		add	r1, sp, #4
  74 0018 1223     		mov	r3, #18
  75 001a 8B70     		strb	r3, [r1, #2]
 411:.\Generated_Source\PSoC4/ble_eventHandler.c ****             err_param.errorCode = gattErr;
  76              		.loc 1 411 0
  77 001c A389     		ldrh	r3, [r4, #12]
  78 001e 0B80     		strh	r3, [r1]
 412:.\Generated_Source\PSoC4/ble_eventHandler.c **** 
  79              		.loc 1 412 0
  80 0020 C870     		strb	r0, [r1, #3]
 415:.\Generated_Source\PSoC4/ble_eventHandler.c ****         }
  81              		.loc 1 415 0
  82 0022 2068     		ldr	r0, [r4]
  83              	.LVL2:
  84 0024 FFF7FEFF 		bl	CyBle_GattsErrorRsp
  85              	.LVL3:
  86              	.LBE2:
  87 0028 02E0     		b	.L4
  88              	.LVL4:
  89              	.L6:
 419:.\Generated_Source\PSoC4/ble_eventHandler.c ****         }
  90              		.loc 1 419 0
  91 002a 2068     		ldr	r0, [r4]
  92              	.LVL5:
  93 002c FFF7FEFF 		bl	CyBle_GattsWriteRsp
  94              	.LVL6:
  95              	.L4:
 422:.\Generated_Source\PSoC4/ble_eventHandler.c **** 
  96              		.loc 1 422 0
  97 0030 02B0     		add	sp, sp, #8
  98              		@ sp needed
  99              	.LVL7:
 100 0032 10BD     		pop	{r4, pc}
 101              	.L8:
 102              		.align	2
 103              	.L7:
 104 0034 00000000 		.word	cyBle_eventHandlerFlag
 105              		.cfi_endproc
 106              	.LFE2:
 107              		.size	CyBle_WriteReqHandler, .-CyBle_WriteReqHandler
 108              		.section	.text.CyBle_IsDeviceAddressValid,"ax",%progbits
 109              		.align	2
 110              		.global	CyBle_IsDeviceAddressValid
ARM GAS  C:\Users\alvin\AppData\Local\Temp\cc0iGj3s.s 			page 26


 111              		.code	16
 112              		.thumb_func
 113              		.type	CyBle_IsDeviceAddressValid, %function
 114              	CyBle_IsDeviceAddressValid:
 115              	.LFB7:
1306:.\Generated_Source\PSoC4/ble_eventHandler.c **** 
1307:.\Generated_Source\PSoC4/ble_eventHandler.c **** 
1308:.\Generated_Source\PSoC4/ble_eventHandler.c **** /****************************************************************************** 
1309:.\Generated_Source\PSoC4/ble_eventHandler.c **** * Function Name: CyBle_TimeOutEventHandler
1310:.\Generated_Source\PSoC4/ble_eventHandler.c **** ***************************************************************************//**
1311:.\Generated_Source\PSoC4/ble_eventHandler.c **** * 
1312:.\Generated_Source\PSoC4/ble_eventHandler.c **** *  Handles the CYBLE_EVT_TIMEOUT event from the BLE stack.
1313:.\Generated_Source\PSoC4/ble_eventHandler.c **** * 
1314:.\Generated_Source\PSoC4/ble_eventHandler.c **** *  \param eventParam: The pointer to a structure of type CYBLE_TO_REASON_CODE_T.
1315:.\Generated_Source\PSoC4/ble_eventHandler.c **** * 
1316:.\Generated_Source\PSoC4/ble_eventHandler.c **** * \return
1317:.\Generated_Source\PSoC4/ble_eventHandler.c **** *  None
1318:.\Generated_Source\PSoC4/ble_eventHandler.c **** * 
1319:.\Generated_Source\PSoC4/ble_eventHandler.c **** ******************************************************************************/
1320:.\Generated_Source\PSoC4/ble_eventHandler.c **** static void CyBle_TimeOutEventHandler(const CYBLE_TO_REASON_CODE_T *eventParam)
1321:.\Generated_Source\PSoC4/ble_eventHandler.c **** {
1322:.\Generated_Source\PSoC4/ble_eventHandler.c ****     if(*eventParam == CYBLE_GATT_RSP_TO)
1323:.\Generated_Source\PSoC4/ble_eventHandler.c ****     {
1324:.\Generated_Source\PSoC4/ble_eventHandler.c ****     #if (CYBLE_GATT_ROLE_CLIENT)
1325:.\Generated_Source\PSoC4/ble_eventHandler.c ****         if((cyBle_eventHandlerFlag & CYBLE_AUTO_DISCOVERY) != 0u)
1326:.\Generated_Source\PSoC4/ble_eventHandler.c ****         {
1327:.\Generated_Source\PSoC4/ble_eventHandler.c ****             switch(CyBle_GetClientState())
1328:.\Generated_Source\PSoC4/ble_eventHandler.c ****             {
1329:.\Generated_Source\PSoC4/ble_eventHandler.c ****                 case CYBLE_CLIENT_STATE_SRVC_DISCOVERING:
1330:.\Generated_Source\PSoC4/ble_eventHandler.c ****                     CyBle_ApplCallback(CYBLE_EVT_GATTC_SRVC_DISCOVERY_FAILED, NULL);
1331:.\Generated_Source\PSoC4/ble_eventHandler.c ****                     break;
1332:.\Generated_Source\PSoC4/ble_eventHandler.c ****                 case CYBLE_CLIENT_STATE_INCL_DISCOVERING:
1333:.\Generated_Source\PSoC4/ble_eventHandler.c ****                     CyBle_ApplCallback(CYBLE_EVT_GATTC_INCL_DISCOVERY_FAILED, NULL);
1334:.\Generated_Source\PSoC4/ble_eventHandler.c ****                     break;
1335:.\Generated_Source\PSoC4/ble_eventHandler.c ****                 case CYBLE_CLIENT_STATE_CHAR_DISCOVERING:
1336:.\Generated_Source\PSoC4/ble_eventHandler.c ****                     CyBle_ApplCallback(CYBLE_EVT_GATTC_CHAR_DISCOVERY_FAILED, NULL);
1337:.\Generated_Source\PSoC4/ble_eventHandler.c ****                     break;
1338:.\Generated_Source\PSoC4/ble_eventHandler.c ****                 case CYBLE_CLIENT_STATE_DESCR_DISCOVERING:
1339:.\Generated_Source\PSoC4/ble_eventHandler.c ****                     CyBle_ApplCallback(CYBLE_EVT_GATTC_DESCR_DISCOVERY_FAILED, NULL);
1340:.\Generated_Source\PSoC4/ble_eventHandler.c ****                     break;
1341:.\Generated_Source\PSoC4/ble_eventHandler.c ****                 default:        /* Other states should not be set in Auto discovery mode */
1342:.\Generated_Source\PSoC4/ble_eventHandler.c ****                     break;
1343:.\Generated_Source\PSoC4/ble_eventHandler.c ****             }
1344:.\Generated_Source\PSoC4/ble_eventHandler.c ****             cyBle_eventHandlerFlag &= (uint8)~CYBLE_AUTO_DISCOVERY;
1345:.\Generated_Source\PSoC4/ble_eventHandler.c ****             CyBle_SetClientState(CYBLE_CLIENT_STATE_CONNECTED);
1346:.\Generated_Source\PSoC4/ble_eventHandler.c ****         }
1347:.\Generated_Source\PSoC4/ble_eventHandler.c ****     #endif /* CYBLE_GATT_ROLE_CLIENT */
1348:.\Generated_Source\PSoC4/ble_eventHandler.c ****     #ifdef CYBLE_CPS_SERVER
1349:.\Generated_Source\PSoC4/ble_eventHandler.c ****         CyBle_CpssTimeOutEventHandler();
1350:.\Generated_Source\PSoC4/ble_eventHandler.c ****     #endif /* CYBLE_CPS_SERVER */
1351:.\Generated_Source\PSoC4/ble_eventHandler.c ****     }
1352:.\Generated_Source\PSoC4/ble_eventHandler.c ****     
1353:.\Generated_Source\PSoC4/ble_eventHandler.c ****     /* Connection procedure timeout */
1354:.\Generated_Source\PSoC4/ble_eventHandler.c ****     if(*eventParam == CYBLE_GENERIC_TO)
1355:.\Generated_Source\PSoC4/ble_eventHandler.c ****     {
1356:.\Generated_Source\PSoC4/ble_eventHandler.c ****     #if(CYBLE_GAP_ROLE_CENTRAL)
1357:.\Generated_Source\PSoC4/ble_eventHandler.c ****         if(CYBLE_STATE_CONNECTING == CyBle_GetState())
ARM GAS  C:\Users\alvin\AppData\Local\Temp\cc0iGj3s.s 			page 27


1358:.\Generated_Source\PSoC4/ble_eventHandler.c ****         {
1359:.\Generated_Source\PSoC4/ble_eventHandler.c ****             (void)CyBle_GapcCancelDeviceConnection();
1360:.\Generated_Source\PSoC4/ble_eventHandler.c ****         }
1361:.\Generated_Source\PSoC4/ble_eventHandler.c ****     #endif /* CYBLE_GAP_ROLE_CENTRAL */
1362:.\Generated_Source\PSoC4/ble_eventHandler.c ****     }
1363:.\Generated_Source\PSoC4/ble_eventHandler.c **** }
1364:.\Generated_Source\PSoC4/ble_eventHandler.c **** 
1365:.\Generated_Source\PSoC4/ble_eventHandler.c **** 
1366:.\Generated_Source\PSoC4/ble_eventHandler.c **** /****************************************************************************** 
1367:.\Generated_Source\PSoC4/ble_eventHandler.c **** * Function Name: CyBle_GattConnectReqHandler
1368:.\Generated_Source\PSoC4/ble_eventHandler.c **** ***************************************************************************//**
1369:.\Generated_Source\PSoC4/ble_eventHandler.c **** * 
1370:.\Generated_Source\PSoC4/ble_eventHandler.c **** *  Handles the GATT connect event from the BLE stack.
1371:.\Generated_Source\PSoC4/ble_eventHandler.c **** * 
1372:.\Generated_Source\PSoC4/ble_eventHandler.c **** * \return
1373:.\Generated_Source\PSoC4/ble_eventHandler.c **** *  None
1374:.\Generated_Source\PSoC4/ble_eventHandler.c **** * 
1375:.\Generated_Source\PSoC4/ble_eventHandler.c **** ******************************************************************************/
1376:.\Generated_Source\PSoC4/ble_eventHandler.c **** static void CyBle_GattConnectReqHandler(void)
1377:.\Generated_Source\PSoC4/ble_eventHandler.c **** {
1378:.\Generated_Source\PSoC4/ble_eventHandler.c ****     #ifdef CYBLE_CGMS_SERVER
1379:.\Generated_Source\PSoC4/ble_eventHandler.c ****         CyBle_CgmsInit();
1380:.\Generated_Source\PSoC4/ble_eventHandler.c ****     #endif /* CYBLE_CGMS_SERVER */
1381:.\Generated_Source\PSoC4/ble_eventHandler.c ****     
1382:.\Generated_Source\PSoC4/ble_eventHandler.c ****     #ifdef CYBLE_CPS_SERVER
1383:.\Generated_Source\PSoC4/ble_eventHandler.c ****         CyBle_CpssConnectEventHandler();
1384:.\Generated_Source\PSoC4/ble_eventHandler.c ****     #endif /* CYBLE_CPS_SERVER */
1385:.\Generated_Source\PSoC4/ble_eventHandler.c ****     
1386:.\Generated_Source\PSoC4/ble_eventHandler.c ****     #ifdef CYBLE_CSCS_SERVER
1387:.\Generated_Source\PSoC4/ble_eventHandler.c ****             CyBle_CscsInit();
1388:.\Generated_Source\PSoC4/ble_eventHandler.c ****     #endif /* CYBLE_CSCS_SERVER */
1389:.\Generated_Source\PSoC4/ble_eventHandler.c ****     
1390:.\Generated_Source\PSoC4/ble_eventHandler.c ****     #ifdef CYBLE_LLS_SERVER
1391:.\Generated_Source\PSoC4/ble_eventHandler.c ****         CyBle_LlssConnectEventHandler();
1392:.\Generated_Source\PSoC4/ble_eventHandler.c ****     #endif /* CYBLE_LLS_SERVER */
1393:.\Generated_Source\PSoC4/ble_eventHandler.c ****     
1394:.\Generated_Source\PSoC4/ble_eventHandler.c ****     #ifdef CYBLE_HIDS_SERVER
1395:.\Generated_Source\PSoC4/ble_eventHandler.c ****         CyBle_HidssOnDeviceConnected();
1396:.\Generated_Source\PSoC4/ble_eventHandler.c ****     #endif /* CYBLE_HIDS_SERVER */
1397:.\Generated_Source\PSoC4/ble_eventHandler.c **** 
1398:.\Generated_Source\PSoC4/ble_eventHandler.c ****     #ifdef CYBLE_RSCS_SERVER
1399:.\Generated_Source\PSoC4/ble_eventHandler.c ****         CyBle_RscsInit();
1400:.\Generated_Source\PSoC4/ble_eventHandler.c ****     #endif /* CYBLE_RSCS_SERVER */
1401:.\Generated_Source\PSoC4/ble_eventHandler.c **** }
1402:.\Generated_Source\PSoC4/ble_eventHandler.c **** 
1403:.\Generated_Source\PSoC4/ble_eventHandler.c **** 
1404:.\Generated_Source\PSoC4/ble_eventHandler.c **** #if (CYBLE_GATT_ROLE_SERVER || CYBLE_GATT_ROLE_CLIENT)
1405:.\Generated_Source\PSoC4/ble_eventHandler.c **** 
1406:.\Generated_Source\PSoC4/ble_eventHandler.c **** /****************************************************************************** 
1407:.\Generated_Source\PSoC4/ble_eventHandler.c **** * Function Name: CyBle_IsDeviceAddressValid
1408:.\Generated_Source\PSoC4/ble_eventHandler.c **** ***************************************************************************//**
1409:.\Generated_Source\PSoC4/ble_eventHandler.c **** * 
1410:.\Generated_Source\PSoC4/ble_eventHandler.c **** *  This function verifies that BLE public address has been programmed to SFLASH 
1411:.\Generated_Source\PSoC4/ble_eventHandler.c **** *  during manufacture. It could be used to verify if public device address is 
1412:.\Generated_Source\PSoC4/ble_eventHandler.c **** *  programmed to flash memory.
1413:.\Generated_Source\PSoC4/ble_eventHandler.c **** * 
1414:.\Generated_Source\PSoC4/ble_eventHandler.c **** *  \param deviceAddress: the pointer to the BD address of type CYBLE_GAP_BD_ADDR_T. 
ARM GAS  C:\Users\alvin\AppData\Local\Temp\cc0iGj3s.s 			page 28


1415:.\Generated_Source\PSoC4/ble_eventHandler.c **** * 
1416:.\Generated_Source\PSoC4/ble_eventHandler.c **** * \return
1417:.\Generated_Source\PSoC4/ble_eventHandler.c **** *  Non zero value when a device address differs from the default SFLASH content.
1418:.\Generated_Source\PSoC4/ble_eventHandler.c **** * 
1419:.\Generated_Source\PSoC4/ble_eventHandler.c **** ******************************************************************************/
1420:.\Generated_Source\PSoC4/ble_eventHandler.c **** uint8 CyBle_IsDeviceAddressValid(const CYBLE_GAP_BD_ADDR_T *deviceAddress)
1421:.\Generated_Source\PSoC4/ble_eventHandler.c **** {
 116              		.loc 1 1421 0
 117              		.cfi_startproc
 118              	.LVL8:
1422:.\Generated_Source\PSoC4/ble_eventHandler.c ****     uint8 i;
1423:.\Generated_Source\PSoC4/ble_eventHandler.c ****     uint8 addressValid = 0u;
1424:.\Generated_Source\PSoC4/ble_eventHandler.c ****     
1425:.\Generated_Source\PSoC4/ble_eventHandler.c ****     if(deviceAddress -> type == CYBLE_GAP_ADDR_TYPE_PUBLIC)  
 119              		.loc 1 1425 0
 120 0000 8379     		ldrb	r3, [r0, #6]
 121 0002 002B     		cmp	r3, #0
 122 0004 07D0     		beq	.L13
1423:.\Generated_Source\PSoC4/ble_eventHandler.c ****     
 123              		.loc 1 1423 0
 124 0006 0020     		mov	r0, #0
 125              	.LVL9:
 126 0008 0BE0     		b	.L11
 127              	.LVL10:
 128              	.L12:
1426:.\Generated_Source\PSoC4/ble_eventHandler.c ****     {
1427:.\Generated_Source\PSoC4/ble_eventHandler.c ****         for(i = 0u; i < CYBLE_GAP_BD_ADDR_SIZE; i++)
1428:.\Generated_Source\PSoC4/ble_eventHandler.c ****         {
1429:.\Generated_Source\PSoC4/ble_eventHandler.c ****             if(deviceAddress->bdAddr[i] != 0u)
 129              		.loc 1 1429 0
 130 000a C25C     		ldrb	r2, [r0, r3]
 131 000c 002A     		cmp	r2, #0
 132 000e 07D1     		bne	.L14
1427:.\Generated_Source\PSoC4/ble_eventHandler.c ****         {
 133              		.loc 1 1427 0 discriminator 2
 134 0010 0133     		add	r3, r3, #1
 135              	.LVL11:
 136 0012 DBB2     		uxtb	r3, r3
 137              	.LVL12:
 138 0014 00E0     		b	.L10
 139              	.LVL13:
 140              	.L13:
 141 0016 0023     		mov	r3, #0
 142              	.L10:
 143              	.LVL14:
1427:.\Generated_Source\PSoC4/ble_eventHandler.c ****         {
 144              		.loc 1 1427 0 is_stmt 0 discriminator 1
 145 0018 052B     		cmp	r3, #5
 146 001a F6D9     		bls	.L12
1423:.\Generated_Source\PSoC4/ble_eventHandler.c ****     
 147              		.loc 1 1423 0 is_stmt 1
 148 001c 0020     		mov	r0, #0
 149              	.LVL15:
 150 001e 00E0     		b	.L11
 151              	.LVL16:
 152              	.L14:
1430:.\Generated_Source\PSoC4/ble_eventHandler.c ****             {
ARM GAS  C:\Users\alvin\AppData\Local\Temp\cc0iGj3s.s 			page 29


1431:.\Generated_Source\PSoC4/ble_eventHandler.c ****                 addressValid = 1u;
 153              		.loc 1 1431 0
 154 0020 0120     		mov	r0, #1
 155              	.LVL17:
 156              	.L11:
1432:.\Generated_Source\PSoC4/ble_eventHandler.c ****                 break;
1433:.\Generated_Source\PSoC4/ble_eventHandler.c ****             }
1434:.\Generated_Source\PSoC4/ble_eventHandler.c ****         }
1435:.\Generated_Source\PSoC4/ble_eventHandler.c ****     }
1436:.\Generated_Source\PSoC4/ble_eventHandler.c ****     return (addressValid);
1437:.\Generated_Source\PSoC4/ble_eventHandler.c **** }
 157              		.loc 1 1437 0
 158              		@ sp needed
 159 0022 7047     		bx	lr
 160              		.cfi_endproc
 161              	.LFE7:
 162              		.size	CyBle_IsDeviceAddressValid, .-CyBle_IsDeviceAddressValid
 163              		.section	.text.CyBle_EventHandler,"ax",%progbits
 164              		.align	2
 165              		.global	CyBle_EventHandler
 166              		.code	16
 167              		.thumb_func
 168              		.type	CyBle_EventHandler, %function
 169              	CyBle_EventHandler:
 170              	.LFB10:
1438:.\Generated_Source\PSoC4/ble_eventHandler.c **** #endif /* CYBLE_GATT_ROLE_SERVER || CYBLE_GATT_ROLE_CLIENT */
1439:.\Generated_Source\PSoC4/ble_eventHandler.c **** 
1440:.\Generated_Source\PSoC4/ble_eventHandler.c **** 
1441:.\Generated_Source\PSoC4/ble_eventHandler.c **** /****************************************************************************** 
1442:.\Generated_Source\PSoC4/ble_eventHandler.c **** * Function Name: CyBle_L2Cap_ConnParamUpdateRspHandler
1443:.\Generated_Source\PSoC4/ble_eventHandler.c **** ***************************************************************************//**
1444:.\Generated_Source\PSoC4/ble_eventHandler.c **** * 
1445:.\Generated_Source\PSoC4/ble_eventHandler.c **** *  Handles the L2CAP connection parameter response event from
1446:.\Generated_Source\PSoC4/ble_eventHandler.c **** *  the BLE stack.
1447:.\Generated_Source\PSoC4/ble_eventHandler.c **** * 
1448:.\Generated_Source\PSoC4/ble_eventHandler.c **** *  \param response:
1449:.\Generated_Source\PSoC4/ble_eventHandler.c **** *      * Accepted = 0x0000
1450:.\Generated_Source\PSoC4/ble_eventHandler.c **** *      * Rejected = 0x0001
1451:.\Generated_Source\PSoC4/ble_eventHandler.c **** * 
1452:.\Generated_Source\PSoC4/ble_eventHandler.c **** * \return
1453:.\Generated_Source\PSoC4/ble_eventHandler.c **** *  None
1454:.\Generated_Source\PSoC4/ble_eventHandler.c **** * 
1455:.\Generated_Source\PSoC4/ble_eventHandler.c **** ******************************************************************************/
1456:.\Generated_Source\PSoC4/ble_eventHandler.c **** static void CyBle_L2Cap_ConnParamUpdateRspEventHandler(uint16 response)
1457:.\Generated_Source\PSoC4/ble_eventHandler.c **** {
1458:.\Generated_Source\PSoC4/ble_eventHandler.c ****     #ifdef CYBLE_CPS_SERVER
1459:.\Generated_Source\PSoC4/ble_eventHandler.c ****         CyBle_CpssConnParamUpdateRspEventHandler(response);
1460:.\Generated_Source\PSoC4/ble_eventHandler.c ****     #endif /* CYBLE_CPS_SERVER */
1461:.\Generated_Source\PSoC4/ble_eventHandler.c ****     
1462:.\Generated_Source\PSoC4/ble_eventHandler.c ****     /* Unreferenced variable warning workaround */
1463:.\Generated_Source\PSoC4/ble_eventHandler.c ****     if(response != 0u)
1464:.\Generated_Source\PSoC4/ble_eventHandler.c ****     {
1465:.\Generated_Source\PSoC4/ble_eventHandler.c ****     }
1466:.\Generated_Source\PSoC4/ble_eventHandler.c **** }
1467:.\Generated_Source\PSoC4/ble_eventHandler.c **** 
1468:.\Generated_Source\PSoC4/ble_eventHandler.c **** 
1469:.\Generated_Source\PSoC4/ble_eventHandler.c **** /****************************************************************************** 
ARM GAS  C:\Users\alvin\AppData\Local\Temp\cc0iGj3s.s 			page 30


1470:.\Generated_Source\PSoC4/ble_eventHandler.c **** * Function Name: CyBle_GapConnUpdateCompleteEventHandler
1471:.\Generated_Source\PSoC4/ble_eventHandler.c **** ***************************************************************************//**
1472:.\Generated_Source\PSoC4/ble_eventHandler.c **** * 
1473:.\Generated_Source\PSoC4/ble_eventHandler.c **** *  Handles the CYBLE_EVT_GAP_CONNECTION_UPDATE_COMPLETE event from
1474:.\Generated_Source\PSoC4/ble_eventHandler.c **** *  the BLE stack.
1475:.\Generated_Source\PSoC4/ble_eventHandler.c **** * 
1476:.\Generated_Source\PSoC4/ble_eventHandler.c **** *  \param eventParam: The pointer to the data structure specified by the event.
1477:.\Generated_Source\PSoC4/ble_eventHandler.c **** * 
1478:.\Generated_Source\PSoC4/ble_eventHandler.c **** * \return
1479:.\Generated_Source\PSoC4/ble_eventHandler.c **** *  None
1480:.\Generated_Source\PSoC4/ble_eventHandler.c **** * 
1481:.\Generated_Source\PSoC4/ble_eventHandler.c **** ******************************************************************************/
1482:.\Generated_Source\PSoC4/ble_eventHandler.c **** static void CyBle_GapConnUpdateCompleteEventHandler(const CYBLE_GAP_CONN_PARAM_UPDATED_IN_CONTROLLE
1483:.\Generated_Source\PSoC4/ble_eventHandler.c **** {
1484:.\Generated_Source\PSoC4/ble_eventHandler.c ****     #ifdef CYBLE_CPS_SERVER
1485:.\Generated_Source\PSoC4/ble_eventHandler.c ****         CyBle_CpssConnUpdateCompleteEventHandler(eventParam);
1486:.\Generated_Source\PSoC4/ble_eventHandler.c ****     #endif /* CYBLE_CPS_SERVER */
1487:.\Generated_Source\PSoC4/ble_eventHandler.c ****     
1488:.\Generated_Source\PSoC4/ble_eventHandler.c ****     /* Unreferenced variable warning workaround */
1489:.\Generated_Source\PSoC4/ble_eventHandler.c ****     if(eventParam != 0u)
1490:.\Generated_Source\PSoC4/ble_eventHandler.c ****     {
1491:.\Generated_Source\PSoC4/ble_eventHandler.c ****     }
1492:.\Generated_Source\PSoC4/ble_eventHandler.c **** }
1493:.\Generated_Source\PSoC4/ble_eventHandler.c **** 
1494:.\Generated_Source\PSoC4/ble_eventHandler.c **** 
1495:.\Generated_Source\PSoC4/ble_eventHandler.c **** /****************************************************************************** 
1496:.\Generated_Source\PSoC4/ble_eventHandler.c **** * Function Name: CyBle_EventHandler
1497:.\Generated_Source\PSoC4/ble_eventHandler.c **** ***************************************************************************//**
1498:.\Generated_Source\PSoC4/ble_eventHandler.c **** * 
1499:.\Generated_Source\PSoC4/ble_eventHandler.c **** *  Handles the events from the BLE stack
1500:.\Generated_Source\PSoC4/ble_eventHandler.c **** * 
1501:.\Generated_Source\PSoC4/ble_eventHandler.c **** *  \param eventCode:    the event code
1502:.\Generated_Source\PSoC4/ble_eventHandler.c **** *  \param eventParam:  the event parameters
1503:.\Generated_Source\PSoC4/ble_eventHandler.c **** * 
1504:.\Generated_Source\PSoC4/ble_eventHandler.c **** * \return
1505:.\Generated_Source\PSoC4/ble_eventHandler.c **** *  None.
1506:.\Generated_Source\PSoC4/ble_eventHandler.c **** * 
1507:.\Generated_Source\PSoC4/ble_eventHandler.c **** ******************************************************************************/
1508:.\Generated_Source\PSoC4/ble_eventHandler.c **** void CyBle_EventHandler(uint8 eventCode, void *eventParam)
1509:.\Generated_Source\PSoC4/ble_eventHandler.c **** {
 171              		.loc 1 1509 0
 172              		.cfi_startproc
 173              	.LVL18:
 174 0000 F0B5     		push	{r4, r5, r6, r7, lr}
 175              		.cfi_def_cfa_offset 20
 176              		.cfi_offset 4, -20
 177              		.cfi_offset 5, -16
 178              		.cfi_offset 6, -12
 179              		.cfi_offset 7, -8
 180              		.cfi_offset 14, -4
 181 0002 83B0     		sub	sp, sp, #12
 182              		.cfi_def_cfa_offset 32
 183 0004 041C     		mov	r4, r0
 184 0006 0D1C     		mov	r5, r1
1510:.\Generated_Source\PSoC4/ble_eventHandler.c ****     cyBle_eventHandlerFlag |= CYBLE_CALLBACK;
 185              		.loc 1 1510 0
 186 0008 964A     		ldr	r2, .L42
ARM GAS  C:\Users\alvin\AppData\Local\Temp\cc0iGj3s.s 			page 31


 187 000a 1178     		ldrb	r1, [r2]
 188              	.LVL19:
 189 000c 0123     		mov	r3, #1
 190 000e 0B43     		orr	r3, r1
 191 0010 1370     		strb	r3, [r2]
1511:.\Generated_Source\PSoC4/ble_eventHandler.c **** 
1512:.\Generated_Source\PSoC4/ble_eventHandler.c ****     /* Common Profile event handling */
1513:.\Generated_Source\PSoC4/ble_eventHandler.c ****     switch(eventCode)
 192              		.loc 1 1513 0
 193 0012 2728     		cmp	r0, #39
 194 0014 00D1     		bne	.LCB169
 195 0016 B8E0     		b	.L17	@long jump
 196              	.LCB169:
 197 0018 12D8     		bhi	.L18
 198 001a 0628     		cmp	r0, #6
 199 001c 00D1     		bne	.LCB173
 200 001e 82E0     		b	.L19	@long jump
 201              	.LCB173:
 202 0020 04D8     		bhi	.L20
 203 0022 0128     		cmp	r0, #1
 204 0024 24D0     		beq	.L21
 205 0026 0528     		cmp	r0, #5
 206 0028 79D0     		beq	.L22
 207 002a 09E1     		b	.L16
 208              	.L20:
 209 002c 2428     		cmp	r0, #36
 210 002e 00D1     		bne	.LCB185
 211 0030 A3E0     		b	.L23	@long jump
 212              	.LCB185:
 213 0032 2628     		cmp	r0, #38
 214 0034 00D1     		bne	.LCB187
 215 0036 B0E0     		b	.L24	@long jump
 216              	.LCB187:
 217 0038 2128     		cmp	r0, #33
 218 003a 00D0     		beq	.LCB189
 219 003c 00E1     		b	.L16	@long jump
 220              	.LCB189:
 221 003e 86E0     		b	.L25
 222              	.L18:
 223 0040 4228     		cmp	r0, #66
 224 0042 00D1     		bne	.LCB195
 225 0044 E8E0     		b	.L26	@long jump
 226              	.LCB195:
 227 0046 09D8     		bhi	.L27
 228 0048 3128     		cmp	r0, #49
 229 004a 00D1     		bne	.LCB199
 230 004c 99E0     		b	.L28	@long jump
 231              	.LCB199:
 232 004e 4128     		cmp	r0, #65
 233 0050 00D1     		bne	.LCB201
 234 0052 CAE0     		b	.L29	@long jump
 235              	.LCB201:
 236 0054 2828     		cmp	r0, #40
 237 0056 00D0     		beq	.LCB203
 238 0058 F2E0     		b	.L16	@long jump
 239              	.LCB203:
 240 005a 9AE0     		b	.L30
ARM GAS  C:\Users\alvin\AppData\Local\Temp\cc0iGj3s.s 			page 32


 241              	.L27:
 242 005c 4C28     		cmp	r0, #76
 243 005e 00D1     		bne	.LCB209
 244 0060 E5E0     		b	.L31	@long jump
 245              	.LCB209:
 246 0062 FA28     		cmp	r0, #250
 247 0064 00D1     		bne	.LCB211
 248 0066 E6E0     		b	.L32	@long jump
 249              	.LCB211:
 250 0068 4328     		cmp	r0, #67
 251 006a 00D0     		beq	.LCB213
 252 006c E8E0     		b	.L16	@long jump
 253              	.LCB213:
 254 006e D6E0     		b	.L33
 255              	.L21:
 256              	.LBB3:
1514:.\Generated_Source\PSoC4/ble_eventHandler.c ****     {
1515:.\Generated_Source\PSoC4/ble_eventHandler.c ****         /**********************************************************
1516:.\Generated_Source\PSoC4/ble_eventHandler.c ****         * General events
1517:.\Generated_Source\PSoC4/ble_eventHandler.c ****         ************************************************************/
1518:.\Generated_Source\PSoC4/ble_eventHandler.c ****         case CYBLE_EVT_STACK_ON:
1519:.\Generated_Source\PSoC4/ble_eventHandler.c ****         #if(CYBLE_MODE_PROFILE)
1520:.\Generated_Source\PSoC4/ble_eventHandler.c ****         {
1521:.\Generated_Source\PSoC4/ble_eventHandler.c ****             CYBLE_BLESS_PWR_IN_DB_T bleSsPowerLevel;
1522:.\Generated_Source\PSoC4/ble_eventHandler.c ****             
1523:.\Generated_Source\PSoC4/ble_eventHandler.c ****             /* Set Tx Power Level for advertising and connection channels */
1524:.\Generated_Source\PSoC4/ble_eventHandler.c ****             bleSsPowerLevel.blePwrLevelInDbm = CYBLE_TX_POWER_LEVEL_ADV;
 257              		.loc 1 1524 0
 258 0070 01AE     		add	r6, sp, #4
 259 0072 0727     		mov	r7, #7
 260 0074 3770     		strb	r7, [r6]
1525:.\Generated_Source\PSoC4/ble_eventHandler.c ****             bleSsPowerLevel.bleSsChId = CYBLE_LL_ADV_CH_TYPE;
 261              		.loc 1 1525 0
 262 0076 0023     		mov	r3, #0
 263 0078 7370     		strb	r3, [r6, #1]
1526:.\Generated_Source\PSoC4/ble_eventHandler.c ****             (void) CyBle_SetTxPowerLevel (&bleSsPowerLevel);
 264              		.loc 1 1526 0
 265 007a 301C     		mov	r0, r6
 266              	.LVL20:
 267 007c FFF7FEFF 		bl	CyBle_SetTxPowerLevel
 268              	.LVL21:
1527:.\Generated_Source\PSoC4/ble_eventHandler.c ****             bleSsPowerLevel.blePwrLevelInDbm = CYBLE_TX_POWER_LEVEL_CONN;
 269              		.loc 1 1527 0
 270 0080 3770     		strb	r7, [r6]
1528:.\Generated_Source\PSoC4/ble_eventHandler.c ****             bleSsPowerLevel.bleSsChId = CYBLE_LL_CONN_CH_TYPE;
 271              		.loc 1 1528 0
 272 0082 0123     		mov	r3, #1
 273 0084 7370     		strb	r3, [r6, #1]
1529:.\Generated_Source\PSoC4/ble_eventHandler.c ****             (void) CyBle_SetTxPowerLevel (&bleSsPowerLevel);
 274              		.loc 1 1529 0
 275 0086 301C     		mov	r0, r6
 276 0088 FFF7FEFF 		bl	CyBle_SetTxPowerLevel
 277              	.LVL22:
 278              	.LBE3:
1530:.\Generated_Source\PSoC4/ble_eventHandler.c ****             
1531:.\Generated_Source\PSoC4/ble_eventHandler.c ****         }
1532:.\Generated_Source\PSoC4/ble_eventHandler.c ****         #endif /* CYBLE_MODE_PROFILE */
ARM GAS  C:\Users\alvin\AppData\Local\Temp\cc0iGj3s.s 			page 33


1533:.\Generated_Source\PSoC4/ble_eventHandler.c ****         #if (CYBLE_GATT_ROLE_SERVER || CYBLE_GATT_ROLE_CLIENT)
1534:.\Generated_Source\PSoC4/ble_eventHandler.c ****             /* Set device Address  */
1535:.\Generated_Source\PSoC4/ble_eventHandler.c ****             if(CyBle_IsDeviceAddressValid(cyBle_sflashDeviceAddress) != 0u)
 279              		.loc 1 1535 0
 280 008c 764B     		ldr	r3, .L42+4
 281 008e 1E68     		ldr	r6, [r3]
 282 0090 301C     		mov	r0, r6
 283 0092 FFF7FEFF 		bl	CyBle_IsDeviceAddressValid
 284              	.LVL23:
 285 0096 0028     		cmp	r0, #0
 286 0098 0CD0     		beq	.L34
1536:.\Generated_Source\PSoC4/ble_eventHandler.c ****             {
1537:.\Generated_Source\PSoC4/ble_eventHandler.c ****                 (void) CyBle_SetDeviceAddress(cyBle_sflashDeviceAddress);
 287              		.loc 1 1537 0
 288 009a 301C     		mov	r0, r6
 289 009c FFF7FEFF 		bl	CyBle_SetDeviceAddress
 290              	.LVL24:
1538:.\Generated_Source\PSoC4/ble_eventHandler.c ****                 #if(CYBLE_GAP_ROLE_PERIPHERAL || CYBLE_GAP_ROLE_BROADCASTER)
1539:.\Generated_Source\PSoC4/ble_eventHandler.c ****                     CyBle_ChangeAdDeviceAddress(cyBle_sflashDeviceAddress, 0u);
 291              		.loc 1 1539 0
 292 00a0 714E     		ldr	r6, .L42+4
 293 00a2 3068     		ldr	r0, [r6]
 294 00a4 0021     		mov	r1, #0
 295 00a6 FFF7FEFF 		bl	CyBle_ChangeAdDeviceAddress
 296              	.LVL25:
1540:.\Generated_Source\PSoC4/ble_eventHandler.c ****                     CyBle_ChangeAdDeviceAddress(cyBle_sflashDeviceAddress, 1u);
 297              		.loc 1 1540 0
 298 00aa 3068     		ldr	r0, [r6]
 299 00ac 0121     		mov	r1, #1
 300 00ae FFF7FEFF 		bl	CyBle_ChangeAdDeviceAddress
 301              	.LVL26:
 302 00b2 25E0     		b	.L35
 303              	.L34:
 304              	.LBB4:
1541:.\Generated_Source\PSoC4/ble_eventHandler.c ****                 #endif /* CYBLE_GAP_ROLE_PERIPHERAL || CYBLE_GAP_ROLE_BROADCASTER */    
1542:.\Generated_Source\PSoC4/ble_eventHandler.c ****             }
1543:.\Generated_Source\PSoC4/ble_eventHandler.c ****             else
1544:.\Generated_Source\PSoC4/ble_eventHandler.c ****             {
1545:.\Generated_Source\PSoC4/ble_eventHandler.c ****             #if (SILICON_GENERATED_DEVICE_ADDRESS != 0u)
1546:.\Generated_Source\PSoC4/ble_eventHandler.c ****             {
1547:.\Generated_Source\PSoC4/ble_eventHandler.c ****                 uint32 bdAddrLoc;
1548:.\Generated_Source\PSoC4/ble_eventHandler.c ****                 bdAddrLoc = (CYBLE_SFLASH_DIE_X_REG & CYBLE_SFLASH_DIE_X_MASK) |
 305              		.loc 1 1548 0
 306 00b4 6D4B     		ldr	r3, .L42+8
 307 00b6 1B78     		ldrb	r3, [r3]
1549:.\Generated_Source\PSoC4/ble_eventHandler.c ****                     ((uint32)(((uint32)CYBLE_SFLASH_DIE_Y_REG) & ((uint32)CYBLE_SFLASH_DIE_Y_MASK))
 308              		.loc 1 1549 0
 309 00b8 6D4A     		ldr	r2, .L42+12
 310 00ba 1278     		ldrb	r2, [r2]
 311 00bc 3F21     		mov	r1, #63
 312 00be 0A40     		and	r2, r1
 313 00c0 9201     		lsl	r2, r2, #6
1548:.\Generated_Source\PSoC4/ble_eventHandler.c ****                     ((uint32)(((uint32)CYBLE_SFLASH_DIE_Y_REG) & ((uint32)CYBLE_SFLASH_DIE_Y_MASK))
 314              		.loc 1 1548 0
 315 00c2 0B40     		and	r3, r1
 316 00c4 1343     		orr	r3, r2
1550:.\Generated_Source\PSoC4/ble_eventHandler.c ****                         CYBLE_SFLASH_DIE_X_BITS) |
ARM GAS  C:\Users\alvin\AppData\Local\Temp\cc0iGj3s.s 			page 34


1551:.\Generated_Source\PSoC4/ble_eventHandler.c ****                     ((uint32)(((uint32)CYBLE_SFLASH_DIE_WAFER_REG) & ((uint32)CYBLE_SFLASH_DIE_WAFE
 317              		.loc 1 1551 0
 318 00c6 6B4A     		ldr	r2, .L42+16
 319 00c8 1278     		ldrb	r2, [r2]
 320 00ca 2039     		sub	r1, r1, #32
 321 00cc 0A40     		and	r2, r1
 322 00ce 1203     		lsl	r2, r2, #12
1550:.\Generated_Source\PSoC4/ble_eventHandler.c ****                         CYBLE_SFLASH_DIE_X_BITS) |
 323              		.loc 1 1550 0
 324 00d0 1343     		orr	r3, r2
1552:.\Generated_Source\PSoC4/ble_eventHandler.c ****                         CYBLE_SFLASH_DIE_XY_BITS) |
1553:.\Generated_Source\PSoC4/ble_eventHandler.c ****                     ((uint32)(((uint32)CYBLE_SFLASH_DIE_LOT_REG) & ((uint32)CYBLE_SFLASH_DIE_LOT_MA
 325              		.loc 1 1553 0
 326 00d2 694A     		ldr	r2, .L42+20
 327 00d4 1278     		ldrb	r2, [r2]
 328 00d6 6031     		add	r1, r1, #96
 329 00d8 0A40     		and	r2, r1
 330 00da 5204     		lsl	r2, r2, #17
1548:.\Generated_Source\PSoC4/ble_eventHandler.c ****                     ((uint32)(((uint32)CYBLE_SFLASH_DIE_Y_REG) & ((uint32)CYBLE_SFLASH_DIE_Y_MASK))
 331              		.loc 1 1548 0
 332 00dc 1343     		orr	r3, r2
 333              	.LVL27:
1554:.\Generated_Source\PSoC4/ble_eventHandler.c ****                         CYBLE_SFLASH_DIE_XYWAFER_BITS);
1555:.\Generated_Source\PSoC4/ble_eventHandler.c ****                             
1556:.\Generated_Source\PSoC4/ble_eventHandler.c ****                 cyBle_deviceAddress.bdAddr[0] = (uint8)bdAddrLoc;
 334              		.loc 1 1556 0
 335 00de 674E     		ldr	r6, .L42+24
 336 00e0 3370     		strb	r3, [r6]
1557:.\Generated_Source\PSoC4/ble_eventHandler.c ****                 cyBle_deviceAddress.bdAddr[1] = (uint8)(bdAddrLoc >> 8u);
 337              		.loc 1 1557 0
 338 00e2 1A0A     		lsr	r2, r3, #8
 339 00e4 7270     		strb	r2, [r6, #1]
1558:.\Generated_Source\PSoC4/ble_eventHandler.c ****                 cyBle_deviceAddress.bdAddr[2] = (uint8)(bdAddrLoc >> 16u);
 340              		.loc 1 1558 0
 341 00e6 1B0C     		lsr	r3, r3, #16
 342              	.LVL28:
 343 00e8 B370     		strb	r3, [r6, #2]
 344              	.LBE4:
1559:.\Generated_Source\PSoC4/ble_eventHandler.c ****             }
1560:.\Generated_Source\PSoC4/ble_eventHandler.c ****             #endif /* SILICON_GENERATED_DEVICE_ADDRESS != 0u */
1561:.\Generated_Source\PSoC4/ble_eventHandler.c ****                 (void) CyBle_SetDeviceAddress(&cyBle_deviceAddress);
 345              		.loc 1 1561 0
 346 00ea 301C     		mov	r0, r6
 347 00ec FFF7FEFF 		bl	CyBle_SetDeviceAddress
 348              	.LVL29:
1562:.\Generated_Source\PSoC4/ble_eventHandler.c ****                 #if(CYBLE_GAP_ROLE_PERIPHERAL || CYBLE_GAP_ROLE_BROADCASTER)
1563:.\Generated_Source\PSoC4/ble_eventHandler.c ****                     CyBle_ChangeAdDeviceAddress(&cyBle_deviceAddress, 0u);
 349              		.loc 1 1563 0
 350 00f0 301C     		mov	r0, r6
 351 00f2 0021     		mov	r1, #0
 352 00f4 FFF7FEFF 		bl	CyBle_ChangeAdDeviceAddress
 353              	.LVL30:
1564:.\Generated_Source\PSoC4/ble_eventHandler.c ****                     CyBle_ChangeAdDeviceAddress(&cyBle_deviceAddress, 1u);
 354              		.loc 1 1564 0
 355 00f8 301C     		mov	r0, r6
 356 00fa 0121     		mov	r1, #1
 357 00fc FFF7FEFF 		bl	CyBle_ChangeAdDeviceAddress
ARM GAS  C:\Users\alvin\AppData\Local\Temp\cc0iGj3s.s 			page 35


 358              	.LVL31:
 359              	.L35:
1565:.\Generated_Source\PSoC4/ble_eventHandler.c ****                 #endif /* CYBLE_GAP_ROLE_PERIPHERAL || CYBLE_GAP_ROLE_BROADCASTER */    
1566:.\Generated_Source\PSoC4/ble_eventHandler.c ****             }
1567:.\Generated_Source\PSoC4/ble_eventHandler.c ****             /* Set device IO Capability  */
1568:.\Generated_Source\PSoC4/ble_eventHandler.c ****             (void) CyBle_GapSetIoCap(CYBLE_IO_CAPABILITY);    
 360              		.loc 1 1568 0
 361 0100 0020     		mov	r0, #0
 362 0102 FFF7FEFF 		bl	CyBle_GapSetIoCap
 363              	.LVL32:
 364              	.LBB5:
1569:.\Generated_Source\PSoC4/ble_eventHandler.c ****             {
1570:.\Generated_Source\PSoC4/ble_eventHandler.c ****                 /* Enable all 4.1 events and configured 4.2 events */
1571:.\Generated_Source\PSoC4/ble_eventHandler.c ****                 uint8 leMask[CYBLE_LE_MASK_LENGTH] = {LO8(CYBLE_LE_MASK), HI8(CYBLE_LE_MASK)};
 365              		.loc 1 1571 0
 366 0106 01A8     		add	r0, sp, #4
 367 0108 5D49     		ldr	r1, .L42+28
 368 010a 0222     		mov	r2, #2
 369 010c FFF7FEFF 		bl	memcpy
 370              	.LVL33:
1572:.\Generated_Source\PSoC4/ble_eventHandler.c ****                 (void) CyBle_GapSetLeEventMask(leMask);
 371              		.loc 1 1572 0
 372 0110 01A8     		add	r0, sp, #4
 373 0112 FFF7FEFF 		bl	CyBle_GapSetLeEventMask
 374              	.LVL34:
 375              	.LBE5:
1573:.\Generated_Source\PSoC4/ble_eventHandler.c ****             }
1574:.\Generated_Source\PSoC4/ble_eventHandler.c ****         #if(CYBLE_DLE_FEATURE_ENABLED)
1575:.\Generated_Source\PSoC4/ble_eventHandler.c ****         {
1576:.\Generated_Source\PSoC4/ble_eventHandler.c ****             /* Set maximum suggested TX payload size */
1577:.\Generated_Source\PSoC4/ble_eventHandler.c ****             uint16 payloadTime = CYBLE_LL_MAX_TX_TIME;
1578:.\Generated_Source\PSoC4/ble_eventHandler.c ****             (void) CyBle_GapConvertOctetToTime(CYBLE_GAP_PHY_1MBPS, CYBLE_LL_MAX_TX_PAYLOAD_SIZE, &
1579:.\Generated_Source\PSoC4/ble_eventHandler.c ****             (void) CyBle_GapSetSuggestedDataLength(CYBLE_LL_MAX_TX_PAYLOAD_SIZE, payloadTime); 
1580:.\Generated_Source\PSoC4/ble_eventHandler.c ****         }
1581:.\Generated_Source\PSoC4/ble_eventHandler.c ****         #endif /* CYBLE_DLE_FEATURE != 0u */
1582:.\Generated_Source\PSoC4/ble_eventHandler.c ****         
1583:.\Generated_Source\PSoC4/ble_eventHandler.c ****         #endif /* CYBLE_GATT_ROLE_SERVER || CYBLE_GATT_ROLE_CLIENT */
1584:.\Generated_Source\PSoC4/ble_eventHandler.c ****             CyBle_SetState(CYBLE_STATE_DISCONNECTED);
 376              		.loc 1 1584 0
 377 0116 0422     		mov	r2, #4
 378 0118 5A4B     		ldr	r3, .L42+32
 379 011a 1A70     		strb	r2, [r3]
1585:.\Generated_Source\PSoC4/ble_eventHandler.c ****             break;
 380              		.loc 1 1585 0
 381 011c 90E0     		b	.L16
 382              	.LVL35:
 383              	.L22:
1586:.\Generated_Source\PSoC4/ble_eventHandler.c ****         case CYBLE_EVT_TIMEOUT:
1587:.\Generated_Source\PSoC4/ble_eventHandler.c ****             CyBle_TimeOutEventHandler((CYBLE_TO_REASON_CODE_T *)eventParam);
1588:.\Generated_Source\PSoC4/ble_eventHandler.c ****             break;
1589:.\Generated_Source\PSoC4/ble_eventHandler.c ****     	case CYBLE_EVT_STACK_BUSY_STATUS:
1590:.\Generated_Source\PSoC4/ble_eventHandler.c ****             cyBle_busyStatus = *(uint8 *)eventParam;
 384              		.loc 1 1590 0
 385 011e 2A78     		ldrb	r2, [r5]
 386 0120 594B     		ldr	r3, .L42+36
 387 0122 1A70     		strb	r2, [r3]
1591:.\Generated_Source\PSoC4/ble_eventHandler.c ****             break;
ARM GAS  C:\Users\alvin\AppData\Local\Temp\cc0iGj3s.s 			page 36


 388              		.loc 1 1591 0
 389 0124 8CE0     		b	.L16
 390              	.L19:
 391              	.LVL36:
 392              	.LBB6:
1592:.\Generated_Source\PSoC4/ble_eventHandler.c ****     	case CYBLE_EVT_MEMORY_REQUEST:
1593:.\Generated_Source\PSoC4/ble_eventHandler.c ****         #if(CYBLE_MODE_PROFILE)
1594:.\Generated_Source\PSoC4/ble_eventHandler.c ****         {
1595:.\Generated_Source\PSoC4/ble_eventHandler.c ****             CYBLE_MEMORY_REQUEST_T *memReq = (CYBLE_MEMORY_REQUEST_T *)eventParam;
1596:.\Generated_Source\PSoC4/ble_eventHandler.c ****             if(memReq->request == CYBLE_PREPARED_WRITE_REQUEST)
 393              		.loc 1 1596 0
 394 0126 2B78     		ldrb	r3, [r5]
 395 0128 002B     		cmp	r3, #0
 396 012a 00D0     		beq	.LCB345
 397 012c 88E0     		b	.L16	@long jump
 398              	.LCB345:
1597:.\Generated_Source\PSoC4/ble_eventHandler.c ****             {  
1598:.\Generated_Source\PSoC4/ble_eventHandler.c ****             #if(CYBLE_GATT_ENABLE_EXTERNAL_PREP_WRITE_BUFF == 0u)
1599:.\Generated_Source\PSoC4/ble_eventHandler.c ****                 /* Stack requests to provide memory to process remote request */
1600:.\Generated_Source\PSoC4/ble_eventHandler.c ****                 if(memReq->allocFree == CYBLE_ALLOC_MEMORY)
 399              		.loc 1 1600 0
 400 012e 6B78     		ldrb	r3, [r5, #1]
 401 0130 002B     		cmp	r3, #0
 402 0132 06D1     		bne	.L36
 403              	.LBB7:
1601:.\Generated_Source\PSoC4/ble_eventHandler.c ****                 {
1602:.\Generated_Source\PSoC4/ble_eventHandler.c ****                     static CYBLE_PREPARE_WRITE_REQUEST_MEMORY_T gPrepWriteReqMem;
1603:.\Generated_Source\PSoC4/ble_eventHandler.c ****                     
1604:.\Generated_Source\PSoC4/ble_eventHandler.c ****                     /* Configure and return statically allocated buffer at the end of cyBle_stackMe
1605:.\Generated_Source\PSoC4/ble_eventHandler.c ****                     gPrepWriteReqMem.prepareWriteQueueSize = CYBLE_GATT_MAX_PREPARE_BUFF_COUNT;
 404              		.loc 1 1605 0
 405 0134 554B     		ldr	r3, .L42+40
 406 0136 0022     		mov	r2, #0
 407 0138 DA80     		strh	r2, [r3, #6]
1606:.\Generated_Source\PSoC4/ble_eventHandler.c ****                     gPrepWriteReqMem.totalAttrValueLength = CYBLE_GATT_PREPARE_LENGTH_ALIGN;
 408              		.loc 1 1606 0
 409 013a 9A80     		strh	r2, [r3, #4]
1607:.\Generated_Source\PSoC4/ble_eventHandler.c ****                     gPrepWriteReqMem.queueBuffer = &cyBle_stackMemoryRam[CYBLE_STACK_RAM_SIZE - 
 410              		.loc 1 1607 0
 411 013c 544A     		ldr	r2, .L42+44
 412 013e 1A60     		str	r2, [r3]
1608:.\Generated_Source\PSoC4/ble_eventHandler.c ****                                                                          CYBLE_GATT_PREPARE_WRITE_B
1609:.\Generated_Source\PSoC4/ble_eventHandler.c ****                     memReq->configMemory = &gPrepWriteReqMem;  
 413              		.loc 1 1609 0
 414 0140 6B60     		str	r3, [r5, #4]
 415              	.L36:
 416              	.LBE7:
1610:.\Generated_Source\PSoC4/ble_eventHandler.c ****                 }                
1611:.\Generated_Source\PSoC4/ble_eventHandler.c ****                 /* Clear CYBLE_CALLBACK flag not to provide handled event to application */
1612:.\Generated_Source\PSoC4/ble_eventHandler.c ****                 cyBle_eventHandlerFlag &= (uint8)~CYBLE_CALLBACK;
 417              		.loc 1 1612 0
 418 0142 484A     		ldr	r2, .L42
 419 0144 1378     		ldrb	r3, [r2]
 420 0146 0121     		mov	r1, #1
 421 0148 8B43     		bic	r3, r1
 422 014a 1370     		strb	r3, [r2]
 423 014c 78E0     		b	.L16
ARM GAS  C:\Users\alvin\AppData\Local\Temp\cc0iGj3s.s 			page 37


 424              	.LVL37:
 425              	.L25:
 426              	.LBE6:
1613:.\Generated_Source\PSoC4/ble_eventHandler.c ****             #endif  /* CYBLE_GATT_ENABLE_EXTERNAL_PREP_WRITE_BUFF == 0u */
1614:.\Generated_Source\PSoC4/ble_eventHandler.c ****             }
1615:.\Generated_Source\PSoC4/ble_eventHandler.c ****         }
1616:.\Generated_Source\PSoC4/ble_eventHandler.c ****         #endif /* CYBLE_MODE_PROFILE */
1617:.\Generated_Source\PSoC4/ble_eventHandler.c ****             break;
1618:.\Generated_Source\PSoC4/ble_eventHandler.c ****         /**********************************************************
1619:.\Generated_Source\PSoC4/ble_eventHandler.c ****         * GAP events
1620:.\Generated_Source\PSoC4/ble_eventHandler.c ****         ************************************************************/
1621:.\Generated_Source\PSoC4/ble_eventHandler.c ****         case CYBLE_EVT_GAP_AUTH_REQ:
1622:.\Generated_Source\PSoC4/ble_eventHandler.c ****         #if(CYBLE_MODE_PROFILE)
1623:.\Generated_Source\PSoC4/ble_eventHandler.c ****             if(0u == (cyBle_eventHandlerFlag & CYBLE_DISABLE_AUTOMATIC_AUTH))
 427              		.loc 1 1623 0
 428 014e 454B     		ldr	r3, .L42
 429 0150 1B78     		ldrb	r3, [r3]
 430 0152 9B06     		lsl	r3, r3, #26
 431 0154 74D4     		bmi	.L16
1624:.\Generated_Source\PSoC4/ble_eventHandler.c ****             {
1625:.\Generated_Source\PSoC4/ble_eventHandler.c ****                 /* If the responding device does not support pairing then the responding 
1626:.\Generated_Source\PSoC4/ble_eventHandler.c ****                    device shall respond using the Pairing Failed message with the error 
1627:.\Generated_Source\PSoC4/ble_eventHandler.c ****                    code "Pairing Not Supported" otherwise it responds with a Pairing 
1628:.\Generated_Source\PSoC4/ble_eventHandler.c ****                    Response message.
1629:.\Generated_Source\PSoC4/ble_eventHandler.c ****                 */
1630:.\Generated_Source\PSoC4/ble_eventHandler.c ****                 if(cyBle_authInfo.security == (CYBLE_GAP_SEC_MODE_1 | CYBLE_GAP_SEC_LEVEL_1))
 432              		.loc 1 1630 0
 433 0156 4F4B     		ldr	r3, .L42+48
 434 0158 1B78     		ldrb	r3, [r3]
 435 015a 102B     		cmp	r3, #16
 436 015c 02D1     		bne	.L37
1631:.\Generated_Source\PSoC4/ble_eventHandler.c ****                 {
1632:.\Generated_Source\PSoC4/ble_eventHandler.c ****                     cyBle_authInfo.authErr = CYBLE_GAP_AUTH_ERROR_PAIRING_NOT_SUPPORTED;
 437              		.loc 1 1632 0
 438 015e 0522     		mov	r2, #5
 439 0160 4C4B     		ldr	r3, .L42+48
 440 0162 DA70     		strb	r2, [r3, #3]
 441              	.L37:
1633:.\Generated_Source\PSoC4/ble_eventHandler.c ****                 }    
1634:.\Generated_Source\PSoC4/ble_eventHandler.c ****             #if(CYBLE_GAP_ROLE_PERIPHERAL)
1635:.\Generated_Source\PSoC4/ble_eventHandler.c ****                 (void)CyBle_GappAuthReqReply(cyBle_connHandle.bdHandle, &cyBle_authInfo);
 442              		.loc 1 1635 0
 443 0164 4C4B     		ldr	r3, .L42+52
 444 0166 1878     		ldrb	r0, [r3]
 445              	.LVL38:
 446 0168 4A49     		ldr	r1, .L42+48
 447 016a FFF7FEFF 		bl	CyBle_GappAuthReqReply
 448              	.LVL39:
1636:.\Generated_Source\PSoC4/ble_eventHandler.c ****                 /* Setting callback flag again as CyBle_GappAuthReqReply() will generate
1637:.\Generated_Source\PSoC4/ble_eventHandler.c ****                 * CYBLE_EVT_GAP_SMP_NEGOTIATED_AUTH_INFO event wich will clear the callback
1638:.\Generated_Source\PSoC4/ble_eventHandler.c ****                 * flag.
1639:.\Generated_Source\PSoC4/ble_eventHandler.c ****                 */
1640:.\Generated_Source\PSoC4/ble_eventHandler.c ****                 cyBle_eventHandlerFlag |= CYBLE_CALLBACK;
 449              		.loc 1 1640 0
 450 016e 3D4A     		ldr	r2, .L42
 451 0170 1178     		ldrb	r1, [r2]
 452 0172 0123     		mov	r3, #1
ARM GAS  C:\Users\alvin\AppData\Local\Temp\cc0iGj3s.s 			page 38


 453 0174 0B43     		orr	r3, r1
 454 0176 1370     		strb	r3, [r2]
 455 0178 62E0     		b	.L16
 456              	.LVL40:
 457              	.L23:
1641:.\Generated_Source\PSoC4/ble_eventHandler.c ****             #endif /* CYBLE_GAP_ROLE_PERIPHERAL */
1642:.\Generated_Source\PSoC4/ble_eventHandler.c ****             #if (CYBLE_GAP_ROLE_CENTRAL)
1643:.\Generated_Source\PSoC4/ble_eventHandler.c ****                 (void)CyBle_GapAuthReq(cyBle_connHandle.bdHandle, &cyBle_authInfo);
1644:.\Generated_Source\PSoC4/ble_eventHandler.c ****             #endif /* CYBLE_GAP_ROLE_CENTRAL */
1645:.\Generated_Source\PSoC4/ble_eventHandler.c ****             }
1646:.\Generated_Source\PSoC4/ble_eventHandler.c ****         #endif /* CYBLE_MODE_PROFILE */
1647:.\Generated_Source\PSoC4/ble_eventHandler.c ****             break;
1648:.\Generated_Source\PSoC4/ble_eventHandler.c ****         
1649:.\Generated_Source\PSoC4/ble_eventHandler.c ****         case CYBLE_EVT_GAP_AUTH_COMPLETE:
1650:.\Generated_Source\PSoC4/ble_eventHandler.c ****         #if((CYBLE_GAP_ROLE_PERIPHERAL || CYBLE_GAP_ROLE_CENTRAL) && (CYBLE_BONDING_REQUIREMENT == 
1651:.\Generated_Source\PSoC4/ble_eventHandler.c ****             cyBle_peerBonding = ((CYBLE_GAP_AUTH_INFO_T *)eventParam)->bonding;
 458              		.loc 1 1651 0
 459 017a 6A78     		ldrb	r2, [r5, #1]
 460 017c 474B     		ldr	r3, .L42+56
 461 017e 1A70     		strb	r2, [r3]
1652:.\Generated_Source\PSoC4/ble_eventHandler.c ****         #endif  /* CYBLE_BONDING_REQUIREMENT == CYBLE_BONDING_YES */
1653:.\Generated_Source\PSoC4/ble_eventHandler.c ****             break;
 462              		.loc 1 1653 0
 463 0180 5EE0     		b	.L16
 464              	.L28:
 465              	.LVL41:
 466              	.LBB8:
1654:.\Generated_Source\PSoC4/ble_eventHandler.c ****         
1655:.\Generated_Source\PSoC4/ble_eventHandler.c ****         case CYBLE_EVT_GAP_CONNECTION_UPDATE_COMPLETE:
1656:.\Generated_Source\PSoC4/ble_eventHandler.c ****             CyBle_GapConnUpdateCompleteEventHandler((const CYBLE_GAP_CONN_PARAM_UPDATED_IN_CONTROLL
1657:.\Generated_Source\PSoC4/ble_eventHandler.c ****             break;
1658:.\Generated_Source\PSoC4/ble_eventHandler.c ****             
1659:.\Generated_Source\PSoC4/ble_eventHandler.c ****     #if(CYBLE_LL_PRIVACY_FEATURE != 0u)        
1660:.\Generated_Source\PSoC4/ble_eventHandler.c ****         case CYBLE_EVT_GAP_ENHANCE_CONN_COMPLETE:
1661:.\Generated_Source\PSoC4/ble_eventHandler.c ****         {
1662:.\Generated_Source\PSoC4/ble_eventHandler.c ****             CYBLE_GAP_CONN_PARAM_UPDATED_IN_CONTROLLER_T  connCParam;
1663:.\Generated_Source\PSoC4/ble_eventHandler.c ****             CYBLE_GAP_ENHANCE_CONN_COMPLETE_T *connEnhanceParam;
1664:.\Generated_Source\PSoC4/ble_eventHandler.c ****             
1665:.\Generated_Source\PSoC4/ble_eventHandler.c ****             connEnhanceParam = (CYBLE_GAP_ENHANCE_CONN_COMPLETE_T *)eventParam;
1666:.\Generated_Source\PSoC4/ble_eventHandler.c ****             connCParam.status = connEnhanceParam->status;
1667:.\Generated_Source\PSoC4/ble_eventHandler.c ****             connCParam.connIntv = connEnhanceParam->connIntv;
1668:.\Generated_Source\PSoC4/ble_eventHandler.c ****             connCParam.connLatency = connEnhanceParam->connLatency;
1669:.\Generated_Source\PSoC4/ble_eventHandler.c ****             connCParam.supervisionTO = connEnhanceParam->supervisionTo;
1670:.\Generated_Source\PSoC4/ble_eventHandler.c ****             CyBle_GapConnUpdateCompleteEventHandler((const CYBLE_GAP_CONN_PARAM_UPDATED_IN_CONTROLL
1671:.\Generated_Source\PSoC4/ble_eventHandler.c ****             
1672:.\Generated_Source\PSoC4/ble_eventHandler.c ****             #if(CYBLE_GAP_ROLE_CENTRAL)
1673:.\Generated_Source\PSoC4/ble_eventHandler.c ****                 if(cyBle_connectingTimeout != 0u)
1674:.\Generated_Source\PSoC4/ble_eventHandler.c ****                 {
1675:.\Generated_Source\PSoC4/ble_eventHandler.c ****                    (void)CyBle_StopTimer();
1676:.\Generated_Source\PSoC4/ble_eventHandler.c ****                 }
1677:.\Generated_Source\PSoC4/ble_eventHandler.c ****             #endif /* CYBLE_GAP_ROLE_CENTRAL */
1678:.\Generated_Source\PSoC4/ble_eventHandler.c ****             CyBle_SetState(CYBLE_STATE_CONNECTED);
 467              		.loc 1 1678 0
 468 0182 0222     		mov	r2, #2
 469 0184 3F4B     		ldr	r3, .L42+32
 470 0186 1A70     		strb	r2, [r3]
 471              	.LBE8:
ARM GAS  C:\Users\alvin\AppData\Local\Temp\cc0iGj3s.s 			page 39


1679:.\Generated_Source\PSoC4/ble_eventHandler.c ****         }
1680:.\Generated_Source\PSoC4/ble_eventHandler.c ****             break;
 472              		.loc 1 1680 0
 473 0188 5AE0     		b	.L16
 474              	.LVL42:
 475              	.L17:
1681:.\Generated_Source\PSoC4/ble_eventHandler.c ****     #endif /* CYBLE_LL_PRIVACY_FEATURE != 0u */      
1682:.\Generated_Source\PSoC4/ble_eventHandler.c ****             
1683:.\Generated_Source\PSoC4/ble_eventHandler.c ****         case CYBLE_EVT_GAP_DEVICE_CONNECTED:
1684:.\Generated_Source\PSoC4/ble_eventHandler.c ****             CyBle_GapConnUpdateCompleteEventHandler((const CYBLE_GAP_CONN_PARAM_UPDATED_IN_CONTROLL
1685:.\Generated_Source\PSoC4/ble_eventHandler.c ****             #if(CYBLE_GAP_ROLE_CENTRAL)
1686:.\Generated_Source\PSoC4/ble_eventHandler.c ****                 if(cyBle_connectingTimeout != 0u)
1687:.\Generated_Source\PSoC4/ble_eventHandler.c ****                 {
1688:.\Generated_Source\PSoC4/ble_eventHandler.c ****                    (void)CyBle_StopTimer();
1689:.\Generated_Source\PSoC4/ble_eventHandler.c ****                 }
1690:.\Generated_Source\PSoC4/ble_eventHandler.c ****             #endif /* CYBLE_GAP_ROLE_CENTRAL */
1691:.\Generated_Source\PSoC4/ble_eventHandler.c ****             CyBle_SetState(CYBLE_STATE_CONNECTED);
 476              		.loc 1 1691 0
 477 018a 0222     		mov	r2, #2
 478 018c 3D4B     		ldr	r3, .L42+32
 479 018e 1A70     		strb	r2, [r3]
1692:.\Generated_Source\PSoC4/ble_eventHandler.c ****             break;
 480              		.loc 1 1692 0
 481 0190 56E0     		b	.L16
 482              	.L30:
1693:.\Generated_Source\PSoC4/ble_eventHandler.c **** 
1694:.\Generated_Source\PSoC4/ble_eventHandler.c ****         case CYBLE_EVT_GAP_DEVICE_DISCONNECTED:
1695:.\Generated_Source\PSoC4/ble_eventHandler.c ****             CyBle_SetState(CYBLE_STATE_DISCONNECTED);
 483              		.loc 1 1695 0
 484 0192 0422     		mov	r2, #4
 485 0194 3B4B     		ldr	r3, .L42+32
 486 0196 1A70     		strb	r2, [r3]
1696:.\Generated_Source\PSoC4/ble_eventHandler.c ****             break;
 487              		.loc 1 1696 0
 488 0198 52E0     		b	.L16
 489              	.L24:
1697:.\Generated_Source\PSoC4/ble_eventHandler.c ****         #if(CYBLE_GAP_ROLE_PERIPHERAL || CYBLE_GAP_ROLE_BROADCASTER)
1698:.\Generated_Source\PSoC4/ble_eventHandler.c ****             
1699:.\Generated_Source\PSoC4/ble_eventHandler.c ****         case CYBLE_EVT_GAPP_ADVERTISEMENT_START_STOP:
1700:.\Generated_Source\PSoC4/ble_eventHandler.c ****             #ifdef CYBLE_CPS_SERVER
1701:.\Generated_Source\PSoC4/ble_eventHandler.c ****                 #if(CYBLE_GAP_ROLE_BROADCASTER)
1702:.\Generated_Source\PSoC4/ble_eventHandler.c ****                     CyBle_CpssAdvertisementStartStopEventHandler();
1703:.\Generated_Source\PSoC4/ble_eventHandler.c ****                 #endif /* CYBLE_GAP_ROLE_BROADCASTER */
1704:.\Generated_Source\PSoC4/ble_eventHandler.c ****             #endif /* CYBLE_CPS_SERVER */
1705:.\Generated_Source\PSoC4/ble_eventHandler.c ****             
1706:.\Generated_Source\PSoC4/ble_eventHandler.c ****             if((CYBLE_STATE_CONNECTED != CyBle_GetState()) && ((cyBle_eventHandlerFlag & CYBLE_CALL
 490              		.loc 1 1706 0
 491 019a 3A4B     		ldr	r3, .L42+32
 492 019c 1B78     		ldrb	r3, [r3]
 493 019e 022B     		cmp	r3, #2
 494 01a0 4ED0     		beq	.L16
 495              		.loc 1 1706 0 is_stmt 0 discriminator 1
 496 01a2 304A     		ldr	r2, .L42
 497 01a4 1278     		ldrb	r2, [r2]
 498 01a6 D207     		lsl	r2, r2, #31
 499 01a8 4AD5     		bpl	.L16
1707:.\Generated_Source\PSoC4/ble_eventHandler.c ****             {
ARM GAS  C:\Users\alvin\AppData\Local\Temp\cc0iGj3s.s 			page 40


1708:.\Generated_Source\PSoC4/ble_eventHandler.c ****                 /* After CyBle_GappStartAdvertisement first event indicates that advertising has be
1709:.\Generated_Source\PSoC4/ble_eventHandler.c ****                 if(0u != (cyBle_eventHandlerFlag & CYBLE_START_FLAG))
 500              		.loc 1 1709 0 is_stmt 1
 501 01aa 2E4A     		ldr	r2, .L42
 502 01ac 1278     		ldrb	r2, [r2]
 503 01ae 5207     		lsl	r2, r2, #29
 504 01b0 08D5     		bpl	.L38
1710:.\Generated_Source\PSoC4/ble_eventHandler.c ****                 {
1711:.\Generated_Source\PSoC4/ble_eventHandler.c ****                     CyBle_SetState(CYBLE_STATE_ADVERTISING);
 505              		.loc 1 1711 0
 506 01b2 0322     		mov	r2, #3
 507 01b4 334B     		ldr	r3, .L42+32
 508 01b6 1A70     		strb	r2, [r3]
1712:.\Generated_Source\PSoC4/ble_eventHandler.c ****                     cyBle_eventHandlerFlag &= (uint8)~CYBLE_START_FLAG;
 509              		.loc 1 1712 0
 510 01b8 2A4A     		ldr	r2, .L42
 511 01ba 1378     		ldrb	r3, [r2]
 512 01bc 0421     		mov	r1, #4
 513 01be 8B43     		bic	r3, r1
 514 01c0 1370     		strb	r3, [r2]
 515 01c2 3DE0     		b	.L16
 516              	.L38:
1713:.\Generated_Source\PSoC4/ble_eventHandler.c ****                 }
1714:.\Generated_Source\PSoC4/ble_eventHandler.c ****                 /* When application initiated stop advertisement */
1715:.\Generated_Source\PSoC4/ble_eventHandler.c ****                 else if(0u != (cyBle_eventHandlerFlag & CYBLE_STOP_FLAG))
 517              		.loc 1 1715 0
 518 01c4 274A     		ldr	r2, .L42
 519 01c6 1278     		ldrb	r2, [r2]
 520 01c8 1207     		lsl	r2, r2, #28
 521 01ca 08D5     		bpl	.L39
1716:.\Generated_Source\PSoC4/ble_eventHandler.c ****                 {
1717:.\Generated_Source\PSoC4/ble_eventHandler.c ****                     CyBle_SetState(CYBLE_STATE_DISCONNECTED);  
 522              		.loc 1 1717 0
 523 01cc 0422     		mov	r2, #4
 524 01ce 2D4B     		ldr	r3, .L42+32
 525 01d0 1A70     		strb	r2, [r3]
1718:.\Generated_Source\PSoC4/ble_eventHandler.c ****                     cyBle_eventHandlerFlag &= (uint8)~CYBLE_STOP_FLAG;
 526              		.loc 1 1718 0
 527 01d2 244A     		ldr	r2, .L42
 528 01d4 1378     		ldrb	r3, [r2]
 529 01d6 0821     		mov	r1, #8
 530 01d8 8B43     		bic	r3, r1
 531 01da 1370     		strb	r3, [r2]
 532 01dc 30E0     		b	.L16
 533              	.L39:
1719:.\Generated_Source\PSoC4/ble_eventHandler.c ****                 }
1720:.\Generated_Source\PSoC4/ble_eventHandler.c ****                 else /* Following event indicates that advertising has been stopped */
1721:.\Generated_Source\PSoC4/ble_eventHandler.c ****                 {
1722:.\Generated_Source\PSoC4/ble_eventHandler.c ****                     if(CYBLE_STATE_ADVERTISING == CyBle_GetState())
 534              		.loc 1 1722 0
 535 01de 032B     		cmp	r3, #3
 536 01e0 2ED1     		bne	.L16
1723:.\Generated_Source\PSoC4/ble_eventHandler.c ****                     {
1724:.\Generated_Source\PSoC4/ble_eventHandler.c ****                         CyBle_SetState(CYBLE_STATE_DISCONNECTED);
 537              		.loc 1 1724 0
 538 01e2 0422     		mov	r2, #4
 539 01e4 274B     		ldr	r3, .L42+32
ARM GAS  C:\Users\alvin\AppData\Local\Temp\cc0iGj3s.s 			page 41


 540 01e6 1A70     		strb	r2, [r3]
 541 01e8 2AE0     		b	.L16
 542              	.L29:
1725:.\Generated_Source\PSoC4/ble_eventHandler.c ****                     #if ((CYBLE_SLOW_ADV_ENABLED != 0u) && (CYBLE_FAST_ADV_TIMEOUT != 0u))
1726:.\Generated_Source\PSoC4/ble_eventHandler.c ****                         if(cyBle_advertisingIntervalType == CYBLE_ADVERTISING_FAST)
1727:.\Generated_Source\PSoC4/ble_eventHandler.c ****                         {
1728:.\Generated_Source\PSoC4/ble_eventHandler.c ****                             /* When fast advertising time out occur: Start slow advertising */
1729:.\Generated_Source\PSoC4/ble_eventHandler.c ****                             if(CYBLE_ERROR_OK == CyBle_GappStartAdvertisement(CYBLE_ADVERTISING_SLO
1730:.\Generated_Source\PSoC4/ble_eventHandler.c ****                             {
1731:.\Generated_Source\PSoC4/ble_eventHandler.c ****                                 CyBle_SetState(CYBLE_STATE_ADVERTISING);
1732:.\Generated_Source\PSoC4/ble_eventHandler.c ****                             }
1733:.\Generated_Source\PSoC4/ble_eventHandler.c ****                         }
1734:.\Generated_Source\PSoC4/ble_eventHandler.c ****                     #endif /* CYBLE_SLOW_ADV_ENABLED */
1735:.\Generated_Source\PSoC4/ble_eventHandler.c ****                     }
1736:.\Generated_Source\PSoC4/ble_eventHandler.c ****                 }
1737:.\Generated_Source\PSoC4/ble_eventHandler.c ****             }
1738:.\Generated_Source\PSoC4/ble_eventHandler.c ****             break;
1739:.\Generated_Source\PSoC4/ble_eventHandler.c ****         #endif /* CYBLE_GAP_ROLE_PERIPHERAL || CYBLE_GAP_ROLE_BROADCASTER */
1740:.\Generated_Source\PSoC4/ble_eventHandler.c ****         
1741:.\Generated_Source\PSoC4/ble_eventHandler.c ****         #if(CYBLE_GAP_ROLE_CENTRAL || CYBLE_GAP_ROLE_OBSERVER)    
1742:.\Generated_Source\PSoC4/ble_eventHandler.c ****         case CYBLE_EVT_GAPC_SCAN_START_STOP:
1743:.\Generated_Source\PSoC4/ble_eventHandler.c ****             #ifdef CYBLE_CPS_CLIENT
1744:.\Generated_Source\PSoC4/ble_eventHandler.c ****                 CyBle_CpscScanStartStopEventHandler();
1745:.\Generated_Source\PSoC4/ble_eventHandler.c ****             #endif /* CYBLE_CPS_CLIENT */
1746:.\Generated_Source\PSoC4/ble_eventHandler.c ****             
1747:.\Generated_Source\PSoC4/ble_eventHandler.c ****             if((CYBLE_STATE_CONNECTED != CyBle_GetState()) && ((cyBle_eventHandlerFlag & CYBLE_CALL
1748:.\Generated_Source\PSoC4/ble_eventHandler.c ****             {
1749:.\Generated_Source\PSoC4/ble_eventHandler.c ****                 /* After CyBle_GapcStartScan first event indicates that scanning has been started *
1750:.\Generated_Source\PSoC4/ble_eventHandler.c ****                 if(0u != (cyBle_eventHandlerFlag & CYBLE_START_FLAG))
1751:.\Generated_Source\PSoC4/ble_eventHandler.c ****                 {
1752:.\Generated_Source\PSoC4/ble_eventHandler.c ****                     CyBle_SetState(CYBLE_STATE_SCANNING);
1753:.\Generated_Source\PSoC4/ble_eventHandler.c ****                     cyBle_eventHandlerFlag &= (uint8)~CYBLE_START_FLAG;
1754:.\Generated_Source\PSoC4/ble_eventHandler.c ****                 }
1755:.\Generated_Source\PSoC4/ble_eventHandler.c ****                 /* When application initiated stop scanning */
1756:.\Generated_Source\PSoC4/ble_eventHandler.c ****                 else if(0u != (cyBle_eventHandlerFlag & CYBLE_STOP_FLAG))
1757:.\Generated_Source\PSoC4/ble_eventHandler.c ****                 {
1758:.\Generated_Source\PSoC4/ble_eventHandler.c ****                     CyBle_SetState(CYBLE_STATE_DISCONNECTED);  
1759:.\Generated_Source\PSoC4/ble_eventHandler.c ****                     cyBle_eventHandlerFlag &= (uint8)~CYBLE_STOP_FLAG;
1760:.\Generated_Source\PSoC4/ble_eventHandler.c ****                 }
1761:.\Generated_Source\PSoC4/ble_eventHandler.c ****                 else /* Following event indicates that scanning has been stopped by stack */
1762:.\Generated_Source\PSoC4/ble_eventHandler.c ****                 {
1763:.\Generated_Source\PSoC4/ble_eventHandler.c ****                     if(CYBLE_STATE_SCANNING == CyBle_GetState())
1764:.\Generated_Source\PSoC4/ble_eventHandler.c ****                     {
1765:.\Generated_Source\PSoC4/ble_eventHandler.c ****                         CyBle_SetState(CYBLE_STATE_DISCONNECTED);  
1766:.\Generated_Source\PSoC4/ble_eventHandler.c ****                     #if ((CYBLE_SLOW_SCAN_ENABLED != 0u) && (CYBLE_FAST_SCAN_TIMEOUT != 0u))
1767:.\Generated_Source\PSoC4/ble_eventHandler.c ****                         if(cyBle_scanningIntervalType == CYBLE_SCANNING_FAST)
1768:.\Generated_Source\PSoC4/ble_eventHandler.c ****                         {
1769:.\Generated_Source\PSoC4/ble_eventHandler.c ****                             /* When fast scanning time out occur: Start slow scanning */
1770:.\Generated_Source\PSoC4/ble_eventHandler.c ****                             if(CYBLE_ERROR_OK == CyBle_GapcStartScan(CYBLE_SCANNING_SLOW))
1771:.\Generated_Source\PSoC4/ble_eventHandler.c ****                             {
1772:.\Generated_Source\PSoC4/ble_eventHandler.c ****                                 CyBle_SetState(CYBLE_STATE_SCANNING);
1773:.\Generated_Source\PSoC4/ble_eventHandler.c ****                             }
1774:.\Generated_Source\PSoC4/ble_eventHandler.c ****                         }
1775:.\Generated_Source\PSoC4/ble_eventHandler.c ****                     #endif /* CYBLE_SLOW_SCAN_ENABLED */
1776:.\Generated_Source\PSoC4/ble_eventHandler.c ****                     }
1777:.\Generated_Source\PSoC4/ble_eventHandler.c ****                 }
1778:.\Generated_Source\PSoC4/ble_eventHandler.c ****             }
ARM GAS  C:\Users\alvin\AppData\Local\Temp\cc0iGj3s.s 			page 42


1779:.\Generated_Source\PSoC4/ble_eventHandler.c ****             break;
1780:.\Generated_Source\PSoC4/ble_eventHandler.c ****         #endif /* CYBLE_GAP_ROLE_CENTRAL || CYBLE_GAP_ROLE_OBSERVER */
1781:.\Generated_Source\PSoC4/ble_eventHandler.c **** 
1782:.\Generated_Source\PSoC4/ble_eventHandler.c ****         /**********************************************************
1783:.\Generated_Source\PSoC4/ble_eventHandler.c ****         * L2AP events 
1784:.\Generated_Source\PSoC4/ble_eventHandler.c ****         ************************************************************/
1785:.\Generated_Source\PSoC4/ble_eventHandler.c ****         case CYBLE_EVT_L2CAP_CONN_PARAM_UPDATE_RSP:
1786:.\Generated_Source\PSoC4/ble_eventHandler.c ****             CyBle_L2Cap_ConnParamUpdateRspEventHandler(*(uint16 *)eventParam);
1787:.\Generated_Source\PSoC4/ble_eventHandler.c ****             break;
1788:.\Generated_Source\PSoC4/ble_eventHandler.c ****         
1789:.\Generated_Source\PSoC4/ble_eventHandler.c ****         /**********************************************************
1790:.\Generated_Source\PSoC4/ble_eventHandler.c ****         * GATT events
1791:.\Generated_Source\PSoC4/ble_eventHandler.c ****         ************************************************************/        
1792:.\Generated_Source\PSoC4/ble_eventHandler.c ****         case CYBLE_EVT_GATT_CONNECT_IND:
1793:.\Generated_Source\PSoC4/ble_eventHandler.c ****             cyBle_connHandle = *(CYBLE_CONN_HANDLE_T *)eventParam;
 543              		.loc 1 1793 0
 544 01ea 2B4E     		ldr	r6, .L42+52
 545 01ec 301C     		mov	r0, r6
 546              	.LVL43:
 547 01ee 291C     		mov	r1, r5
 548 01f0 0222     		mov	r2, #2
 549 01f2 FFF7FEFF 		bl	memcpy
 550              	.LVL44:
1794:.\Generated_Source\PSoC4/ble_eventHandler.c ****             cyBle_busyStatus = CYBLE_STACK_STATE_FREE;
 551              		.loc 1 1794 0
 552 01f6 0022     		mov	r2, #0
 553 01f8 234B     		ldr	r3, .L42+36
 554 01fa 1A70     		strb	r2, [r3]
1795:.\Generated_Source\PSoC4/ble_eventHandler.c ****             
1796:.\Generated_Source\PSoC4/ble_eventHandler.c ****         #if((CYBLE_GATT_ROLE_SERVER) && (CYBLE_GATT_DB_CCCD_COUNT != 0u) && \
1797:.\Generated_Source\PSoC4/ble_eventHandler.c ****             (CYBLE_BONDING_REQUIREMENT == CYBLE_BONDING_YES))
1798:.\Generated_Source\PSoC4/ble_eventHandler.c ****             /* Init CCCD values in RAM when bonding is enabled */
1799:.\Generated_Source\PSoC4/ble_eventHandler.c ****         	(void) memcpy (cyBle_attValuesCCCD, cyBle_flashStorage.attValuesCCCDFlashMemory[cyBle_conn
 555              		.loc 1 1799 0
 556 01fc 3378     		ldrb	r3, [r6]
 557 01fe 9900     		lsl	r1, r3, #2
 558 0200 CB18     		add	r3, r1, r3
 559 0202 5B00     		lsl	r3, r3, #1
 560 0204 2649     		ldr	r1, .L42+60
 561 0206 C918     		add	r1, r1, r3
 562 0208 264B     		ldr	r3, .L42+64
 563 020a 9C46     		mov	ip, r3
 564 020c 6144     		add	r1, r1, ip
 565 020e 2648     		ldr	r0, .L42+68
 566 0210 0A32     		add	r2, r2, #10
 567 0212 FFF7FEFF 		bl	memcpy
 568              	.LVL45:
1800:.\Generated_Source\PSoC4/ble_eventHandler.c ****                             CYBLE_GATT_DB_CCCD_COUNT);
1801:.\Generated_Source\PSoC4/ble_eventHandler.c ****         #endif /* CYBLE_GATT_ROLE_SERVER && (CYBLE_BONDING_REQUIREMENT == CYBLE_BONDING_YES) */
1802:.\Generated_Source\PSoC4/ble_eventHandler.c ****         
1803:.\Generated_Source\PSoC4/ble_eventHandler.c ****         #if (CYBLE_GATT_ROLE_CLIENT)
1804:.\Generated_Source\PSoC4/ble_eventHandler.c ****             CyBle_SetClientState(CYBLE_CLIENT_STATE_CONNECTED);
1805:.\Generated_Source\PSoC4/ble_eventHandler.c ****         #endif /* CYBLE_GATT_ROLE_CLIENT */
1806:.\Generated_Source\PSoC4/ble_eventHandler.c ****         
1807:.\Generated_Source\PSoC4/ble_eventHandler.c ****             CyBle_GattConnectReqHandler();
1808:.\Generated_Source\PSoC4/ble_eventHandler.c ****             break;
 569              		.loc 1 1808 0
ARM GAS  C:\Users\alvin\AppData\Local\Temp\cc0iGj3s.s 			page 43


 570 0216 13E0     		b	.L16
 571              	.LVL46:
 572              	.L26:
1809:.\Generated_Source\PSoC4/ble_eventHandler.c **** 
1810:.\Generated_Source\PSoC4/ble_eventHandler.c ****         case CYBLE_EVT_GATT_DISCONNECT_IND:
1811:.\Generated_Source\PSoC4/ble_eventHandler.c ****             CyBle_GattDisconnectEventHandler();
 573              		.loc 1 1811 0
 574 0218 FFF7FEFF 		bl	CyBle_GattDisconnectEventHandler
 575              	.LVL47:
1812:.\Generated_Source\PSoC4/ble_eventHandler.c ****             break;
 576              		.loc 1 1812 0
 577 021c 10E0     		b	.L16
 578              	.LVL48:
 579              	.L33:
 580              	.LBB9:
1813:.\Generated_Source\PSoC4/ble_eventHandler.c **** 
1814:.\Generated_Source\PSoC4/ble_eventHandler.c ****     #if((CYBLE_GATT_ROLE_SERVER) || (CYBLE_GATT_ROLE_CLIENT))
1815:.\Generated_Source\PSoC4/ble_eventHandler.c ****         case CYBLE_EVT_GATTS_XCNHG_MTU_REQ:
1816:.\Generated_Source\PSoC4/ble_eventHandler.c ****             {
1817:.\Generated_Source\PSoC4/ble_eventHandler.c ****                 uint16 cyBle_mtuSize;
1818:.\Generated_Source\PSoC4/ble_eventHandler.c ****                 if(CYBLE_GATT_MTU > ((CYBLE_GATT_XCHG_MTU_PARAM_T *)eventParam)->mtu)
 581              		.loc 1 1818 0
 582 021e 6988     		ldrh	r1, [r5, #2]
 583 0220 1629     		cmp	r1, #22
 584 0222 00D9     		bls	.L40
1819:.\Generated_Source\PSoC4/ble_eventHandler.c ****                 {
1820:.\Generated_Source\PSoC4/ble_eventHandler.c ****                     cyBle_mtuSize = ((CYBLE_GATT_XCHG_MTU_PARAM_T *)eventParam)->mtu;
1821:.\Generated_Source\PSoC4/ble_eventHandler.c ****                 }
1822:.\Generated_Source\PSoC4/ble_eventHandler.c ****                 else
1823:.\Generated_Source\PSoC4/ble_eventHandler.c ****                 {
1824:.\Generated_Source\PSoC4/ble_eventHandler.c ****                     cyBle_mtuSize = CYBLE_GATT_MTU;
 585              		.loc 1 1824 0
 586 0224 1721     		mov	r1, #23
 587              	.L40:
 588              	.LVL49:
1825:.\Generated_Source\PSoC4/ble_eventHandler.c ****                 }
1826:.\Generated_Source\PSoC4/ble_eventHandler.c ****                 (void)CyBle_GattsExchangeMtuRsp(((CYBLE_GATT_XCHG_MTU_PARAM_T *)eventParam)->connHa
 589              		.loc 1 1826 0
 590 0226 2888     		ldrh	r0, [r5]
 591              	.LVL50:
 592 0228 FFF7FEFF 		bl	CyBle_GattsExchangeMtuRsp
 593              	.LVL51:
 594              	.LBE9:
1827:.\Generated_Source\PSoC4/ble_eventHandler.c ****             }
1828:.\Generated_Source\PSoC4/ble_eventHandler.c ****             break;
 595              		.loc 1 1828 0
 596 022c 08E0     		b	.L16
 597              	.LVL52:
 598              	.L31:
1829:.\Generated_Source\PSoC4/ble_eventHandler.c ****     #endif /* CYBLE_GATT_ROLE_SERVER || CYBLE_GATT_ROLE_CLIENT */
1830:.\Generated_Source\PSoC4/ble_eventHandler.c ****     
1831:.\Generated_Source\PSoC4/ble_eventHandler.c ****     #if (CYBLE_GATT_ROLE_CLIENT)
1832:.\Generated_Source\PSoC4/ble_eventHandler.c ****         case CYBLE_EVT_GAPC_SCAN_PROGRESS_RESULT:
1833:.\Generated_Source\PSoC4/ble_eventHandler.c ****         #ifdef CYBLE_CPS_CLIENT
1834:.\Generated_Source\PSoC4/ble_eventHandler.c ****             CyBle_CpscScanProcessEventHandler((CYBLE_GAPC_ADV_REPORT_T *)eventParam);
1835:.\Generated_Source\PSoC4/ble_eventHandler.c ****         #endif /* CYBLE_CPS_CLIENT */
1836:.\Generated_Source\PSoC4/ble_eventHandler.c ****             break;
ARM GAS  C:\Users\alvin\AppData\Local\Temp\cc0iGj3s.s 			page 44


1837:.\Generated_Source\PSoC4/ble_eventHandler.c ****     #endif /* CYBLE_GATT_ROLE_CLIENT */
1838:.\Generated_Source\PSoC4/ble_eventHandler.c **** 
1839:.\Generated_Source\PSoC4/ble_eventHandler.c ****     #if(CYBLE_GATT_ROLE_SERVER)
1840:.\Generated_Source\PSoC4/ble_eventHandler.c ****         case CYBLE_EVT_GATTS_WRITE_REQ:
1841:.\Generated_Source\PSoC4/ble_eventHandler.c ****             CyBle_WriteReqHandler((CYBLE_GATTS_WRITE_REQ_PARAM_T *)eventParam);
 599              		.loc 1 1841 0
 600 022e 281C     		mov	r0, r5
 601              	.LVL53:
 602 0230 FFF7FEFF 		bl	CyBle_WriteReqHandler
 603              	.LVL54:
1842:.\Generated_Source\PSoC4/ble_eventHandler.c ****             break;
 604              		.loc 1 1842 0
 605 0234 04E0     		b	.L16
 606              	.LVL55:
 607              	.L32:
1843:.\Generated_Source\PSoC4/ble_eventHandler.c **** 
1844:.\Generated_Source\PSoC4/ble_eventHandler.c ****         case CYBLE_EVT_GATTS_WRITE_CMD_REQ:
1845:.\Generated_Source\PSoC4/ble_eventHandler.c ****         #ifdef CYBLE_IAS_SERVER
1846:.\Generated_Source\PSoC4/ble_eventHandler.c ****             if((cyBle_eventHandlerFlag & CYBLE_CALLBACK) != 0u)
1847:.\Generated_Source\PSoC4/ble_eventHandler.c ****             {
1848:.\Generated_Source\PSoC4/ble_eventHandler.c ****                 (void)CyBle_IassWriteCmdEventHandler((CYBLE_GATTS_WRITE_REQ_PARAM_T *)eventParam);
1849:.\Generated_Source\PSoC4/ble_eventHandler.c ****             }
1850:.\Generated_Source\PSoC4/ble_eventHandler.c ****         #endif /* CYBLE_IAS_SERVER */
1851:.\Generated_Source\PSoC4/ble_eventHandler.c ****         #ifdef CYBLE_IPS_SERVER
1852:.\Generated_Source\PSoC4/ble_eventHandler.c ****             if((cyBle_eventHandlerFlag & CYBLE_CALLBACK) != 0u)
1853:.\Generated_Source\PSoC4/ble_eventHandler.c ****             {
1854:.\Generated_Source\PSoC4/ble_eventHandler.c ****                 (void)CyBle_IpssWriteCmdEventHandler((CYBLE_GATTS_WRITE_REQ_PARAM_T *)eventParam);
1855:.\Generated_Source\PSoC4/ble_eventHandler.c ****             }
1856:.\Generated_Source\PSoC4/ble_eventHandler.c ****         #endif /* CYBLE_IPS_SERVER */
1857:.\Generated_Source\PSoC4/ble_eventHandler.c ****         #ifdef CYBLE_HIDS_SERVER
1858:.\Generated_Source\PSoC4/ble_eventHandler.c ****             if((cyBle_eventHandlerFlag & CYBLE_CALLBACK) != 0u)
1859:.\Generated_Source\PSoC4/ble_eventHandler.c ****             {
1860:.\Generated_Source\PSoC4/ble_eventHandler.c ****                 (void)CyBle_HidssWriteEventHandler((CYBLE_GATTS_WRITE_REQ_PARAM_T *)eventParam);
1861:.\Generated_Source\PSoC4/ble_eventHandler.c ****             }
1862:.\Generated_Source\PSoC4/ble_eventHandler.c ****         #endif /* CYBLE_HIDS_SERVER */
1863:.\Generated_Source\PSoC4/ble_eventHandler.c ****         #ifdef CYBLE_PASS_SERVER
1864:.\Generated_Source\PSoC4/ble_eventHandler.c ****             if((cyBle_eventHandlerFlag & CYBLE_CALLBACK) != 0u)
1865:.\Generated_Source\PSoC4/ble_eventHandler.c ****             {
1866:.\Generated_Source\PSoC4/ble_eventHandler.c ****                 (void)CyBle_PasssWriteCmdEventHandler((CYBLE_GATTS_WRITE_REQ_PARAM_T *)eventParam);
1867:.\Generated_Source\PSoC4/ble_eventHandler.c ****             }
1868:.\Generated_Source\PSoC4/ble_eventHandler.c ****         #endif /* CYBLE_PASS_SERVER */
1869:.\Generated_Source\PSoC4/ble_eventHandler.c ****         #ifdef CYBLE_RTUS_SERVER
1870:.\Generated_Source\PSoC4/ble_eventHandler.c ****             if((cyBle_eventHandlerFlag & CYBLE_CALLBACK) != 0u)
1871:.\Generated_Source\PSoC4/ble_eventHandler.c ****             {
1872:.\Generated_Source\PSoC4/ble_eventHandler.c ****                 (void)CyBle_RtussWriteCmdEventHandler((CYBLE_GATTS_WRITE_REQ_PARAM_T *)eventParam);
1873:.\Generated_Source\PSoC4/ble_eventHandler.c ****             }
1874:.\Generated_Source\PSoC4/ble_eventHandler.c ****         #endif /* CYBLE_RTUS_SERVER */
1875:.\Generated_Source\PSoC4/ble_eventHandler.c ****         #ifdef CYBLE_SCPS_SERVER
1876:.\Generated_Source\PSoC4/ble_eventHandler.c ****             if((cyBle_eventHandlerFlag & CYBLE_CALLBACK) != 0u)
1877:.\Generated_Source\PSoC4/ble_eventHandler.c ****             {
1878:.\Generated_Source\PSoC4/ble_eventHandler.c ****                 (void)CyBle_ScpssWriteEventHandler((CYBLE_GATTS_WRITE_REQ_PARAM_T *)eventParam);
1879:.\Generated_Source\PSoC4/ble_eventHandler.c ****             }
1880:.\Generated_Source\PSoC4/ble_eventHandler.c ****         #endif /* CYBLE_SCPS_SERVER */
1881:.\Generated_Source\PSoC4/ble_eventHandler.c ****             break;
1882:.\Generated_Source\PSoC4/ble_eventHandler.c ****         
1883:.\Generated_Source\PSoC4/ble_eventHandler.c ****         case CYBLE_EVT_GATTS_PREP_WRITE_REQ:
1884:.\Generated_Source\PSoC4/ble_eventHandler.c ****         #ifdef CYBLE_BMS_SERVER
ARM GAS  C:\Users\alvin\AppData\Local\Temp\cc0iGj3s.s 			page 45


1885:.\Generated_Source\PSoC4/ble_eventHandler.c ****             CyBle_BmssPrepareWriteRequestEventHandler((CYBLE_GATTS_PREP_WRITE_REQ_PARAM_T *)eventPa
1886:.\Generated_Source\PSoC4/ble_eventHandler.c ****         #endif /* CYBLE_BMS_SERVER */
1887:.\Generated_Source\PSoC4/ble_eventHandler.c ****         #ifdef CYBLE_BTS_SERVER
1888:.\Generated_Source\PSoC4/ble_eventHandler.c ****             if((cyBle_eventHandlerFlag & CYBLE_CALLBACK) != 0u)
1889:.\Generated_Source\PSoC4/ble_eventHandler.c ****             {
1890:.\Generated_Source\PSoC4/ble_eventHandler.c ****                 CyBle_BtssPrepareWriteRequestEventHandler((CYBLE_GATTS_PREP_WRITE_REQ_PARAM_T *)eve
1891:.\Generated_Source\PSoC4/ble_eventHandler.c ****             }
1892:.\Generated_Source\PSoC4/ble_eventHandler.c ****         #endif /* CYBLE_BTS_SERVER */
1893:.\Generated_Source\PSoC4/ble_eventHandler.c ****         #ifdef CYBLE_ESS_SERVER
1894:.\Generated_Source\PSoC4/ble_eventHandler.c ****             if((cyBle_eventHandlerFlag & CYBLE_CALLBACK) != 0u)
1895:.\Generated_Source\PSoC4/ble_eventHandler.c ****             {
1896:.\Generated_Source\PSoC4/ble_eventHandler.c ****                 CyBle_EsssPrepareWriteRequestEventHandler((CYBLE_GATTS_PREP_WRITE_REQ_PARAM_T *)eve
1897:.\Generated_Source\PSoC4/ble_eventHandler.c ****             }
1898:.\Generated_Source\PSoC4/ble_eventHandler.c ****         #endif /* CYBLE_ESS_SERVER */
1899:.\Generated_Source\PSoC4/ble_eventHandler.c ****         #ifdef CYBLE_HPS_SERVER
1900:.\Generated_Source\PSoC4/ble_eventHandler.c ****             if((cyBle_eventHandlerFlag & CYBLE_CALLBACK) != 0u)
1901:.\Generated_Source\PSoC4/ble_eventHandler.c ****             {
1902:.\Generated_Source\PSoC4/ble_eventHandler.c ****                 CyBle_HpssPrepareWriteRequestEventHandler((CYBLE_GATTS_PREP_WRITE_REQ_PARAM_T *)eve
1903:.\Generated_Source\PSoC4/ble_eventHandler.c ****             }
1904:.\Generated_Source\PSoC4/ble_eventHandler.c ****         #endif /* CYBLE_HPS_SERVER */
1905:.\Generated_Source\PSoC4/ble_eventHandler.c ****         #ifdef CYBLE_IPS_SERVER
1906:.\Generated_Source\PSoC4/ble_eventHandler.c ****             if((cyBle_eventHandlerFlag & CYBLE_CALLBACK) != 0u)
1907:.\Generated_Source\PSoC4/ble_eventHandler.c ****             {
1908:.\Generated_Source\PSoC4/ble_eventHandler.c ****                 CyBle_IpssPrepareWriteRequestEventHandler((CYBLE_GATTS_PREP_WRITE_REQ_PARAM_T *)eve
1909:.\Generated_Source\PSoC4/ble_eventHandler.c ****             }
1910:.\Generated_Source\PSoC4/ble_eventHandler.c ****         #endif /* CYBLE_IPS_SERVER */
1911:.\Generated_Source\PSoC4/ble_eventHandler.c ****         #ifdef CYBLE_UDS_SERVER
1912:.\Generated_Source\PSoC4/ble_eventHandler.c ****             if((cyBle_eventHandlerFlag & CYBLE_CALLBACK) != 0u)
1913:.\Generated_Source\PSoC4/ble_eventHandler.c ****             {
1914:.\Generated_Source\PSoC4/ble_eventHandler.c ****                 CyBle_UdssPrepareWriteRequestEventHandler((CYBLE_GATTS_PREP_WRITE_REQ_PARAM_T *)eve
1915:.\Generated_Source\PSoC4/ble_eventHandler.c ****             }
1916:.\Generated_Source\PSoC4/ble_eventHandler.c ****         #endif /* CYBLE_UDS_SERVER */
1917:.\Generated_Source\PSoC4/ble_eventHandler.c ****             break;
1918:.\Generated_Source\PSoC4/ble_eventHandler.c **** 
1919:.\Generated_Source\PSoC4/ble_eventHandler.c ****         case CYBLE_EVT_GATTS_EXEC_WRITE_REQ:
1920:.\Generated_Source\PSoC4/ble_eventHandler.c ****         #ifdef CYBLE_BMS_SERVER
1921:.\Generated_Source\PSoC4/ble_eventHandler.c ****             CyBle_BmssExecuteWriteRequestEventHandler((CYBLE_GATTS_EXEC_WRITE_REQ_T *)eventParam);
1922:.\Generated_Source\PSoC4/ble_eventHandler.c ****         #endif /* CYBLE_BMS_SERVER */
1923:.\Generated_Source\PSoC4/ble_eventHandler.c ****         #ifdef CYBLE_BTS_SERVER
1924:.\Generated_Source\PSoC4/ble_eventHandler.c ****             CyBle_BtssExecuteWriteRequestEventHandler((CYBLE_GATTS_EXEC_WRITE_REQ_T *)eventParam);
1925:.\Generated_Source\PSoC4/ble_eventHandler.c ****         #endif /* CYBLE_BTS_SERVER */
1926:.\Generated_Source\PSoC4/ble_eventHandler.c ****         #ifdef CYBLE_ESS_SERVER
1927:.\Generated_Source\PSoC4/ble_eventHandler.c ****             CyBle_EsssExecuteWriteRequestEventHandler((CYBLE_GATTS_EXEC_WRITE_REQ_T *)eventParam);
1928:.\Generated_Source\PSoC4/ble_eventHandler.c ****         #endif /* CYBLE_ESS_SERVER */
1929:.\Generated_Source\PSoC4/ble_eventHandler.c ****         #ifdef CYBLE_HPS_SERVER
1930:.\Generated_Source\PSoC4/ble_eventHandler.c ****             CyBle_HpssExecuteWriteRequestEventHandler((CYBLE_GATTS_EXEC_WRITE_REQ_T *)eventParam);
1931:.\Generated_Source\PSoC4/ble_eventHandler.c ****         #endif /* CYBLE_HPS_SERVER */
1932:.\Generated_Source\PSoC4/ble_eventHandler.c ****         #ifdef CYBLE_IPS_SERVER
1933:.\Generated_Source\PSoC4/ble_eventHandler.c ****             CyBle_IpssExecuteWriteRequestEventHandler((CYBLE_GATTS_EXEC_WRITE_REQ_T *)eventParam);
1934:.\Generated_Source\PSoC4/ble_eventHandler.c ****         #endif /* CYBLE_IPS_SERVER */
1935:.\Generated_Source\PSoC4/ble_eventHandler.c **** 		#ifdef CYBLE_UDS_SERVER
1936:.\Generated_Source\PSoC4/ble_eventHandler.c ****             CyBle_UdssExecuteWriteRequestEventHandler((CYBLE_GATTS_EXEC_WRITE_REQ_T *)eventParam);
1937:.\Generated_Source\PSoC4/ble_eventHandler.c ****         #endif /* CYBLE_UDS_SERVER */
1938:.\Generated_Source\PSoC4/ble_eventHandler.c ****             break;
1939:.\Generated_Source\PSoC4/ble_eventHandler.c ****         
1940:.\Generated_Source\PSoC4/ble_eventHandler.c ****         case CYBLE_EVT_GATTS_HANDLE_VALUE_CNF:
1941:.\Generated_Source\PSoC4/ble_eventHandler.c ****             CyBle_ValueConfirmation((CYBLE_CONN_HANDLE_T *)eventParam);
ARM GAS  C:\Users\alvin\AppData\Local\Temp\cc0iGj3s.s 			page 46


1942:.\Generated_Source\PSoC4/ble_eventHandler.c ****             break;
1943:.\Generated_Source\PSoC4/ble_eventHandler.c ****             
1944:.\Generated_Source\PSoC4/ble_eventHandler.c ****         case CYBLE_EVT_GATTS_READ_CHAR_VAL_ACCESS_REQ:
1945:.\Generated_Source\PSoC4/ble_eventHandler.c ****         #ifdef CYBLE_UDS_SERVER
1946:.\Generated_Source\PSoC4/ble_eventHandler.c ****             CyBle_UdssReadRequestEventHandler((CYBLE_GATTS_CHAR_VAL_READ_REQ_T *)eventParam);
1947:.\Generated_Source\PSoC4/ble_eventHandler.c ****         #endif /* CYBLE_UDS_SERVER */
1948:.\Generated_Source\PSoC4/ble_eventHandler.c ****             break;
1949:.\Generated_Source\PSoC4/ble_eventHandler.c ****             
1950:.\Generated_Source\PSoC4/ble_eventHandler.c ****     #endif /* CYBLE_GATT_ROLE_SERVER */
1951:.\Generated_Source\PSoC4/ble_eventHandler.c **** 
1952:.\Generated_Source\PSoC4/ble_eventHandler.c ****     #if (CYBLE_GATT_ROLE_CLIENT)
1953:.\Generated_Source\PSoC4/ble_eventHandler.c ****         
1954:.\Generated_Source\PSoC4/ble_eventHandler.c ****         case CYBLE_EVT_GATTC_READ_BY_GROUP_TYPE_RSP:
1955:.\Generated_Source\PSoC4/ble_eventHandler.c ****             CyBle_ReadByGroupEventHandler((CYBLE_GATTC_READ_BY_GRP_RSP_PARAM_T *)eventParam);
1956:.\Generated_Source\PSoC4/ble_eventHandler.c ****             break;
1957:.\Generated_Source\PSoC4/ble_eventHandler.c **** 
1958:.\Generated_Source\PSoC4/ble_eventHandler.c ****         case CYBLE_EVT_GATTC_READ_BY_TYPE_RSP:
1959:.\Generated_Source\PSoC4/ble_eventHandler.c ****             CyBle_ReadByTypeEventHandler((CYBLE_GATTC_READ_BY_TYPE_RSP_PARAM_T *)eventParam);
1960:.\Generated_Source\PSoC4/ble_eventHandler.c ****             break;
1961:.\Generated_Source\PSoC4/ble_eventHandler.c **** 
1962:.\Generated_Source\PSoC4/ble_eventHandler.c ****         case CYBLE_EVT_GATTC_READ_BLOB_RSP:
1963:.\Generated_Source\PSoC4/ble_eventHandler.c ****         #ifdef CYBLE_ESS_CLIENT
1964:.\Generated_Source\PSoC4/ble_eventHandler.c ****             CyBle_EsscReadLongRespEventHandler((CYBLE_GATTC_READ_RSP_PARAM_T *)eventParam);
1965:.\Generated_Source\PSoC4/ble_eventHandler.c ****         #endif /* CYBLE_ESS_CLIENT */
1966:.\Generated_Source\PSoC4/ble_eventHandler.c ****         #ifdef CYBLE_HPS_CLIENT
1967:.\Generated_Source\PSoC4/ble_eventHandler.c ****             CyBle_HpscReadLongRespEventHandler((CYBLE_GATTC_READ_RSP_PARAM_T *)eventParam);
1968:.\Generated_Source\PSoC4/ble_eventHandler.c ****         #endif /* CYBLE_HPS_CLIENT */
1969:.\Generated_Source\PSoC4/ble_eventHandler.c **** 		#ifdef CYBLE_IPS_CLIENT
1970:.\Generated_Source\PSoC4/ble_eventHandler.c ****             CyBle_IpscReadLongRespEventHandler((CYBLE_GATTC_READ_RSP_PARAM_T *)eventParam);
1971:.\Generated_Source\PSoC4/ble_eventHandler.c ****         #endif /* CYBLE_IPS_CLIENT */
1972:.\Generated_Source\PSoC4/ble_eventHandler.c ****         #ifdef CYBLE_UDS_CLIENT
1973:.\Generated_Source\PSoC4/ble_eventHandler.c ****             if((cyBle_eventHandlerFlag & CYBLE_CALLBACK) != 0u)
1974:.\Generated_Source\PSoC4/ble_eventHandler.c ****             {
1975:.\Generated_Source\PSoC4/ble_eventHandler.c ****                 CyBle_UdscReadLongRespEventHandler((CYBLE_GATTC_READ_RSP_PARAM_T *)eventParam);
1976:.\Generated_Source\PSoC4/ble_eventHandler.c ****             }
1977:.\Generated_Source\PSoC4/ble_eventHandler.c ****         #endif /* CYBLE_UDS_CLIENT */
1978:.\Generated_Source\PSoC4/ble_eventHandler.c ****             break;
1979:.\Generated_Source\PSoC4/ble_eventHandler.c ****         
1980:.\Generated_Source\PSoC4/ble_eventHandler.c ****         case CYBLE_EVT_GATTC_LONG_PROCEDURE_END:
1981:.\Generated_Source\PSoC4/ble_eventHandler.c ****             CyBle_LongProcedureEndEventHandler();
1982:.\Generated_Source\PSoC4/ble_eventHandler.c ****             break;
1983:.\Generated_Source\PSoC4/ble_eventHandler.c ****         
1984:.\Generated_Source\PSoC4/ble_eventHandler.c ****         case CYBLE_EVT_GATTC_FIND_INFO_RSP:
1985:.\Generated_Source\PSoC4/ble_eventHandler.c ****             CyBle_FindInfoEventHandler((CYBLE_GATTC_FIND_INFO_RSP_PARAM_T *)eventParam);
1986:.\Generated_Source\PSoC4/ble_eventHandler.c ****             break;
1987:.\Generated_Source\PSoC4/ble_eventHandler.c **** 
1988:.\Generated_Source\PSoC4/ble_eventHandler.c ****         case CYBLE_EVT_GATTC_ERROR_RSP:
1989:.\Generated_Source\PSoC4/ble_eventHandler.c ****             CyBle_ErrorResponseEventHandler((CYBLE_GATTC_ERR_RSP_PARAM_T *)eventParam);
1990:.\Generated_Source\PSoC4/ble_eventHandler.c ****             break;
1991:.\Generated_Source\PSoC4/ble_eventHandler.c **** 
1992:.\Generated_Source\PSoC4/ble_eventHandler.c ****         case CYBLE_EVT_GATTC_HANDLE_VALUE_NTF:
1993:.\Generated_Source\PSoC4/ble_eventHandler.c ****             CyBle_NotificationEventHandler((CYBLE_GATTC_HANDLE_VALUE_NTF_PARAM_T *)eventParam);
1994:.\Generated_Source\PSoC4/ble_eventHandler.c ****             break;
1995:.\Generated_Source\PSoC4/ble_eventHandler.c **** 
1996:.\Generated_Source\PSoC4/ble_eventHandler.c ****         case CYBLE_EVT_GATTC_HANDLE_VALUE_IND:
1997:.\Generated_Source\PSoC4/ble_eventHandler.c ****             CyBle_GattcIndicationEventHandler((CYBLE_GATTC_HANDLE_VALUE_IND_PARAM_T *)eventParam);
1998:.\Generated_Source\PSoC4/ble_eventHandler.c ****             CyBle_IndicationEventHandler((CYBLE_GATTC_HANDLE_VALUE_IND_PARAM_T *)eventParam);
ARM GAS  C:\Users\alvin\AppData\Local\Temp\cc0iGj3s.s 			page 47


1999:.\Generated_Source\PSoC4/ble_eventHandler.c ****         
2000:.\Generated_Source\PSoC4/ble_eventHandler.c ****             /* Respond with a Handle Value Confirmation when request handled */
2001:.\Generated_Source\PSoC4/ble_eventHandler.c ****             if((cyBle_eventHandlerFlag & CYBLE_CALLBACK) == 0u)
2002:.\Generated_Source\PSoC4/ble_eventHandler.c ****             {
2003:.\Generated_Source\PSoC4/ble_eventHandler.c ****                 (void)CyBle_GattcConfirmation(((CYBLE_GATTC_HANDLE_VALUE_IND_PARAM_T *)eventParam)-
2004:.\Generated_Source\PSoC4/ble_eventHandler.c ****             }
2005:.\Generated_Source\PSoC4/ble_eventHandler.c ****             break;
2006:.\Generated_Source\PSoC4/ble_eventHandler.c ****         
2007:.\Generated_Source\PSoC4/ble_eventHandler.c ****         case CYBLE_EVT_GATTC_READ_RSP:
2008:.\Generated_Source\PSoC4/ble_eventHandler.c ****             CyBle_ReadResponseEventHandler((CYBLE_GATTC_READ_RSP_PARAM_T *)eventParam);
2009:.\Generated_Source\PSoC4/ble_eventHandler.c ****             break;
2010:.\Generated_Source\PSoC4/ble_eventHandler.c ****         
2011:.\Generated_Source\PSoC4/ble_eventHandler.c ****         case CYBLE_EVT_GATTC_READ_MULTI_RSP:
2012:.\Generated_Source\PSoC4/ble_eventHandler.c ****             CyBle_ReadMultipleResponseEventHandler((CYBLE_GATTC_READ_RSP_PARAM_T *)eventParam);
2013:.\Generated_Source\PSoC4/ble_eventHandler.c ****             break;
2014:.\Generated_Source\PSoC4/ble_eventHandler.c ****             
2015:.\Generated_Source\PSoC4/ble_eventHandler.c ****         case CYBLE_EVT_GATTC_WRITE_RSP:
2016:.\Generated_Source\PSoC4/ble_eventHandler.c ****             CyBle_GattcWriteResponseEventHandler((CYBLE_CONN_HANDLE_T *)eventParam);
2017:.\Generated_Source\PSoC4/ble_eventHandler.c ****             break;
2018:.\Generated_Source\PSoC4/ble_eventHandler.c ****             
2019:.\Generated_Source\PSoC4/ble_eventHandler.c ****         case CYBLE_EVT_GATTC_EXEC_WRITE_RSP:
2020:.\Generated_Source\PSoC4/ble_eventHandler.c ****         #ifdef CYBLE_BMS_CLIENT
2021:.\Generated_Source\PSoC4/ble_eventHandler.c ****             CyBle_BmscExecuteWriteResponseEventHandler((CYBLE_GATTC_EXEC_WRITE_RSP_T *)eventParam);
2022:.\Generated_Source\PSoC4/ble_eventHandler.c ****         #endif /* CYBLE_BMS_CLIENT */
2023:.\Generated_Source\PSoC4/ble_eventHandler.c ****         #ifdef CYBLE_ESS_CLIENT
2024:.\Generated_Source\PSoC4/ble_eventHandler.c ****             if((cyBle_eventHandlerFlag & CYBLE_CALLBACK) != 0u)
2025:.\Generated_Source\PSoC4/ble_eventHandler.c ****             {
2026:.\Generated_Source\PSoC4/ble_eventHandler.c ****                 CyBle_EsscExecuteWriteResponseEventHandler((CYBLE_GATTC_EXEC_WRITE_RSP_T *)eventPar
2027:.\Generated_Source\PSoC4/ble_eventHandler.c ****             }
2028:.\Generated_Source\PSoC4/ble_eventHandler.c ****         #endif /* CYBLE_ESS_CLIENT */
2029:.\Generated_Source\PSoC4/ble_eventHandler.c ****         #ifdef CYBLE_HPS_CLIENT
2030:.\Generated_Source\PSoC4/ble_eventHandler.c ****             if((cyBle_eventHandlerFlag & CYBLE_CALLBACK) != 0u)
2031:.\Generated_Source\PSoC4/ble_eventHandler.c ****             {
2032:.\Generated_Source\PSoC4/ble_eventHandler.c ****                 CyBle_HpscExecuteWriteResponseEventHandler((CYBLE_GATTC_EXEC_WRITE_RSP_T *)eventPar
2033:.\Generated_Source\PSoC4/ble_eventHandler.c ****             }
2034:.\Generated_Source\PSoC4/ble_eventHandler.c ****         #endif /* CYBLE_HPS_CLIENT */
2035:.\Generated_Source\PSoC4/ble_eventHandler.c ****         #ifdef CYBLE_IPS_CLIENT
2036:.\Generated_Source\PSoC4/ble_eventHandler.c ****             if((cyBle_eventHandlerFlag & CYBLE_CALLBACK) != 0u)
2037:.\Generated_Source\PSoC4/ble_eventHandler.c ****             {
2038:.\Generated_Source\PSoC4/ble_eventHandler.c ****                 CyBle_IpscExecuteWriteResponseEventHandler((CYBLE_GATTC_EXEC_WRITE_RSP_T *)eventPar
2039:.\Generated_Source\PSoC4/ble_eventHandler.c ****             }
2040:.\Generated_Source\PSoC4/ble_eventHandler.c ****         #endif /* CYBLE_IPS_CLIENT */
2041:.\Generated_Source\PSoC4/ble_eventHandler.c ****         #ifdef CYBLE_UDS_CLIENT
2042:.\Generated_Source\PSoC4/ble_eventHandler.c ****             if((cyBle_eventHandlerFlag & CYBLE_CALLBACK) != 0u)
2043:.\Generated_Source\PSoC4/ble_eventHandler.c ****             {
2044:.\Generated_Source\PSoC4/ble_eventHandler.c ****                 CyBle_UdscExecuteWriteResponseEventHandler((CYBLE_GATTC_EXEC_WRITE_RSP_T *)eventPar
2045:.\Generated_Source\PSoC4/ble_eventHandler.c ****             }
2046:.\Generated_Source\PSoC4/ble_eventHandler.c ****         #endif /* CYBLE_UDS_CLIENT */
2047:.\Generated_Source\PSoC4/ble_eventHandler.c ****             break;
2048:.\Generated_Source\PSoC4/ble_eventHandler.c ****             
2049:.\Generated_Source\PSoC4/ble_eventHandler.c ****     #endif /* CYBLE_GATT_ROLE_CLIENT */
2050:.\Generated_Source\PSoC4/ble_eventHandler.c **** 
2051:.\Generated_Source\PSoC4/ble_eventHandler.c ****     #if((CYBLE_GAP_ROLE_PERIPHERAL || CYBLE_GAP_ROLE_CENTRAL) && (CYBLE_BONDING_REQUIREMENT == CYBL
2052:.\Generated_Source\PSoC4/ble_eventHandler.c **** 
2053:.\Generated_Source\PSoC4/ble_eventHandler.c ****         case CYBLE_EVT_PENDING_FLASH_WRITE:
2054:.\Generated_Source\PSoC4/ble_eventHandler.c ****             cyBle_pendingFlashWrite |= CYBLE_PENDING_STACK_FLASH_WRITE_BIT;
 608              		.loc 1 2054 0
ARM GAS  C:\Users\alvin\AppData\Local\Temp\cc0iGj3s.s 			page 48


 609 0236 1D4A     		ldr	r2, .L42+72
 610 0238 1178     		ldrb	r1, [r2]
 611 023a 0123     		mov	r3, #1
 612 023c 0B43     		orr	r3, r1
 613 023e 1370     		strb	r3, [r2]
 614              	.LVL56:
 615              	.L16:
2055:.\Generated_Source\PSoC4/ble_eventHandler.c ****             break;
2056:.\Generated_Source\PSoC4/ble_eventHandler.c ****         
2057:.\Generated_Source\PSoC4/ble_eventHandler.c ****     #endif  /* (CYBLE_BONDING_REQUIREMENT == CYBLE_BONDING_YES) */
2058:.\Generated_Source\PSoC4/ble_eventHandler.c ****     
2059:.\Generated_Source\PSoC4/ble_eventHandler.c ****         default:
2060:.\Generated_Source\PSoC4/ble_eventHandler.c ****             break;
2061:.\Generated_Source\PSoC4/ble_eventHandler.c ****     }
2062:.\Generated_Source\PSoC4/ble_eventHandler.c **** 
2063:.\Generated_Source\PSoC4/ble_eventHandler.c ****     if(0u != (cyBle_eventHandlerFlag & (CYBLE_CALLBACK | CYBLE_ENABLE_ALL_EVENTS))) 
 616              		.loc 1 2063 0
 617 0240 084B     		ldr	r3, .L42
 618 0242 1A78     		ldrb	r2, [r3]
 619 0244 1123     		mov	r3, #17
 620 0246 1A42     		tst	r2, r3
 621 0248 09D0     		beq	.L15
2064:.\Generated_Source\PSoC4/ble_eventHandler.c ****     {
2065:.\Generated_Source\PSoC4/ble_eventHandler.c ****         cyBle_eventHandlerFlag &= (uint8)~CYBLE_CALLBACK;
 622              		.loc 1 2065 0
 623 024a 064A     		ldr	r2, .L42
 624 024c 1378     		ldrb	r3, [r2]
 625 024e 0121     		mov	r1, #1
 626 0250 8B43     		bic	r3, r1
 627 0252 1370     		strb	r3, [r2]
2066:.\Generated_Source\PSoC4/ble_eventHandler.c ****         CyBle_ApplCallback((uint32)eventCode, eventParam);
 628              		.loc 1 2066 0
 629 0254 164B     		ldr	r3, .L42+76
 630 0256 1B68     		ldr	r3, [r3]
 631 0258 201C     		mov	r0, r4
 632 025a 291C     		mov	r1, r5
 633 025c 9847     		blx	r3
 634              	.LVL57:
 635              	.L15:
2067:.\Generated_Source\PSoC4/ble_eventHandler.c ****     }
2068:.\Generated_Source\PSoC4/ble_eventHandler.c **** }
 636              		.loc 1 2068 0
 637 025e 03B0     		add	sp, sp, #12
 638              		@ sp needed
 639              	.LVL58:
 640 0260 F0BD     		pop	{r4, r5, r6, r7, pc}
 641              	.L43:
 642 0262 C046     		.align	2
 643              	.L42:
 644 0264 00000000 		.word	cyBle_eventHandlerFlag
 645 0268 00000000 		.word	cyBle_sflashDeviceAddress
 646 026c 7CF2FF0F 		.word	268431996
 647 0270 7DF2FF0F 		.word	268431997
 648 0274 7BF2FF0F 		.word	268431995
 649 0278 78F2FF0F 		.word	268431992
 650 027c 00000000 		.word	cyBle_deviceAddress
 651 0280 00000000 		.word	.LANCHOR0
ARM GAS  C:\Users\alvin\AppData\Local\Temp\cc0iGj3s.s 			page 49


 652 0284 00000000 		.word	cyBle_state
 653 0288 00000000 		.word	cyBle_busyStatus
 654 028c 00000000 		.word	.LANCHOR1
 655 0290 800D0000 		.word	cyBle_stackMemoryRam+3456
 656 0294 00000000 		.word	.LANCHOR2
 657 0298 00000000 		.word	cyBle_connHandle
 658 029c 00000000 		.word	cyBle_peerBonding
 659 02a0 00000000 		.word	cyBle_flashStorage
 660 02a4 79020000 		.word	633
 661 02a8 00000000 		.word	cyBle_attValuesCCCD
 662 02ac 00000000 		.word	cyBle_pendingFlashWrite
 663 02b0 00000000 		.word	CyBle_ApplCallback
 664              		.cfi_endproc
 665              	.LFE10:
 666              		.size	CyBle_EventHandler, .-CyBle_EventHandler
 667              		.global	cyBle_authInfo
 668              		.comm	cyBle_advertisingIntervalType,1,1
 669              		.comm	cyBle_busyStatus,1,1
 670              		.comm	cyBle_eventHandlerFlag,1,1
 671              		.comm	cyBle_connHandle,2,4
 672              		.section	.rodata
 673              		.align	2
 674              		.set	.LANCHOR0,. + 0
 675              	.LC0:
 676 0000 3F       		.byte	63
 677 0001 06       		.byte	6
 678 0002 0000     		.data
 679              		.align	2
 680              		.set	.LANCHOR2,. + 0
 681              		.type	cyBle_authInfo, %object
 682              		.size	cyBle_authInfo, 5
 683              	cyBle_authInfo:
 684 0000 10       		.byte	16
 685 0001 01       		.byte	1
 686 0002 10       		.byte	16
 687 0003 00       		.byte	0
 688 0004 01       		.byte	1
 689 0005 000000   		.bss
 690              		.align	2
 691              		.set	.LANCHOR1,. + 0
 692              		.type	gPrepWriteReqMem.6355, %object
 693              		.size	gPrepWriteReqMem.6355, 8
 694              	gPrepWriteReqMem.6355:
 695 0000 00000000 		.space	8
 695      00000000 
 696              		.text
 697              	.Letext0:
 698              		.file 2 ".\\Generated_Source\\PSoC4\\cytypes.h"
 699              		.file 3 ".\\Generated_Source\\PSoC4\\ble_Stack.h"
 700              		.file 4 ".\\Generated_Source\\PSoC4\\ble_StackHostMain.h"
 701              		.file 5 ".\\Generated_Source\\PSoC4\\ble_StackGap.h"
 702              		.file 6 ".\\Generated_Source\\PSoC4\\ble_StackGatt.h"
 703              		.file 7 ".\\Generated_Source\\PSoC4\\ble_StackGattServer.h"
 704              		.file 8 ".\\Generated_Source\\PSoC4\\ble.h"
 705              		.file 9 ".\\Generated_Source\\PSoC4\\ble_gatt.h"
 706              		.file 10 ".\\Generated_Source\\PSoC4\\ble_eventHandler.h"
 707              		.section	.debug_info,"",%progbits
ARM GAS  C:\Users\alvin\AppData\Local\Temp\cc0iGj3s.s 			page 50


 708              	.Ldebug_info0:
 709 0000 A2100000 		.4byte	0x10a2
 710 0004 0400     		.2byte	0x4
 711 0006 00000000 		.4byte	.Ldebug_abbrev0
 712 000a 04       		.byte	0x4
 713 000b 01       		.uleb128 0x1
 714 000c FA100000 		.4byte	.LASF338
 715 0010 01       		.byte	0x1
 716 0011 580C0000 		.4byte	.LASF339
 717 0015 071F0000 		.4byte	.LASF340
 718 0019 00000000 		.4byte	.Ldebug_ranges0+0
 719 001d 00000000 		.4byte	0
 720 0021 00000000 		.4byte	.Ldebug_line0
 721 0025 02       		.uleb128 0x2
 722 0026 01       		.byte	0x1
 723 0027 06       		.byte	0x6
 724 0028 A3070000 		.4byte	.LASF0
 725 002c 02       		.uleb128 0x2
 726 002d 01       		.byte	0x1
 727 002e 08       		.byte	0x8
 728 002f F8080000 		.4byte	.LASF1
 729 0033 02       		.uleb128 0x2
 730 0034 02       		.byte	0x2
 731 0035 05       		.byte	0x5
 732 0036 BC1D0000 		.4byte	.LASF2
 733 003a 02       		.uleb128 0x2
 734 003b 02       		.byte	0x2
 735 003c 07       		.byte	0x7
 736 003d 63220000 		.4byte	.LASF3
 737 0041 02       		.uleb128 0x2
 738 0042 04       		.byte	0x4
 739 0043 05       		.byte	0x5
 740 0044 76050000 		.4byte	.LASF4
 741 0048 02       		.uleb128 0x2
 742 0049 04       		.byte	0x4
 743 004a 07       		.byte	0x7
 744 004b C90F0000 		.4byte	.LASF5
 745 004f 02       		.uleb128 0x2
 746 0050 08       		.byte	0x8
 747 0051 05       		.byte	0x5
 748 0052 89130000 		.4byte	.LASF6
 749 0056 02       		.uleb128 0x2
 750 0057 08       		.byte	0x8
 751 0058 07       		.byte	0x7
 752 0059 531A0000 		.4byte	.LASF7
 753 005d 03       		.uleb128 0x3
 754 005e 04       		.byte	0x4
 755 005f 05       		.byte	0x5
 756 0060 696E7400 		.ascii	"int\000"
 757 0064 02       		.uleb128 0x2
 758 0065 04       		.byte	0x4
 759 0066 07       		.byte	0x7
 760 0067 27160000 		.4byte	.LASF8
 761 006b 04       		.uleb128 0x4
 762 006c 6E1D0000 		.4byte	.LASF9
 763 0070 02       		.byte	0x2
 764 0071 9801     		.2byte	0x198
ARM GAS  C:\Users\alvin\AppData\Local\Temp\cc0iGj3s.s 			page 51


 765 0073 2C000000 		.4byte	0x2c
 766 0077 04       		.uleb128 0x4
 767 0078 19240000 		.4byte	.LASF10
 768 007c 02       		.byte	0x2
 769 007d 9901     		.2byte	0x199
 770 007f 3A000000 		.4byte	0x3a
 771 0083 04       		.uleb128 0x4
 772 0084 70010000 		.4byte	.LASF11
 773 0088 02       		.byte	0x2
 774 0089 9A01     		.2byte	0x19a
 775 008b 48000000 		.4byte	0x48
 776 008f 02       		.uleb128 0x2
 777 0090 04       		.byte	0x4
 778 0091 04       		.byte	0x4
 779 0092 71150000 		.4byte	.LASF12
 780 0096 02       		.uleb128 0x2
 781 0097 08       		.byte	0x8
 782 0098 04       		.byte	0x4
 783 0099 59140000 		.4byte	.LASF13
 784 009d 02       		.uleb128 0x2
 785 009e 01       		.byte	0x1
 786 009f 08       		.byte	0x8
 787 00a0 560A0000 		.4byte	.LASF14
 788 00a4 05       		.uleb128 0x5
 789 00a5 6B000000 		.4byte	0x6b
 790 00a9 02       		.uleb128 0x2
 791 00aa 04       		.byte	0x4
 792 00ab 07       		.byte	0x7
 793 00ac 2D000000 		.4byte	.LASF15
 794 00b0 06       		.uleb128 0x6
 795 00b1 04       		.byte	0x4
 796 00b2 07       		.uleb128 0x7
 797 00b3 01       		.byte	0x1
 798 00b4 03       		.byte	0x3
 799 00b5 4201     		.2byte	0x142
 800 00b7 6F020000 		.4byte	0x26f
 801 00bb 08       		.uleb128 0x8
 802 00bc DE0A0000 		.4byte	.LASF16
 803 00c0 00       		.sleb128 0
 804 00c1 08       		.uleb128 0x8
 805 00c2 1F060000 		.4byte	.LASF17
 806 00c6 01       		.sleb128 1
 807 00c7 08       		.uleb128 0x8
 808 00c8 881A0000 		.4byte	.LASF18
 809 00cc 02       		.sleb128 2
 810 00cd 08       		.uleb128 0x8
 811 00ce E4070000 		.4byte	.LASF19
 812 00d2 03       		.sleb128 3
 813 00d3 08       		.uleb128 0x8
 814 00d4 2E230000 		.4byte	.LASF20
 815 00d8 04       		.sleb128 4
 816 00d9 08       		.uleb128 0x8
 817 00da 11210000 		.4byte	.LASF21
 818 00de 05       		.sleb128 5
 819 00df 08       		.uleb128 0x8
 820 00e0 4A190000 		.4byte	.LASF22
 821 00e4 06       		.sleb128 6
ARM GAS  C:\Users\alvin\AppData\Local\Temp\cc0iGj3s.s 			page 52


 822 00e5 08       		.uleb128 0x8
 823 00e6 CD1E0000 		.4byte	.LASF23
 824 00ea 20       		.sleb128 32
 825 00eb 08       		.uleb128 0x8
 826 00ec AA030000 		.4byte	.LASF24
 827 00f0 21       		.sleb128 33
 828 00f1 08       		.uleb128 0x8
 829 00f2 96120000 		.4byte	.LASF25
 830 00f6 22       		.sleb128 34
 831 00f7 08       		.uleb128 0x8
 832 00f8 0B180000 		.4byte	.LASF26
 833 00fc 23       		.sleb128 35
 834 00fd 08       		.uleb128 0x8
 835 00fe 0D0F0000 		.4byte	.LASF27
 836 0102 24       		.sleb128 36
 837 0103 08       		.uleb128 0x8
 838 0104 290F0000 		.4byte	.LASF28
 839 0108 25       		.sleb128 37
 840 0109 08       		.uleb128 0x8
 841 010a 241D0000 		.4byte	.LASF29
 842 010e 26       		.sleb128 38
 843 010f 08       		.uleb128 0x8
 844 0110 00010000 		.4byte	.LASF30
 845 0114 27       		.sleb128 39
 846 0115 08       		.uleb128 0x8
 847 0116 D6230000 		.4byte	.LASF31
 848 011a 28       		.sleb128 40
 849 011b 08       		.uleb128 0x8
 850 011c 7D190000 		.4byte	.LASF32
 851 0120 29       		.sleb128 41
 852 0121 08       		.uleb128 0x8
 853 0122 D1110000 		.4byte	.LASF33
 854 0126 2A       		.sleb128 42
 855 0127 08       		.uleb128 0x8
 856 0128 98170000 		.4byte	.LASF34
 857 012c 2B       		.sleb128 43
 858 012d 08       		.uleb128 0x8
 859 012e 86210000 		.4byte	.LASF35
 860 0132 2C       		.sleb128 44
 861 0133 08       		.uleb128 0x8
 862 0134 72000000 		.4byte	.LASF36
 863 0138 2D       		.sleb128 45
 864 0139 08       		.uleb128 0x8
 865 013a 831D0000 		.4byte	.LASF37
 866 013e 2E       		.sleb128 46
 867 013f 08       		.uleb128 0x8
 868 0140 52040000 		.4byte	.LASF38
 869 0144 2F       		.sleb128 47
 870 0145 08       		.uleb128 0x8
 871 0146 350A0000 		.4byte	.LASF39
 872 014a 30       		.sleb128 48
 873 014b 08       		.uleb128 0x8
 874 014c 0B150000 		.4byte	.LASF40
 875 0150 31       		.sleb128 49
 876 0151 08       		.uleb128 0x8
 877 0152 2E0B0000 		.4byte	.LASF41
 878 0156 32       		.sleb128 50
ARM GAS  C:\Users\alvin\AppData\Local\Temp\cc0iGj3s.s 			page 53


 879 0157 08       		.uleb128 0x8
 880 0158 40090000 		.4byte	.LASF42
 881 015c 33       		.sleb128 51
 882 015d 08       		.uleb128 0x8
 883 015e 471E0000 		.4byte	.LASF43
 884 0162 C000     		.sleb128 64
 885 0164 08       		.uleb128 0x8
 886 0165 40010000 		.4byte	.LASF44
 887 0169 C100     		.sleb128 65
 888 016b 08       		.uleb128 0x8
 889 016c 43230000 		.4byte	.LASF45
 890 0170 C200     		.sleb128 66
 891 0172 08       		.uleb128 0x8
 892 0173 A6190000 		.4byte	.LASF46
 893 0177 C300     		.sleb128 67
 894 0179 08       		.uleb128 0x8
 895 017a 06090000 		.4byte	.LASF47
 896 017e C400     		.sleb128 68
 897 0180 08       		.uleb128 0x8
 898 0181 68080000 		.4byte	.LASF48
 899 0185 C500     		.sleb128 69
 900 0187 08       		.uleb128 0x8
 901 0188 8A1C0000 		.4byte	.LASF49
 902 018c C600     		.sleb128 70
 903 018e 08       		.uleb128 0x8
 904 018f 6C1C0000 		.4byte	.LASF50
 905 0193 C700     		.sleb128 71
 906 0195 08       		.uleb128 0x8
 907 0196 EA090000 		.4byte	.LASF51
 908 019a C800     		.sleb128 72
 909 019c 08       		.uleb128 0x8
 910 019d 80180000 		.4byte	.LASF52
 911 01a1 C900     		.sleb128 73
 912 01a3 08       		.uleb128 0x8
 913 01a4 850B0000 		.4byte	.LASF53
 914 01a8 CA00     		.sleb128 74
 915 01aa 08       		.uleb128 0x8
 916 01ab 8B0A0000 		.4byte	.LASF54
 917 01af CB00     		.sleb128 75
 918 01b1 08       		.uleb128 0x8
 919 01b2 F1170000 		.4byte	.LASF55
 920 01b6 CC00     		.sleb128 76
 921 01b8 08       		.uleb128 0x8
 922 01b9 EA1C0000 		.4byte	.LASF56
 923 01bd CD00     		.sleb128 77
 924 01bf 08       		.uleb128 0x8
 925 01c0 58050000 		.4byte	.LASF57
 926 01c4 CE00     		.sleb128 78
 927 01c6 08       		.uleb128 0x8
 928 01c7 34160000 		.4byte	.LASF58
 929 01cb CF00     		.sleb128 79
 930 01cd 08       		.uleb128 0x8
 931 01ce AE1E0000 		.4byte	.LASF59
 932 01d2 D000     		.sleb128 80
 933 01d4 08       		.uleb128 0x8
 934 01d5 C80B0000 		.4byte	.LASF60
 935 01d9 D100     		.sleb128 81
ARM GAS  C:\Users\alvin\AppData\Local\Temp\cc0iGj3s.s 			page 54


 936 01db 08       		.uleb128 0x8
 937 01dc 89030000 		.4byte	.LASF61
 938 01e0 D200     		.sleb128 82
 939 01e2 08       		.uleb128 0x8
 940 01e3 CF200000 		.4byte	.LASF62
 941 01e7 D300     		.sleb128 83
 942 01e9 08       		.uleb128 0x8
 943 01ea F8230000 		.4byte	.LASF63
 944 01ee D400     		.sleb128 84
 945 01f0 08       		.uleb128 0x8
 946 01f1 6E020000 		.4byte	.LASF64
 947 01f5 D500     		.sleb128 85
 948 01f7 08       		.uleb128 0x8
 949 01f8 4C1D0000 		.4byte	.LASF65
 950 01fc D600     		.sleb128 86
 951 01fe 08       		.uleb128 0x8
 952 01ff 9C150000 		.4byte	.LASF66
 953 0203 D700     		.sleb128 87
 954 0205 08       		.uleb128 0x8
 955 0206 A5230000 		.4byte	.LASF67
 956 020a D800     		.sleb128 88
 957 020c 08       		.uleb128 0x8
 958 020d F4210000 		.4byte	.LASF68
 959 0211 F000     		.sleb128 112
 960 0213 08       		.uleb128 0x8
 961 0214 700E0000 		.4byte	.LASF69
 962 0218 F100     		.sleb128 113
 963 021a 08       		.uleb128 0x8
 964 021b 21070000 		.4byte	.LASF70
 965 021f F200     		.sleb128 114
 966 0221 08       		.uleb128 0x8
 967 0222 901E0000 		.4byte	.LASF71
 968 0226 F300     		.sleb128 115
 969 0228 08       		.uleb128 0x8
 970 0229 D3180000 		.4byte	.LASF72
 971 022d F400     		.sleb128 116
 972 022f 08       		.uleb128 0x8
 973 0230 75120000 		.4byte	.LASF73
 974 0234 F500     		.sleb128 117
 975 0236 08       		.uleb128 0x8
 976 0237 C9090000 		.4byte	.LASF74
 977 023b F600     		.sleb128 118
 978 023d 08       		.uleb128 0x8
 979 023e 111B0000 		.4byte	.LASF75
 980 0242 F700     		.sleb128 119
 981 0244 08       		.uleb128 0x8
 982 0245 92020000 		.4byte	.LASF76
 983 0249 F800     		.sleb128 120
 984 024b 08       		.uleb128 0x8
 985 024c 67090000 		.4byte	.LASF77
 986 0250 F900     		.sleb128 121
 987 0252 08       		.uleb128 0x8
 988 0253 81230000 		.4byte	.LASF78
 989 0257 FA00     		.sleb128 122
 990 0259 08       		.uleb128 0x8
 991 025a 82140000 		.4byte	.LASF79
 992 025e FA01     		.sleb128 250
ARM GAS  C:\Users\alvin\AppData\Local\Temp\cc0iGj3s.s 			page 55


 993 0260 08       		.uleb128 0x8
 994 0261 72200000 		.4byte	.LASF80
 995 0265 FB01     		.sleb128 251
 996 0267 08       		.uleb128 0x8
 997 0268 8A170000 		.4byte	.LASF81
 998 026c FF01     		.sleb128 255
 999 026e 00       		.byte	0
 1000 026f 07       		.uleb128 0x7
 1001 0270 02       		.byte	0x2
 1002 0271 03       		.byte	0x3
 1003 0272 FF02     		.2byte	0x2ff
 1004 0274 3F030000 		.4byte	0x33f
 1005 0278 08       		.uleb128 0x8
 1006 0279 10080000 		.4byte	.LASF82
 1007 027d 00       		.sleb128 0
 1008 027e 08       		.uleb128 0x8
 1009 027f 0C0D0000 		.4byte	.LASF83
 1010 0283 01       		.sleb128 1
 1011 0284 08       		.uleb128 0x8
 1012 0285 10230000 		.4byte	.LASF84
 1013 0289 02       		.sleb128 2
 1014 028a 08       		.uleb128 0x8
 1015 028b 6A0D0000 		.4byte	.LASF85
 1016 028f 03       		.sleb128 3
 1017 0290 08       		.uleb128 0x8
 1018 0291 6A0F0000 		.4byte	.LASF86
 1019 0295 04       		.sleb128 4
 1020 0296 08       		.uleb128 0x8
 1021 0297 3B140000 		.4byte	.LASF87
 1022 029b 05       		.sleb128 5
 1023 029c 08       		.uleb128 0x8
 1024 029d 25200000 		.4byte	.LASF88
 1025 02a1 06       		.sleb128 6
 1026 02a2 08       		.uleb128 0x8
 1027 02a3 680B0000 		.4byte	.LASF89
 1028 02a7 07       		.sleb128 7
 1029 02a8 08       		.uleb128 0x8
 1030 02a9 53150000 		.4byte	.LASF90
 1031 02ad 08       		.sleb128 8
 1032 02ae 08       		.uleb128 0x8
 1033 02af 701F0000 		.4byte	.LASF91
 1034 02b3 09       		.sleb128 9
 1035 02b4 08       		.uleb128 0x8
 1036 02b5 20240000 		.4byte	.LASF92
 1037 02b9 0A       		.sleb128 10
 1038 02ba 08       		.uleb128 0x8
 1039 02bb D5030000 		.4byte	.LASF93
 1040 02bf 0B       		.sleb128 11
 1041 02c0 08       		.uleb128 0x8
 1042 02c1 FA200000 		.4byte	.LASF94
 1043 02c5 0C       		.sleb128 12
 1044 02c6 08       		.uleb128 0x8
 1045 02c7 14170000 		.4byte	.LASF95
 1046 02cb 0D       		.sleb128 13
 1047 02cc 08       		.uleb128 0x8
 1048 02cd D1100000 		.4byte	.LASF96
 1049 02d1 0E       		.sleb128 14
ARM GAS  C:\Users\alvin\AppData\Local\Temp\cc0iGj3s.s 			page 56


 1050 02d2 08       		.uleb128 0x8
 1051 02d3 16140000 		.4byte	.LASF97
 1052 02d7 0F       		.sleb128 15
 1053 02d8 08       		.uleb128 0x8
 1054 02d9 24020000 		.4byte	.LASF98
 1055 02dd 10       		.sleb128 16
 1056 02de 08       		.uleb128 0x8
 1057 02df 2F150000 		.4byte	.LASF99
 1058 02e3 11       		.sleb128 17
 1059 02e4 08       		.uleb128 0x8
 1060 02e5 32060000 		.4byte	.LASF100
 1061 02e9 12       		.sleb128 18
 1062 02ea 08       		.uleb128 0x8
 1063 02eb 7B070000 		.4byte	.LASF101
 1064 02ef 13       		.sleb128 19
 1065 02f0 08       		.uleb128 0x8
 1066 02f1 60140000 		.4byte	.LASF102
 1067 02f5 27       		.sleb128 39
 1068 02f6 08       		.uleb128 0x8
 1069 02f7 77150000 		.4byte	.LASF103
 1070 02fb 28       		.sleb128 40
 1071 02fc 08       		.uleb128 0x8
 1072 02fd 52020000 		.4byte	.LASF104
 1073 0301 29       		.sleb128 41
 1074 0302 08       		.uleb128 0x8
 1075 0303 CE1D0000 		.4byte	.LASF105
 1076 0307 2A       		.sleb128 42
 1077 0308 08       		.uleb128 0x8
 1078 0309 11100000 		.4byte	.LASF106
 1079 030d 2B       		.sleb128 43
 1080 030e 08       		.uleb128 0x8
 1081 030f 721B0000 		.4byte	.LASF107
 1082 0313 2C       		.sleb128 44
 1083 0314 08       		.uleb128 0x8
 1084 0315 F00C0000 		.4byte	.LASF108
 1085 0319 FE01     		.sleb128 254
 1086 031b 08       		.uleb128 0x8
 1087 031c 600E0000 		.4byte	.LASF109
 1088 0320 FF01     		.sleb128 255
 1089 0322 08       		.uleb128 0x8
 1090 0323 4A180000 		.4byte	.LASF110
 1091 0327 8002     		.sleb128 256
 1092 0329 08       		.uleb128 0x8
 1093 032a 31180000 		.4byte	.LASF111
 1094 032e 8102     		.sleb128 257
 1095 0330 08       		.uleb128 0x8
 1096 0331 D5060000 		.4byte	.LASF112
 1097 0335 8202     		.sleb128 258
 1098 0337 08       		.uleb128 0x8
 1099 0338 CB1A0000 		.4byte	.LASF113
 1100 033c 8302     		.sleb128 259
 1101 033e 00       		.byte	0
 1102 033f 04       		.uleb128 0x4
 1103 0340 91200000 		.4byte	.LASF114
 1104 0344 03       		.byte	0x3
 1105 0345 6B03     		.2byte	0x36b
 1106 0347 6F020000 		.4byte	0x26f
ARM GAS  C:\Users\alvin\AppData\Local\Temp\cc0iGj3s.s 			page 57


 1107 034b 07       		.uleb128 0x7
 1108 034c 01       		.byte	0x1
 1109 034d 03       		.byte	0x3
 1110 034e 9C03     		.2byte	0x39c
 1111 0350 8B030000 		.4byte	0x38b
 1112 0354 08       		.uleb128 0x8
 1113 0355 AF070000 		.4byte	.LASF115
 1114 0359 01       		.sleb128 1
 1115 035a 08       		.uleb128 0x8
 1116 035b 23050000 		.4byte	.LASF116
 1117 035f 02       		.sleb128 2
 1118 0360 08       		.uleb128 0x8
 1119 0361 2F190000 		.4byte	.LASF117
 1120 0365 03       		.sleb128 3
 1121 0366 08       		.uleb128 0x8
 1122 0367 12040000 		.4byte	.LASF118
 1123 036b 04       		.sleb128 4
 1124 036c 08       		.uleb128 0x8
 1125 036d 5B0A0000 		.4byte	.LASF119
 1126 0371 05       		.sleb128 5
 1127 0372 08       		.uleb128 0x8
 1128 0373 F60F0000 		.4byte	.LASF120
 1129 0377 06       		.sleb128 6
 1130 0378 08       		.uleb128 0x8
 1131 0379 3F200000 		.4byte	.LASF121
 1132 037d 07       		.sleb128 7
 1133 037e 08       		.uleb128 0x8
 1134 037f B20F0000 		.4byte	.LASF122
 1135 0383 08       		.sleb128 8
 1136 0384 08       		.uleb128 0x8
 1137 0385 C9140000 		.4byte	.LASF123
 1138 0389 09       		.sleb128 9
 1139 038a 00       		.byte	0
 1140 038b 04       		.uleb128 0x4
 1141 038c E2120000 		.4byte	.LASF124
 1142 0390 03       		.byte	0x3
 1143 0391 B303     		.2byte	0x3b3
 1144 0393 4B030000 		.4byte	0x34b
 1145 0397 07       		.uleb128 0x7
 1146 0398 01       		.byte	0x1
 1147 0399 03       		.byte	0x3
 1148 039a B703     		.2byte	0x3b7
 1149 039c B3030000 		.4byte	0x3b3
 1150 03a0 08       		.uleb128 0x8
 1151 03a1 5D200000 		.4byte	.LASF125
 1152 03a5 00       		.sleb128 0
 1153 03a6 08       		.uleb128 0x8
 1154 03a7 9A160000 		.4byte	.LASF126
 1155 03ab 01       		.sleb128 1
 1156 03ac 08       		.uleb128 0x8
 1157 03ad DF210000 		.4byte	.LASF127
 1158 03b1 02       		.sleb128 2
 1159 03b2 00       		.byte	0
 1160 03b3 04       		.uleb128 0x4
 1161 03b4 1F080000 		.4byte	.LASF128
 1162 03b8 03       		.byte	0x3
 1163 03b9 BE03     		.2byte	0x3be
ARM GAS  C:\Users\alvin\AppData\Local\Temp\cc0iGj3s.s 			page 58


 1164 03bb 97030000 		.4byte	0x397
 1165 03bf 09       		.uleb128 0x9
 1166 03c0 02       		.byte	0x2
 1167 03c1 03       		.byte	0x3
 1168 03c2 C103     		.2byte	0x3c1
 1169 03c4 E3030000 		.4byte	0x3e3
 1170 03c8 0A       		.uleb128 0xa
 1171 03c9 89010000 		.4byte	.LASF129
 1172 03cd 03       		.byte	0x3
 1173 03ce C403     		.2byte	0x3c4
 1174 03d0 8B030000 		.4byte	0x38b
 1175 03d4 00       		.byte	0
 1176 03d5 0A       		.uleb128 0xa
 1177 03d6 17070000 		.4byte	.LASF130
 1178 03da 03       		.byte	0x3
 1179 03db C603     		.2byte	0x3c6
 1180 03dd B3030000 		.4byte	0x3b3
 1181 03e1 01       		.byte	0x1
 1182 03e2 00       		.byte	0
 1183 03e3 04       		.uleb128 0x4
 1184 03e4 C7210000 		.4byte	.LASF131
 1185 03e8 03       		.byte	0x3
 1186 03e9 C703     		.2byte	0x3c7
 1187 03eb BF030000 		.4byte	0x3bf
 1188 03ef 07       		.uleb128 0x7
 1189 03f0 01       		.byte	0x1
 1190 03f1 03       		.byte	0x3
 1191 03f2 E803     		.2byte	0x3e8
 1192 03f4 05040000 		.4byte	0x405
 1193 03f8 08       		.uleb128 0x8
 1194 03f9 091A0000 		.4byte	.LASF132
 1195 03fd 00       		.sleb128 0
 1196 03fe 08       		.uleb128 0x8
 1197 03ff 44100000 		.4byte	.LASF133
 1198 0403 01       		.sleb128 1
 1199 0404 00       		.byte	0
 1200 0405 04       		.uleb128 0x4
 1201 0406 1A220000 		.4byte	.LASF134
 1202 040a 03       		.byte	0x3
 1203 040b EF03     		.2byte	0x3ef
 1204 040d EF030000 		.4byte	0x3ef
 1205 0411 09       		.uleb128 0x9
 1206 0412 08       		.byte	0x8
 1207 0413 03       		.byte	0x3
 1208 0414 F203     		.2byte	0x3f2
 1209 0416 42040000 		.4byte	0x442
 1210 041a 0A       		.uleb128 0xa
 1211 041b C3000000 		.4byte	.LASF135
 1212 041f 03       		.byte	0x3
 1213 0420 F503     		.2byte	0x3f5
 1214 0422 05040000 		.4byte	0x405
 1215 0426 00       		.byte	0
 1216 0427 0A       		.uleb128 0xa
 1217 0428 430F0000 		.4byte	.LASF136
 1218 042c 03       		.byte	0x3
 1219 042d FA03     		.2byte	0x3fa
 1220 042f 6B000000 		.4byte	0x6b
ARM GAS  C:\Users\alvin\AppData\Local\Temp\cc0iGj3s.s 			page 59


 1221 0433 01       		.byte	0x1
 1222 0434 0A       		.uleb128 0xa
 1223 0435 BC090000 		.4byte	.LASF137
 1224 0439 03       		.byte	0x3
 1225 043a 0204     		.2byte	0x402
 1226 043c B0000000 		.4byte	0xb0
 1227 0440 04       		.byte	0x4
 1228 0441 00       		.byte	0
 1229 0442 04       		.uleb128 0x4
 1230 0443 CE130000 		.4byte	.LASF138
 1231 0447 03       		.byte	0x3
 1232 0448 0404     		.2byte	0x404
 1233 044a 11040000 		.4byte	0x411
 1234 044e 09       		.uleb128 0x9
 1235 044f 07       		.byte	0x7
 1236 0450 03       		.byte	0x3
 1237 0451 2804     		.2byte	0x428
 1238 0453 72040000 		.4byte	0x472
 1239 0457 0A       		.uleb128 0xa
 1240 0458 B81F0000 		.4byte	.LASF139
 1241 045c 03       		.byte	0x3
 1242 045d 2B04     		.2byte	0x42b
 1243 045f 72040000 		.4byte	0x472
 1244 0463 00       		.byte	0
 1245 0464 0A       		.uleb128 0xa
 1246 0465 EC020000 		.4byte	.LASF140
 1247 0469 03       		.byte	0x3
 1248 046a 2D04     		.2byte	0x42d
 1249 046c 6B000000 		.4byte	0x6b
 1250 0470 06       		.byte	0x6
 1251 0471 00       		.byte	0
 1252 0472 0B       		.uleb128 0xb
 1253 0473 6B000000 		.4byte	0x6b
 1254 0477 82040000 		.4byte	0x482
 1255 047b 0C       		.uleb128 0xc
 1256 047c A9000000 		.4byte	0xa9
 1257 0480 05       		.byte	0x5
 1258 0481 00       		.byte	0
 1259 0482 04       		.uleb128 0x4
 1260 0483 BC1B0000 		.4byte	.LASF141
 1261 0487 03       		.byte	0x3
 1262 0488 2E04     		.2byte	0x42e
 1263 048a 4E040000 		.4byte	0x44e
 1264 048e 0D       		.uleb128 0xd
 1265 048f 01       		.byte	0x1
 1266 0490 04       		.byte	0x4
 1267 0491 2C       		.byte	0x2c
 1268 0492 AF040000 		.4byte	0x4af
 1269 0496 08       		.uleb128 0x8
 1270 0497 E91B0000 		.4byte	.LASF142
 1271 049b 01       		.sleb128 1
 1272 049c 08       		.uleb128 0x8
 1273 049d 8A1B0000 		.4byte	.LASF143
 1274 04a1 02       		.sleb128 2
 1275 04a2 08       		.uleb128 0x8
 1276 04a3 6F230000 		.4byte	.LASF144
 1277 04a7 03       		.sleb128 3
ARM GAS  C:\Users\alvin\AppData\Local\Temp\cc0iGj3s.s 			page 60


 1278 04a8 08       		.uleb128 0x8
 1279 04a9 431C0000 		.4byte	.LASF145
 1280 04ad 04       		.sleb128 4
 1281 04ae 00       		.byte	0
 1282 04af 0E       		.uleb128 0xe
 1283 04b0 F1020000 		.4byte	.LASF146
 1284 04b4 04       		.byte	0x4
 1285 04b5 39       		.byte	0x39
 1286 04b6 8E040000 		.4byte	0x48e
 1287 04ba 0D       		.uleb128 0xd
 1288 04bb 01       		.byte	0x1
 1289 04bc 05       		.byte	0x5
 1290 04bd F8       		.byte	0xf8
 1291 04be E1040000 		.4byte	0x4e1
 1292 04c2 08       		.uleb128 0x8
 1293 04c3 A5050000 		.4byte	.LASF147
 1294 04c7 00       		.sleb128 0
 1295 04c8 08       		.uleb128 0x8
 1296 04c9 BB050000 		.4byte	.LASF148
 1297 04cd 01       		.sleb128 1
 1298 04ce 08       		.uleb128 0x8
 1299 04cf D1050000 		.4byte	.LASF149
 1300 04d3 02       		.sleb128 2
 1301 04d4 08       		.uleb128 0x8
 1302 04d5 E7050000 		.4byte	.LASF150
 1303 04d9 03       		.sleb128 3
 1304 04da 08       		.uleb128 0x8
 1305 04db 3F0C0000 		.4byte	.LASF151
 1306 04df 0F       		.sleb128 15
 1307 04e0 00       		.byte	0
 1308 04e1 07       		.uleb128 0x7
 1309 04e2 01       		.byte	0x1
 1310 04e3 05       		.byte	0x5
 1311 04e4 1701     		.2byte	0x117
 1312 04e6 09050000 		.4byte	0x509
 1313 04ea 08       		.uleb128 0x8
 1314 04eb F5030000 		.4byte	.LASF152
 1315 04ef 00       		.sleb128 0
 1316 04f0 08       		.uleb128 0x8
 1317 04f1 68210000 		.4byte	.LASF153
 1318 04f5 01       		.sleb128 1
 1319 04f6 08       		.uleb128 0x8
 1320 04f7 C00A0000 		.4byte	.LASF154
 1321 04fb 02       		.sleb128 2
 1322 04fc 08       		.uleb128 0x8
 1323 04fd 1F010000 		.4byte	.LASF155
 1324 0501 03       		.sleb128 3
 1325 0502 08       		.uleb128 0x8
 1326 0503 611E0000 		.4byte	.LASF156
 1327 0507 04       		.sleb128 4
 1328 0508 00       		.byte	0
 1329 0509 04       		.uleb128 0x4
 1330 050a 77010000 		.4byte	.LASF157
 1331 050e 05       		.byte	0x5
 1332 050f 2901     		.2byte	0x129
 1333 0511 E1040000 		.4byte	0x4e1
 1334 0515 07       		.uleb128 0x7
ARM GAS  C:\Users\alvin\AppData\Local\Temp\cc0iGj3s.s 			page 61


 1335 0516 01       		.byte	0x1
 1336 0517 05       		.byte	0x5
 1337 0518 2D01     		.2byte	0x12d
 1338 051a 85050000 		.4byte	0x585
 1339 051e 08       		.uleb128 0x8
 1340 051f 63190000 		.4byte	.LASF158
 1341 0523 00       		.sleb128 0
 1342 0524 08       		.uleb128 0x8
 1343 0525 BE040000 		.4byte	.LASF159
 1344 0529 01       		.sleb128 1
 1345 052a 08       		.uleb128 0x8
 1346 052b DD190000 		.4byte	.LASF160
 1347 052f 02       		.sleb128 2
 1348 0530 08       		.uleb128 0x8
 1349 0531 85100000 		.4byte	.LASF161
 1350 0535 03       		.sleb128 3
 1351 0536 08       		.uleb128 0x8
 1352 0537 A8060000 		.4byte	.LASF162
 1353 053b 04       		.sleb128 4
 1354 053c 08       		.uleb128 0x8
 1355 053d 181C0000 		.4byte	.LASF163
 1356 0541 05       		.sleb128 5
 1357 0542 08       		.uleb128 0x8
 1358 0543 3B130000 		.4byte	.LASF164
 1359 0547 06       		.sleb128 6
 1360 0548 08       		.uleb128 0x8
 1361 0549 5A100000 		.4byte	.LASF165
 1362 054d 07       		.sleb128 7
 1363 054e 08       		.uleb128 0x8
 1364 054f 34030000 		.4byte	.LASF166
 1365 0553 08       		.sleb128 8
 1366 0554 08       		.uleb128 0x8
 1367 0555 4E120000 		.4byte	.LASF167
 1368 0559 09       		.sleb128 9
 1369 055a 08       		.uleb128 0x8
 1370 055b 94090000 		.4byte	.LASF168
 1371 055f 0A       		.sleb128 10
 1372 0560 08       		.uleb128 0x8
 1373 0561 BA120000 		.4byte	.LASF169
 1374 0565 0B       		.sleb128 11
 1375 0566 08       		.uleb128 0x8
 1376 0567 39210000 		.4byte	.LASF170
 1377 056b 0C       		.sleb128 12
 1378 056c 08       		.uleb128 0x8
 1379 056d 3A0D0000 		.4byte	.LASF171
 1380 0571 0D       		.sleb128 13
 1381 0572 08       		.uleb128 0x8
 1382 0573 8F080000 		.4byte	.LASF172
 1383 0577 0E       		.sleb128 14
 1384 0578 08       		.uleb128 0x8
 1385 0579 08030000 		.4byte	.LASF173
 1386 057d 15       		.sleb128 21
 1387 057e 08       		.uleb128 0x8
 1388 057f 960E0000 		.4byte	.LASF174
 1389 0583 18       		.sleb128 24
 1390 0584 00       		.byte	0
 1391 0585 04       		.uleb128 0x4
ARM GAS  C:\Users\alvin\AppData\Local\Temp\cc0iGj3s.s 			page 62


 1392 0586 D2170000 		.4byte	.LASF175
 1393 058a 05       		.byte	0x5
 1394 058b 6C01     		.2byte	0x16c
 1395 058d 15050000 		.4byte	0x515
 1396 0591 07       		.uleb128 0x7
 1397 0592 01       		.byte	0x1
 1398 0593 05       		.byte	0x5
 1399 0594 9A01     		.2byte	0x19a
 1400 0596 B3050000 		.4byte	0x5b3
 1401 059a 08       		.uleb128 0x8
 1402 059b 20130000 		.4byte	.LASF176
 1403 059f 00       		.sleb128 0
 1404 05a0 08       		.uleb128 0x8
 1405 05a1 7F050000 		.4byte	.LASF177
 1406 05a5 01       		.sleb128 1
 1407 05a6 08       		.uleb128 0x8
 1408 05a7 110A0000 		.4byte	.LASF178
 1409 05ab 02       		.sleb128 2
 1410 05ac 08       		.uleb128 0x8
 1411 05ad 840C0000 		.4byte	.LASF179
 1412 05b1 03       		.sleb128 3
 1413 05b2 00       		.byte	0
 1414 05b3 04       		.uleb128 0x4
 1415 05b4 A2220000 		.4byte	.LASF180
 1416 05b8 05       		.byte	0x5
 1417 05b9 A701     		.2byte	0x1a7
 1418 05bb 91050000 		.4byte	0x591
 1419 05bf 09       		.uleb128 0x9
 1420 05c0 05       		.byte	0x5
 1421 05c1 05       		.byte	0x5
 1422 05c2 B901     		.2byte	0x1b9
 1423 05c4 0A060000 		.4byte	0x60a
 1424 05c8 0A       		.uleb128 0xa
 1425 05c9 E5130000 		.4byte	.LASF181
 1426 05cd 05       		.byte	0x5
 1427 05ce C301     		.2byte	0x1c3
 1428 05d0 6B000000 		.4byte	0x6b
 1429 05d4 00       		.byte	0
 1430 05d5 0A       		.uleb128 0xa
 1431 05d6 01160000 		.4byte	.LASF182
 1432 05da 05       		.byte	0x5
 1433 05db C901     		.2byte	0x1c9
 1434 05dd 6B000000 		.4byte	0x6b
 1435 05e1 01       		.byte	0x1
 1436 05e2 0A       		.uleb128 0xa
 1437 05e3 36000000 		.4byte	.LASF183
 1438 05e7 05       		.byte	0x5
 1439 05e8 D001     		.2byte	0x1d0
 1440 05ea 6B000000 		.4byte	0x6b
 1441 05ee 02       		.byte	0x2
 1442 05ef 0A       		.uleb128 0xa
 1443 05f0 C61D0000 		.4byte	.LASF184
 1444 05f4 05       		.byte	0x5
 1445 05f5 D401     		.2byte	0x1d4
 1446 05f7 85050000 		.4byte	0x585
 1447 05fb 03       		.byte	0x3
 1448 05fc 0A       		.uleb128 0xa
ARM GAS  C:\Users\alvin\AppData\Local\Temp\cc0iGj3s.s 			page 63


 1449 05fd D81C0000 		.4byte	.LASF185
 1450 0601 05       		.byte	0x5
 1451 0602 DE01     		.2byte	0x1de
 1452 0604 6B000000 		.4byte	0x6b
 1453 0608 04       		.byte	0x4
 1454 0609 00       		.byte	0
 1455 060a 04       		.uleb128 0x4
 1456 060b AA0A0000 		.4byte	.LASF186
 1457 060f 05       		.byte	0x5
 1458 0610 E001     		.2byte	0x1e0
 1459 0612 BF050000 		.4byte	0x5bf
 1460 0616 0B       		.uleb128 0xb
 1461 0617 6B000000 		.4byte	0x6b
 1462 061b 26060000 		.4byte	0x626
 1463 061f 0C       		.uleb128 0xc
 1464 0620 A9000000 		.4byte	0xa9
 1465 0624 09       		.byte	0x9
 1466 0625 00       		.byte	0
 1467 0626 0F       		.uleb128 0xf
 1468 0627 04       		.byte	0x4
 1469 0628 6B000000 		.4byte	0x6b
 1470 062c 09       		.uleb128 0x9
 1471 062d 08       		.byte	0x8
 1472 062e 05       		.byte	0x5
 1473 062f 5A03     		.2byte	0x35a
 1474 0631 6A060000 		.4byte	0x66a
 1475 0635 0A       		.uleb128 0xa
 1476 0636 EF0F0000 		.4byte	.LASF187
 1477 063a 05       		.byte	0x5
 1478 063b 5E03     		.2byte	0x35e
 1479 063d 6B000000 		.4byte	0x6b
 1480 0641 00       		.byte	0
 1481 0642 0A       		.uleb128 0xa
 1482 0643 5A220000 		.4byte	.LASF188
 1483 0647 05       		.byte	0x5
 1484 0648 6403     		.2byte	0x364
 1485 064a 77000000 		.4byte	0x77
 1486 064e 02       		.byte	0x2
 1487 064f 0A       		.uleb128 0xa
 1488 0650 2D210000 		.4byte	.LASF189
 1489 0654 05       		.byte	0x5
 1490 0655 6903     		.2byte	0x369
 1491 0657 77000000 		.4byte	0x77
 1492 065b 04       		.byte	0x4
 1493 065c 0A       		.uleb128 0xa
 1494 065d 61230000 		.4byte	.LASF190
 1495 0661 05       		.byte	0x5
 1496 0662 6F03     		.2byte	0x36f
 1497 0664 77000000 		.4byte	0x77
 1498 0668 06       		.byte	0x6
 1499 0669 00       		.byte	0
 1500 066a 04       		.uleb128 0x4
 1501 066b 261A0000 		.4byte	.LASF191
 1502 066f 05       		.byte	0x5
 1503 0670 7103     		.2byte	0x371
 1504 0672 2C060000 		.4byte	0x62c
 1505 0676 09       		.uleb128 0x9
ARM GAS  C:\Users\alvin\AppData\Local\Temp\cc0iGj3s.s 			page 64


 1506 0677 1C       		.byte	0x1c
 1507 0678 05       		.byte	0x5
 1508 0679 FC03     		.2byte	0x3fc
 1509 067b 02070000 		.4byte	0x702
 1510 067f 0A       		.uleb128 0xa
 1511 0680 5A220000 		.4byte	.LASF188
 1512 0684 05       		.byte	0x5
 1513 0685 0204     		.2byte	0x402
 1514 0687 77000000 		.4byte	0x77
 1515 068b 00       		.byte	0
 1516 068c 0A       		.uleb128 0xa
 1517 068d 2D210000 		.4byte	.LASF189
 1518 0691 05       		.byte	0x5
 1519 0692 0704     		.2byte	0x407
 1520 0694 77000000 		.4byte	0x77
 1521 0698 02       		.byte	0x2
 1522 0699 0A       		.uleb128 0xa
 1523 069a C8230000 		.4byte	.LASF192
 1524 069e 05       		.byte	0x5
 1525 069f 0D04     		.2byte	0x40d
 1526 06a1 77000000 		.4byte	0x77
 1527 06a5 04       		.byte	0x4
 1528 06a6 0A       		.uleb128 0xa
 1529 06a7 3B080000 		.4byte	.LASF193
 1530 06ab 05       		.byte	0x5
 1531 06ac 1004     		.2byte	0x410
 1532 06ae 26060000 		.4byte	0x626
 1533 06b2 08       		.byte	0x8
 1534 06b3 0A       		.uleb128 0xa
 1535 06b4 FB160000 		.4byte	.LASF194
 1536 06b8 05       		.byte	0x5
 1537 06b9 1304     		.2byte	0x413
 1538 06bb B3050000 		.4byte	0x5b3
 1539 06bf 0C       		.byte	0xc
 1540 06c0 0A       		.uleb128 0xa
 1541 06c1 0C050000 		.4byte	.LASF195
 1542 06c5 05       		.byte	0x5
 1543 06c6 1D04     		.2byte	0x41d
 1544 06c8 26060000 		.4byte	0x626
 1545 06cc 10       		.byte	0x10
 1546 06cd 0A       		.uleb128 0xa
 1547 06ce 9A1A0000 		.4byte	.LASF196
 1548 06d2 05       		.byte	0x5
 1549 06d3 2604     		.2byte	0x426
 1550 06d5 26060000 		.4byte	0x626
 1551 06d9 14       		.byte	0x14
 1552 06da 0A       		.uleb128 0xa
 1553 06db 9D220000 		.4byte	.LASF197
 1554 06df 05       		.byte	0x5
 1555 06e0 2C04     		.2byte	0x42c
 1556 06e2 6B000000 		.4byte	0x6b
 1557 06e6 18       		.byte	0x18
 1558 06e7 0A       		.uleb128 0xa
 1559 06e8 BD0E0000 		.4byte	.LASF198
 1560 06ec 05       		.byte	0x5
 1561 06ed 3804     		.2byte	0x438
 1562 06ef 6B000000 		.4byte	0x6b
ARM GAS  C:\Users\alvin\AppData\Local\Temp\cc0iGj3s.s 			page 65


 1563 06f3 19       		.byte	0x19
 1564 06f4 0A       		.uleb128 0xa
 1565 06f5 EF0F0000 		.4byte	.LASF187
 1566 06f9 05       		.byte	0x5
 1567 06fa 3E04     		.2byte	0x43e
 1568 06fc 6B000000 		.4byte	0x6b
 1569 0700 1A       		.byte	0x1a
 1570 0701 00       		.byte	0
 1571 0702 04       		.uleb128 0x4
 1572 0703 46080000 		.4byte	.LASF199
 1573 0707 05       		.byte	0x5
 1574 0708 4004     		.2byte	0x440
 1575 070a 76060000 		.4byte	0x676
 1576 070e 0D       		.uleb128 0xd
 1577 070f 01       		.byte	0x1
 1578 0710 06       		.byte	0x6
 1579 0711 4F       		.byte	0x4f
 1580 0712 C8070000 		.4byte	0x7c8
 1581 0716 08       		.uleb128 0x8
 1582 0717 DB0C0000 		.4byte	.LASF200
 1583 071b 01       		.sleb128 1
 1584 071c 08       		.uleb128 0x8
 1585 071d 4F0B0000 		.4byte	.LASF201
 1586 0721 02       		.sleb128 2
 1587 0722 08       		.uleb128 0x8
 1588 0723 3F050000 		.4byte	.LASF202
 1589 0727 03       		.sleb128 3
 1590 0728 08       		.uleb128 0x8
 1591 0729 CB070000 		.4byte	.LASF203
 1592 072d 04       		.sleb128 4
 1593 072e 08       		.uleb128 0x8
 1594 072f C4190000 		.4byte	.LASF204
 1595 0733 05       		.sleb128 5
 1596 0734 08       		.uleb128 0x8
 1597 0735 0D190000 		.4byte	.LASF205
 1598 0739 06       		.sleb128 6
 1599 073a 08       		.uleb128 0x8
 1600 073b FD050000 		.4byte	.LASF206
 1601 073f 07       		.sleb128 7
 1602 0740 08       		.uleb128 0x8
 1603 0741 B7180000 		.4byte	.LASF207
 1604 0745 08       		.sleb128 8
 1605 0746 08       		.uleb128 0x8
 1606 0747 5C030000 		.4byte	.LASF208
 1607 074b 09       		.sleb128 9
 1608 074c 08       		.uleb128 0x8
 1609 074d DB0F0000 		.4byte	.LASF209
 1610 0751 0A       		.sleb128 10
 1611 0752 08       		.uleb128 0x8
 1612 0753 07200000 		.4byte	.LASF210
 1613 0757 0B       		.sleb128 11
 1614 0758 08       		.uleb128 0x8
 1615 0759 D01B0000 		.4byte	.LASF211
 1616 075d 0C       		.sleb128 12
 1617 075e 08       		.uleb128 0x8
 1618 075f 3D070000 		.4byte	.LASF212
 1619 0763 0D       		.sleb128 13
ARM GAS  C:\Users\alvin\AppData\Local\Temp\cc0iGj3s.s 			page 66


 1620 0764 08       		.uleb128 0x8
 1621 0765 63180000 		.4byte	.LASF213
 1622 0769 0E       		.sleb128 14
 1623 076a 08       		.uleb128 0x8
 1624 076b CF020000 		.4byte	.LASF214
 1625 076f 0F       		.sleb128 15
 1626 0770 08       		.uleb128 0x8
 1627 0771 ED220000 		.4byte	.LASF215
 1628 0775 10       		.sleb128 16
 1629 0776 08       		.uleb128 0x8
 1630 0777 4D0F0000 		.4byte	.LASF216
 1631 077b 11       		.sleb128 17
 1632 077c 08       		.uleb128 0x8
 1633 077d A71D0000 		.4byte	.LASF217
 1634 0781 12       		.sleb128 18
 1635 0782 08       		.uleb128 0x8
 1636 0783 760A0000 		.4byte	.LASF218
 1637 0787 13       		.sleb128 19
 1638 0788 08       		.uleb128 0x8
 1639 0789 5B010000 		.4byte	.LASF219
 1640 078d D200     		.sleb128 82
 1641 078f 08       		.uleb128 0x8
 1642 0790 E1010000 		.4byte	.LASF220
 1643 0794 16       		.sleb128 22
 1644 0795 08       		.uleb128 0x8
 1645 0796 39170000 		.4byte	.LASF221
 1646 079a 17       		.sleb128 23
 1647 079b 08       		.uleb128 0x8
 1648 079c AA210000 		.4byte	.LASF222
 1649 07a0 18       		.sleb128 24
 1650 07a1 08       		.uleb128 0x8
 1651 07a2 430E0000 		.4byte	.LASF223
 1652 07a6 19       		.sleb128 25
 1653 07a7 08       		.uleb128 0x8
 1654 07a8 B5100000 		.4byte	.LASF224
 1655 07ac 1B       		.sleb128 27
 1656 07ad 08       		.uleb128 0x8
 1657 07ae 24090000 		.4byte	.LASF225
 1658 07b2 1D       		.sleb128 29
 1659 07b3 08       		.uleb128 0x8
 1660 07b4 3F000000 		.4byte	.LASF226
 1661 07b8 1E       		.sleb128 30
 1662 07b9 08       		.uleb128 0x8
 1663 07ba E20D0000 		.4byte	.LASF227
 1664 07be D201     		.sleb128 210
 1665 07c0 08       		.uleb128 0x8
 1666 07c1 B01A0000 		.4byte	.LASF228
 1667 07c5 FF01     		.sleb128 255
 1668 07c7 00       		.byte	0
 1669 07c8 0D       		.uleb128 0xd
 1670 07c9 01       		.byte	0x1
 1671 07ca 06       		.byte	0x6
 1672 07cb AB       		.byte	0xab
 1673 07cc C9080000 		.4byte	0x8c9
 1674 07d0 08       		.uleb128 0x8
 1675 07d1 301B0000 		.4byte	.LASF229
 1676 07d5 00       		.sleb128 0
ARM GAS  C:\Users\alvin\AppData\Local\Temp\cc0iGj3s.s 			page 67


 1677 07d6 08       		.uleb128 0x8
 1678 07d7 6A1A0000 		.4byte	.LASF230
 1679 07db 01       		.sleb128 1
 1680 07dc 08       		.uleb128 0x8
 1681 07dd 9A010000 		.4byte	.LASF231
 1682 07e1 02       		.sleb128 2
 1683 07e2 08       		.uleb128 0x8
 1684 07e3 37220000 		.4byte	.LASF232
 1685 07e7 03       		.sleb128 3
 1686 07e8 08       		.uleb128 0x8
 1687 07e9 8D060000 		.4byte	.LASF233
 1688 07ed 04       		.sleb128 4
 1689 07ee 08       		.uleb128 0x8
 1690 07ef 53160000 		.4byte	.LASF234
 1691 07f3 05       		.sleb128 5
 1692 07f4 08       		.uleb128 0x8
 1693 07f5 221E0000 		.4byte	.LASF235
 1694 07f9 06       		.sleb128 6
 1695 07fa 08       		.uleb128 0x8
 1696 07fb 99180000 		.4byte	.LASF236
 1697 07ff 07       		.sleb128 7
 1698 0800 08       		.uleb128 0x8
 1699 0801 CC150000 		.4byte	.LASF237
 1700 0805 08       		.sleb128 8
 1701 0806 08       		.uleb128 0x8
 1702 0807 EE130000 		.4byte	.LASF238
 1703 080b 09       		.sleb128 9
 1704 080c 08       		.uleb128 0x8
 1705 080d 67170000 		.4byte	.LASF239
 1706 0811 0A       		.sleb128 10
 1707 0812 08       		.uleb128 0x8
 1708 0813 1D0C0000 		.4byte	.LASF240
 1709 0817 0B       		.sleb128 11
 1710 0818 08       		.uleb128 0x8
 1711 0819 A0140000 		.4byte	.LASF241
 1712 081d 0C       		.sleb128 12
 1713 081e 08       		.uleb128 0x8
 1714 081f 56070000 		.4byte	.LASF242
 1715 0823 0D       		.sleb128 13
 1716 0824 08       		.uleb128 0x8
 1717 0825 100B0000 		.4byte	.LASF243
 1718 0829 0E       		.sleb128 14
 1719 082a 08       		.uleb128 0x8
 1720 082b 76220000 		.4byte	.LASF244
 1721 082f 0F       		.sleb128 15
 1722 0830 08       		.uleb128 0x8
 1723 0831 FE010000 		.4byte	.LASF245
 1724 0835 10       		.sleb128 16
 1725 0836 08       		.uleb128 0x8
 1726 0837 BC010000 		.4byte	.LASF246
 1727 083b 11       		.sleb128 17
 1728 083c 08       		.uleb128 0x8
 1729 083d E70B0000 		.4byte	.LASF247
 1730 0841 8001     		.sleb128 128
 1731 0843 08       		.uleb128 0x8
 1732 0844 DF0E0000 		.4byte	.LASF248
 1733 0848 8001     		.sleb128 128
ARM GAS  C:\Users\alvin\AppData\Local\Temp\cc0iGj3s.s 			page 68


 1734 084a 08       		.uleb128 0x8
 1735 084b EB1D0000 		.4byte	.LASF249
 1736 084f 8001     		.sleb128 128
 1737 0851 08       		.uleb128 0x8
 1738 0852 9C1B0000 		.4byte	.LASF250
 1739 0856 8001     		.sleb128 128
 1740 0858 08       		.uleb128 0x8
 1741 0859 CD160000 		.4byte	.LASF251
 1742 085d 8001     		.sleb128 128
 1743 085f 08       		.uleb128 0x8
 1744 0860 8D0F0000 		.4byte	.LASF252
 1745 0864 8001     		.sleb128 128
 1746 0866 08       		.uleb128 0x8
 1747 0867 F50A0000 		.4byte	.LASF253
 1748 086b 8001     		.sleb128 128
 1749 086d 08       		.uleb128 0x8
 1750 086e FE0D0000 		.4byte	.LASF254
 1751 0872 8101     		.sleb128 129
 1752 0874 08       		.uleb128 0x8
 1753 0875 AB1C0000 		.4byte	.LASF255
 1754 0879 8101     		.sleb128 129
 1755 087b 08       		.uleb128 0x8
 1756 087c 12000000 		.4byte	.LASF256
 1757 0880 8101     		.sleb128 129
 1758 0882 08       		.uleb128 0x8
 1759 0883 69060000 		.4byte	.LASF257
 1760 0887 8101     		.sleb128 129
 1761 0889 08       		.uleb128 0x8
 1762 088a 98040000 		.4byte	.LASF258
 1763 088e 8201     		.sleb128 130
 1764 0890 08       		.uleb128 0x8
 1765 0891 BF1F0000 		.4byte	.LASF259
 1766 0895 A001     		.sleb128 160
 1767 0897 08       		.uleb128 0x8
 1768 0898 88110000 		.4byte	.LASF260
 1769 089c A001     		.sleb128 160
 1770 089e 08       		.uleb128 0x8
 1771 089f E8040000 		.4byte	.LASF261
 1772 08a3 A101     		.sleb128 161
 1773 08a5 08       		.uleb128 0x8
 1774 08a6 4A1F0000 		.4byte	.LASF262
 1775 08aa A201     		.sleb128 162
 1776 08ac 08       		.uleb128 0x8
 1777 08ad A80C0000 		.4byte	.LASF263
 1778 08b1 A301     		.sleb128 163
 1779 08b3 08       		.uleb128 0x8
 1780 08b4 CB000000 		.4byte	.LASF264
 1781 08b8 FD01     		.sleb128 253
 1782 08ba 08       		.uleb128 0x8
 1783 08bb DE140000 		.4byte	.LASF265
 1784 08bf FE01     		.sleb128 254
 1785 08c1 08       		.uleb128 0x8
 1786 08c2 F1180000 		.4byte	.LASF266
 1787 08c6 FF01     		.sleb128 255
 1788 08c8 00       		.byte	0
 1789 08c9 04       		.uleb128 0x4
 1790 08ca F11E0000 		.4byte	.LASF267
ARM GAS  C:\Users\alvin\AppData\Local\Temp\cc0iGj3s.s 			page 69


 1791 08ce 06       		.byte	0x6
 1792 08cf 6201     		.2byte	0x162
 1793 08d1 C8070000 		.4byte	0x7c8
 1794 08d5 04       		.uleb128 0x4
 1795 08d6 E51A0000 		.4byte	.LASF268
 1796 08da 06       		.byte	0x6
 1797 08db 9201     		.2byte	0x192
 1798 08dd 77000000 		.4byte	0x77
 1799 08e1 09       		.uleb128 0x9
 1800 08e2 02       		.byte	0x2
 1801 08e3 06       		.byte	0x6
 1802 08e4 9C01     		.2byte	0x19c
 1803 08e6 05090000 		.4byte	0x905
 1804 08ea 0A       		.uleb128 0xa
 1805 08eb 8F040000 		.4byte	.LASF269
 1806 08ef 06       		.byte	0x6
 1807 08f0 A301     		.2byte	0x1a3
 1808 08f2 6B000000 		.4byte	0x6b
 1809 08f6 00       		.byte	0
 1810 08f7 0A       		.uleb128 0xa
 1811 08f8 0A230000 		.4byte	.LASF270
 1812 08fc 06       		.byte	0x6
 1813 08fd A901     		.2byte	0x1a9
 1814 08ff 6B000000 		.4byte	0x6b
 1815 0903 01       		.byte	0x1
 1816 0904 00       		.byte	0
 1817 0905 04       		.uleb128 0x4
 1818 0906 C1030000 		.4byte	.LASF271
 1819 090a 06       		.byte	0x6
 1820 090b AB01     		.2byte	0x1ab
 1821 090d E1080000 		.4byte	0x8e1
 1822 0911 09       		.uleb128 0x9
 1823 0912 08       		.byte	0x8
 1824 0913 06       		.byte	0x6
 1825 0914 C701     		.2byte	0x1c7
 1826 0916 42090000 		.4byte	0x942
 1827 091a 10       		.uleb128 0x10
 1828 091b 76616C00 		.ascii	"val\000"
 1829 091f 06       		.byte	0x6
 1830 0920 CA01     		.2byte	0x1ca
 1831 0922 26060000 		.4byte	0x626
 1832 0926 00       		.byte	0
 1833 0927 10       		.uleb128 0x10
 1834 0928 6C656E00 		.ascii	"len\000"
 1835 092c 06       		.byte	0x6
 1836 092d CD01     		.2byte	0x1cd
 1837 092f 77000000 		.4byte	0x77
 1838 0933 04       		.byte	0x4
 1839 0934 0A       		.uleb128 0xa
 1840 0935 D2220000 		.4byte	.LASF272
 1841 0939 06       		.byte	0x6
 1842 093a D401     		.2byte	0x1d4
 1843 093c 77000000 		.4byte	0x77
 1844 0940 06       		.byte	0x6
 1845 0941 00       		.byte	0
 1846 0942 04       		.uleb128 0x4
 1847 0943 B5020000 		.4byte	.LASF273
ARM GAS  C:\Users\alvin\AppData\Local\Temp\cc0iGj3s.s 			page 70


 1848 0947 06       		.byte	0x6
 1849 0948 D601     		.2byte	0x1d6
 1850 094a 11090000 		.4byte	0x911
 1851 094e 09       		.uleb128 0x9
 1852 094f 0C       		.byte	0xc
 1853 0950 06       		.byte	0x6
 1854 0951 D901     		.2byte	0x1d9
 1855 0953 72090000 		.4byte	0x972
 1856 0957 0A       		.uleb128 0xa
 1857 0958 441B0000 		.4byte	.LASF274
 1858 095c 06       		.byte	0x6
 1859 095d DC01     		.2byte	0x1dc
 1860 095f 42090000 		.4byte	0x942
 1861 0963 00       		.byte	0
 1862 0964 0A       		.uleb128 0xa
 1863 0965 F6150000 		.4byte	.LASF275
 1864 0969 06       		.byte	0x6
 1865 096a DF01     		.2byte	0x1df
 1866 096c D5080000 		.4byte	0x8d5
 1867 0970 08       		.byte	0x8
 1868 0971 00       		.byte	0
 1869 0972 04       		.uleb128 0x4
 1870 0973 F8060000 		.4byte	.LASF276
 1871 0977 06       		.byte	0x6
 1872 0978 E101     		.2byte	0x1e1
 1873 097a 4E090000 		.4byte	0x94e
 1874 097e 09       		.uleb128 0x9
 1875 097f 04       		.byte	0x4
 1876 0980 06       		.byte	0x6
 1877 0981 EF01     		.2byte	0x1ef
 1878 0983 A2090000 		.4byte	0x9a2
 1879 0987 0A       		.uleb128 0xa
 1880 0988 0D1C0000 		.4byte	.LASF277
 1881 098c 06       		.byte	0x6
 1882 098d F201     		.2byte	0x1f2
 1883 098f 05090000 		.4byte	0x905
 1884 0993 00       		.byte	0
 1885 0994 10       		.uleb128 0x10
 1886 0995 6D747500 		.ascii	"mtu\000"
 1887 0999 06       		.byte	0x6
 1888 099a F501     		.2byte	0x1f5
 1889 099c 77000000 		.4byte	0x77
 1890 09a0 02       		.byte	0x2
 1891 09a1 00       		.byte	0
 1892 09a2 04       		.uleb128 0x4
 1893 09a3 7E160000 		.4byte	.LASF278
 1894 09a7 06       		.byte	0x6
 1895 09a8 F701     		.2byte	0x1f7
 1896 09aa 7E090000 		.4byte	0x97e
 1897 09ae 09       		.uleb128 0x9
 1898 09af 08       		.byte	0x8
 1899 09b0 06       		.byte	0x6
 1900 09b1 0502     		.2byte	0x205
 1901 09b3 DF090000 		.4byte	0x9df
 1902 09b7 0A       		.uleb128 0xa
 1903 09b8 9A190000 		.4byte	.LASF279
 1904 09bc 06       		.byte	0x6
ARM GAS  C:\Users\alvin\AppData\Local\Temp\cc0iGj3s.s 			page 71


 1905 09bd 0A02     		.2byte	0x20a
 1906 09bf 26060000 		.4byte	0x626
 1907 09c3 00       		.byte	0
 1908 09c4 0A       		.uleb128 0xa
 1909 09c5 4A1B0000 		.4byte	.LASF280
 1910 09c9 06       		.byte	0x6
 1911 09ca 0F02     		.2byte	0x20f
 1912 09cc 77000000 		.4byte	0x77
 1913 09d0 04       		.byte	0x4
 1914 09d1 0A       		.uleb128 0xa
 1915 09d2 8F0D0000 		.4byte	.LASF281
 1916 09d6 06       		.byte	0x6
 1917 09d7 1602     		.2byte	0x216
 1918 09d9 77000000 		.4byte	0x77
 1919 09dd 06       		.byte	0x6
 1920 09de 00       		.byte	0
 1921 09df 04       		.uleb128 0x4
 1922 09e0 AC110000 		.4byte	.LASF282
 1923 09e4 06       		.byte	0x6
 1924 09e5 1802     		.2byte	0x218
 1925 09e7 AE090000 		.4byte	0x9ae
 1926 09eb 11       		.uleb128 0x11
 1927 09ec 04       		.byte	0x4
 1928 09ed 07       		.byte	0x7
 1929 09ee 3A       		.byte	0x3a
 1930 09ef 180A0000 		.4byte	0xa18
 1931 09f3 12       		.uleb128 0x12
 1932 09f4 F6150000 		.4byte	.LASF275
 1933 09f8 07       		.byte	0x7
 1934 09f9 3D       		.byte	0x3d
 1935 09fa D5080000 		.4byte	0x8d5
 1936 09fe 00       		.byte	0
 1937 09ff 12       		.uleb128 0x12
 1938 0a00 C5150000 		.4byte	.LASF283
 1939 0a04 07       		.byte	0x7
 1940 0a05 43       		.byte	0x43
 1941 0a06 6B000000 		.4byte	0x6b
 1942 0a0a 02       		.byte	0x2
 1943 0a0b 12       		.uleb128 0x12
 1944 0a0c 8A090000 		.4byte	.LASF284
 1945 0a10 07       		.byte	0x7
 1946 0a11 46       		.byte	0x46
 1947 0a12 C9080000 		.4byte	0x8c9
 1948 0a16 03       		.byte	0x3
 1949 0a17 00       		.byte	0
 1950 0a18 0E       		.uleb128 0xe
 1951 0a19 E0080000 		.4byte	.LASF285
 1952 0a1d 07       		.byte	0x7
 1953 0a1e 48       		.byte	0x48
 1954 0a1f EB090000 		.4byte	0x9eb
 1955 0a23 11       		.uleb128 0x11
 1956 0a24 10       		.byte	0x10
 1957 0a25 07       		.byte	0x7
 1958 0a26 8A       		.byte	0x8a
 1959 0a27 440A0000 		.4byte	0xa44
 1960 0a2b 12       		.uleb128 0x12
 1961 0a2c 0D1C0000 		.4byte	.LASF277
ARM GAS  C:\Users\alvin\AppData\Local\Temp\cc0iGj3s.s 			page 72


 1962 0a30 07       		.byte	0x7
 1963 0a31 8D       		.byte	0x8d
 1964 0a32 05090000 		.4byte	0x905
 1965 0a36 00       		.byte	0
 1966 0a37 12       		.uleb128 0x12
 1967 0a38 FF1B0000 		.4byte	.LASF286
 1968 0a3c 07       		.byte	0x7
 1969 0a3d 90       		.byte	0x90
 1970 0a3e 72090000 		.4byte	0x972
 1971 0a42 04       		.byte	0x4
 1972 0a43 00       		.byte	0
 1973 0a44 0E       		.uleb128 0xe
 1974 0a45 09160000 		.4byte	.LASF287
 1975 0a49 07       		.byte	0x7
 1976 0a4a 92       		.byte	0x92
 1977 0a4b 230A0000 		.4byte	0xa23
 1978 0a4f 04       		.uleb128 0x4
 1979 0a50 78030000 		.4byte	.LASF288
 1980 0a54 08       		.byte	0x8
 1981 0a55 E601     		.2byte	0x1e6
 1982 0a57 5B0A0000 		.4byte	0xa5b
 1983 0a5b 0F       		.uleb128 0xf
 1984 0a5c 04       		.byte	0x4
 1985 0a5d 610A0000 		.4byte	0xa61
 1986 0a61 13       		.uleb128 0x13
 1987 0a62 710A0000 		.4byte	0xa71
 1988 0a66 14       		.uleb128 0x14
 1989 0a67 83000000 		.4byte	0x83
 1990 0a6b 14       		.uleb128 0x14
 1991 0a6c B0000000 		.4byte	0xb0
 1992 0a70 00       		.byte	0
 1993 0a71 15       		.uleb128 0x15
 1994 0a72 AD02     		.2byte	0x2ad
 1995 0a74 09       		.byte	0x9
 1996 0a75 9C       		.byte	0x9c
 1997 0a76 AE0A0000 		.4byte	0xaae
 1998 0a7a 12       		.uleb128 0x12
 1999 0a7b D10E0000 		.4byte	.LASF289
 2000 0a7f 09       		.byte	0x9
 2001 0a80 9F       		.byte	0x9f
 2002 0a81 AE0A0000 		.4byte	0xaae
 2003 0a85 00       		.byte	0
 2004 0a86 16       		.uleb128 0x16
 2005 0a87 BF0D0000 		.4byte	.LASF290
 2006 0a8b 09       		.byte	0x9
 2007 0a8c A2       		.byte	0xa2
 2008 0a8d BF0A0000 		.4byte	0xabf
 2009 0a91 7902     		.2byte	0x279
 2010 0a93 16       		.uleb128 0x16
 2011 0a94 D80D0000 		.4byte	.LASF291
 2012 0a98 09       		.byte	0x9
 2013 0a99 A5       		.byte	0xa5
 2014 0a9a 6B000000 		.4byte	0x6b
 2015 0a9e AB02     		.2byte	0x2ab
 2016 0aa0 16       		.uleb128 0x16
 2017 0aa1 2A0D0000 		.4byte	.LASF292
 2018 0aa5 09       		.byte	0x9
ARM GAS  C:\Users\alvin\AppData\Local\Temp\cc0iGj3s.s 			page 73


 2019 0aa6 A8       		.byte	0xa8
 2020 0aa7 6B000000 		.4byte	0x6b
 2021 0aab AC02     		.2byte	0x2ac
 2022 0aad 00       		.byte	0
 2023 0aae 0B       		.uleb128 0xb
 2024 0aaf 6B000000 		.4byte	0x6b
 2025 0ab3 BF0A0000 		.4byte	0xabf
 2026 0ab7 17       		.uleb128 0x17
 2027 0ab8 A9000000 		.4byte	0xa9
 2028 0abc 7802     		.2byte	0x278
 2029 0abe 00       		.byte	0
 2030 0abf 0B       		.uleb128 0xb
 2031 0ac0 6B000000 		.4byte	0x6b
 2032 0ac4 D50A0000 		.4byte	0xad5
 2033 0ac8 0C       		.uleb128 0xc
 2034 0ac9 A9000000 		.4byte	0xa9
 2035 0acd 04       		.byte	0x4
 2036 0ace 0C       		.uleb128 0xc
 2037 0acf A9000000 		.4byte	0xa9
 2038 0ad3 09       		.byte	0x9
 2039 0ad4 00       		.byte	0
 2040 0ad5 0E       		.uleb128 0xe
 2041 0ad6 F8120000 		.4byte	.LASF293
 2042 0ada 09       		.byte	0x9
 2043 0adb A9       		.byte	0xa9
 2044 0adc 710A0000 		.4byte	0xa71
 2045 0ae0 07       		.uleb128 0x7
 2046 0ae1 01       		.byte	0x1
 2047 0ae2 0A       		.byte	0xa
 2048 0ae3 BF07     		.2byte	0x7bf
 2049 0ae5 080B0000 		.4byte	0xb08
 2050 0ae9 08       		.uleb128 0x8
 2051 0aea CC080000 		.4byte	.LASF294
 2052 0aee 00       		.sleb128 0
 2053 0aef 08       		.uleb128 0x8
 2054 0af0 27120000 		.4byte	.LASF295
 2055 0af4 01       		.sleb128 1
 2056 0af5 08       		.uleb128 0x8
 2057 0af6 BC220000 		.4byte	.LASF296
 2058 0afa 02       		.sleb128 2
 2059 0afb 08       		.uleb128 0x8
 2060 0afc 3A040000 		.4byte	.LASF297
 2061 0b00 03       		.sleb128 3
 2062 0b01 08       		.uleb128 0x8
 2063 0b02 041D0000 		.4byte	.LASF298
 2064 0b06 04       		.sleb128 4
 2065 0b07 00       		.byte	0
 2066 0b08 04       		.uleb128 0x4
 2067 0b09 821E0000 		.4byte	.LASF299
 2068 0b0d 0A       		.byte	0xa
 2069 0b0e CD07     		.2byte	0x7cd
 2070 0b10 E00A0000 		.4byte	0xae0
 2071 0b14 18       		.uleb128 0x18
 2072 0b15 AD130000 		.4byte	.LASF341
 2073 0b19 01       		.byte	0x1
 2074 0b1a F004     		.2byte	0x4f0
 2075 0b1c 00000000 		.4byte	.LFB4
ARM GAS  C:\Users\alvin\AppData\Local\Temp\cc0iGj3s.s 			page 74


 2076 0b20 10000000 		.4byte	.LFE4-.LFB4
 2077 0b24 01       		.uleb128 0x1
 2078 0b25 9C       		.byte	0x9c
 2079 0b26 19       		.uleb128 0x19
 2080 0b27 AD000000 		.4byte	.LASF342
 2081 0b2b 01       		.byte	0x1
 2082 0b2c E8       		.byte	0xe8
 2083 0b2d 00000000 		.4byte	.LFB2
 2084 0b31 38000000 		.4byte	.LFE2-.LFB2
 2085 0b35 01       		.uleb128 0x1
 2086 0b36 9C       		.byte	0x9c
 2087 0b37 A40B0000 		.4byte	0xba4
 2088 0b3b 1A       		.uleb128 0x1a
 2089 0b3c F5000000 		.4byte	.LASF302
 2090 0b40 01       		.byte	0x1
 2091 0b41 E8       		.byte	0xe8
 2092 0b42 A40B0000 		.4byte	0xba4
 2093 0b46 00000000 		.4byte	.LLST0
 2094 0b4a 1B       		.uleb128 0x1b
 2095 0b4b 2F220000 		.4byte	.LASF300
 2096 0b4f 01       		.byte	0x1
 2097 0b50 EA       		.byte	0xea
 2098 0b51 C9080000 		.4byte	0x8c9
 2099 0b55 2C000000 		.4byte	.LLST1
 2100 0b59 1C       		.uleb128 0x1c
 2101 0b5a 16000000 		.4byte	.LBB2
 2102 0b5e 12000000 		.4byte	.LBE2-.LBB2
 2103 0b62 860B0000 		.4byte	0xb86
 2104 0b66 1D       		.uleb128 0x1d
 2105 0b67 0A170000 		.4byte	.LASF301
 2106 0b6b 01       		.byte	0x1
 2107 0b6c 9801     		.2byte	0x198
 2108 0b6e 180A0000 		.4byte	0xa18
 2109 0b72 02       		.uleb128 0x2
 2110 0b73 91       		.byte	0x91
 2111 0b74 74       		.sleb128 -12
 2112 0b75 1E       		.uleb128 0x1e
 2113 0b76 28000000 		.4byte	.LVL3
 2114 0b7a 840F0000 		.4byte	0xf84
 2115 0b7e 1F       		.uleb128 0x1f
 2116 0b7f 01       		.uleb128 0x1
 2117 0b80 51       		.byte	0x51
 2118 0b81 02       		.uleb128 0x2
 2119 0b82 91       		.byte	0x91
 2120 0b83 74       		.sleb128 -12
 2121 0b84 00       		.byte	0
 2122 0b85 00       		.byte	0
 2123 0b86 20       		.uleb128 0x20
 2124 0b87 0A000000 		.4byte	.LVL1
 2125 0b8b A50F0000 		.4byte	0xfa5
 2126 0b8f 9A0B0000 		.4byte	0xb9a
 2127 0b93 1F       		.uleb128 0x1f
 2128 0b94 01       		.uleb128 0x1
 2129 0b95 50       		.byte	0x50
 2130 0b96 02       		.uleb128 0x2
 2131 0b97 74       		.byte	0x74
 2132 0b98 00       		.sleb128 0
ARM GAS  C:\Users\alvin\AppData\Local\Temp\cc0iGj3s.s 			page 75


 2133 0b99 00       		.byte	0
 2134 0b9a 21       		.uleb128 0x21
 2135 0b9b 30000000 		.4byte	.LVL6
 2136 0b9f BA0F0000 		.4byte	0xfba
 2137 0ba3 00       		.byte	0
 2138 0ba4 0F       		.uleb128 0xf
 2139 0ba5 04       		.byte	0x4
 2140 0ba6 440A0000 		.4byte	0xa44
 2141 0baa 22       		.uleb128 0x22
 2142 0bab B7170000 		.4byte	.LASF343
 2143 0baf 01       		.byte	0x1
 2144 0bb0 8C05     		.2byte	0x58c
 2145 0bb2 6B000000 		.4byte	0x6b
 2146 0bb6 00000000 		.4byte	.LFB7
 2147 0bba 24000000 		.4byte	.LFE7-.LFB7
 2148 0bbe 01       		.uleb128 0x1
 2149 0bbf 9C       		.byte	0x9c
 2150 0bc0 F30B0000 		.4byte	0xbf3
 2151 0bc4 23       		.uleb128 0x23
 2152 0bc5 A30B0000 		.4byte	.LASF303
 2153 0bc9 01       		.byte	0x1
 2154 0bca 8C05     		.2byte	0x58c
 2155 0bcc F30B0000 		.4byte	0xbf3
 2156 0bd0 56000000 		.4byte	.LLST2
 2157 0bd4 24       		.uleb128 0x24
 2158 0bd5 6900     		.ascii	"i\000"
 2159 0bd7 01       		.byte	0x1
 2160 0bd8 8E05     		.2byte	0x58e
 2161 0bda 6B000000 		.4byte	0x6b
 2162 0bde A9000000 		.4byte	.LLST3
 2163 0be2 25       		.uleb128 0x25
 2164 0be3 2D040000 		.4byte	.LASF304
 2165 0be7 01       		.byte	0x1
 2166 0be8 8F05     		.2byte	0x58f
 2167 0bea 6B000000 		.4byte	0x6b
 2168 0bee D2000000 		.4byte	.LLST4
 2169 0bf2 00       		.byte	0
 2170 0bf3 0F       		.uleb128 0xf
 2171 0bf4 04       		.byte	0x4
 2172 0bf5 F90B0000 		.4byte	0xbf9
 2173 0bf9 26       		.uleb128 0x26
 2174 0bfa 82040000 		.4byte	0x482
 2175 0bfe 27       		.uleb128 0x27
 2176 0bff FD070000 		.4byte	.LASF344
 2177 0c03 01       		.byte	0x1
 2178 0c04 E405     		.2byte	0x5e4
 2179 0c06 00000000 		.4byte	.LFB10
 2180 0c0a B4020000 		.4byte	.LFE10-.LFB10
 2181 0c0e 01       		.uleb128 0x1
 2182 0c0f 9C       		.byte	0x9c
 2183 0c10 8D0E0000 		.4byte	0xe8d
 2184 0c14 23       		.uleb128 0x23
 2185 0c15 F0200000 		.4byte	.LASF305
 2186 0c19 01       		.byte	0x1
 2187 0c1a E405     		.2byte	0x5e4
 2188 0c1c 6B000000 		.4byte	0x6b
 2189 0c20 F1000000 		.4byte	.LLST5
ARM GAS  C:\Users\alvin\AppData\Local\Temp\cc0iGj3s.s 			page 76


 2190 0c24 23       		.uleb128 0x23
 2191 0c25 F5000000 		.4byte	.LASF302
 2192 0c29 01       		.byte	0x1
 2193 0c2a E405     		.2byte	0x5e4
 2194 0c2c B0000000 		.4byte	0xb0
 2195 0c30 A8010000 		.4byte	.LLST6
 2196 0c34 1C       		.uleb128 0x1c
 2197 0c35 70000000 		.4byte	.LBB3
 2198 0c39 1C000000 		.4byte	.LBE3-.LBB3
 2199 0c3d 750C0000 		.4byte	0xc75
 2200 0c41 1D       		.uleb128 0x1d
 2201 0c42 011B0000 		.4byte	.LASF306
 2202 0c46 01       		.byte	0x1
 2203 0c47 F105     		.2byte	0x5f1
 2204 0c49 E3030000 		.4byte	0x3e3
 2205 0c4d 02       		.uleb128 0x2
 2206 0c4e 91       		.byte	0x91
 2207 0c4f 64       		.sleb128 -28
 2208 0c50 20       		.uleb128 0x20
 2209 0c51 80000000 		.4byte	.LVL21
 2210 0c55 D00F0000 		.4byte	0xfd0
 2211 0c59 640C0000 		.4byte	0xc64
 2212 0c5d 1F       		.uleb128 0x1f
 2213 0c5e 01       		.uleb128 0x1
 2214 0c5f 50       		.byte	0x50
 2215 0c60 02       		.uleb128 0x2
 2216 0c61 76       		.byte	0x76
 2217 0c62 00       		.sleb128 0
 2218 0c63 00       		.byte	0
 2219 0c64 1E       		.uleb128 0x1e
 2220 0c65 8C000000 		.4byte	.LVL22
 2221 0c69 D00F0000 		.4byte	0xfd0
 2222 0c6d 1F       		.uleb128 0x1f
 2223 0c6e 01       		.uleb128 0x1
 2224 0c6f 50       		.byte	0x50
 2225 0c70 02       		.uleb128 0x2
 2226 0c71 76       		.byte	0x76
 2227 0c72 00       		.sleb128 0
 2228 0c73 00       		.byte	0
 2229 0c74 00       		.byte	0
 2230 0c75 1C       		.uleb128 0x1c
 2231 0c76 B4000000 		.4byte	.LBB4
 2232 0c7a 36000000 		.4byte	.LBE4-.LBB4
 2233 0c7e 930C0000 		.4byte	0xc93
 2234 0c82 25       		.uleb128 0x25
 2235 0c83 1B200000 		.4byte	.LASF307
 2236 0c87 01       		.byte	0x1
 2237 0c88 0B06     		.2byte	0x60b
 2238 0c8a 83000000 		.4byte	0x83
 2239 0c8e D4010000 		.4byte	.LLST7
 2240 0c92 00       		.byte	0
 2241 0c93 1C       		.uleb128 0x1c
 2242 0c94 06010000 		.4byte	.LBB5
 2243 0c98 10000000 		.4byte	.LBE5-.LBB5
 2244 0c9c E20C0000 		.4byte	0xce2
 2245 0ca0 1D       		.uleb128 0x1d
 2246 0ca1 1D1D0000 		.4byte	.LASF308
ARM GAS  C:\Users\alvin\AppData\Local\Temp\cc0iGj3s.s 			page 77


 2247 0ca5 01       		.byte	0x1
 2248 0ca6 2306     		.2byte	0x623
 2249 0ca8 8D0E0000 		.4byte	0xe8d
 2250 0cac 02       		.uleb128 0x2
 2251 0cad 91       		.byte	0x91
 2252 0cae 64       		.sleb128 -28
 2253 0caf 20       		.uleb128 0x20
 2254 0cb0 10010000 		.4byte	.LVL33
 2255 0cb4 EC0F0000 		.4byte	0xfec
 2256 0cb8 D10C0000 		.4byte	0xcd1
 2257 0cbc 1F       		.uleb128 0x1f
 2258 0cbd 01       		.uleb128 0x1
 2259 0cbe 52       		.byte	0x52
 2260 0cbf 01       		.uleb128 0x1
 2261 0cc0 32       		.byte	0x32
 2262 0cc1 1F       		.uleb128 0x1f
 2263 0cc2 01       		.uleb128 0x1
 2264 0cc3 51       		.byte	0x51
 2265 0cc4 05       		.uleb128 0x5
 2266 0cc5 03       		.byte	0x3
 2267 0cc6 00000000 		.4byte	.LANCHOR0
 2268 0cca 1F       		.uleb128 0x1f
 2269 0ccb 01       		.uleb128 0x1
 2270 0ccc 50       		.byte	0x50
 2271 0ccd 02       		.uleb128 0x2
 2272 0cce 91       		.byte	0x91
 2273 0ccf 64       		.sleb128 -28
 2274 0cd0 00       		.byte	0
 2275 0cd1 1E       		.uleb128 0x1e
 2276 0cd2 16010000 		.4byte	.LVL34
 2277 0cd6 10100000 		.4byte	0x1010
 2278 0cda 1F       		.uleb128 0x1f
 2279 0cdb 01       		.uleb128 0x1
 2280 0cdc 50       		.byte	0x50
 2281 0cdd 02       		.uleb128 0x2
 2282 0cde 91       		.byte	0x91
 2283 0cdf 64       		.sleb128 -28
 2284 0ce0 00       		.byte	0
 2285 0ce1 00       		.byte	0
 2286 0ce2 1C       		.uleb128 0x1c
 2287 0ce3 26010000 		.4byte	.LBB6
 2288 0ce7 28000000 		.4byte	.LBE6-.LBB6
 2289 0ceb 1C0D0000 		.4byte	0xd1c
 2290 0cef 25       		.uleb128 0x25
 2291 0cf0 C8020000 		.4byte	.LASF309
 2292 0cf4 01       		.byte	0x1
 2293 0cf5 3B06     		.2byte	0x63b
 2294 0cf7 9D0E0000 		.4byte	0xe9d
 2295 0cfb E7010000 		.4byte	.LLST8
 2296 0cff 28       		.uleb128 0x28
 2297 0d00 34010000 		.4byte	.LBB7
 2298 0d04 0E000000 		.4byte	.LBE7-.LBB7
 2299 0d08 1D       		.uleb128 0x1d
 2300 0d09 56170000 		.4byte	.LASF310
 2301 0d0d 01       		.byte	0x1
 2302 0d0e 4206     		.2byte	0x642
 2303 0d10 DF090000 		.4byte	0x9df
ARM GAS  C:\Users\alvin\AppData\Local\Temp\cc0iGj3s.s 			page 78


 2304 0d14 05       		.uleb128 0x5
 2305 0d15 03       		.byte	0x3
 2306 0d16 00000000 		.4byte	gPrepWriteReqMem.6355
 2307 0d1a 00       		.byte	0
 2308 0d1b 00       		.byte	0
 2309 0d1c 1C       		.uleb128 0x1c
 2310 0d1d 82010000 		.4byte	.LBB8
 2311 0d21 06000000 		.4byte	.LBE8-.LBB8
 2312 0d25 460D0000 		.4byte	0xd46
 2313 0d29 29       		.uleb128 0x29
 2314 0d2a FC1F0000 		.4byte	.LASF345
 2315 0d2e 01       		.byte	0x1
 2316 0d2f 7E06     		.2byte	0x67e
 2317 0d31 6A060000 		.4byte	0x66a
 2318 0d35 25       		.uleb128 0x25
 2319 0d36 DC220000 		.4byte	.LASF311
 2320 0d3a 01       		.byte	0x1
 2321 0d3b 7F06     		.2byte	0x67f
 2322 0d3d A30E0000 		.4byte	0xea3
 2323 0d41 FA010000 		.4byte	.LLST9
 2324 0d45 00       		.byte	0
 2325 0d46 1C       		.uleb128 0x1c
 2326 0d47 1E020000 		.4byte	.LBB9
 2327 0d4b 0E000000 		.4byte	.LBE9-.LBB9
 2328 0d4f 6D0D0000 		.4byte	0xd6d
 2329 0d53 25       		.uleb128 0x25
 2330 0d54 40120000 		.4byte	.LASF312
 2331 0d58 01       		.byte	0x1
 2332 0d59 1907     		.2byte	0x719
 2333 0d5b 77000000 		.4byte	0x77
 2334 0d5f 0D020000 		.4byte	.LLST10
 2335 0d63 21       		.uleb128 0x21
 2336 0d64 2C020000 		.4byte	.LVL51
 2337 0d68 26100000 		.4byte	0x1026
 2338 0d6c 00       		.byte	0
 2339 0d6d 20       		.uleb128 0x20
 2340 0d6e 96000000 		.4byte	.LVL23
 2341 0d72 AA0B0000 		.4byte	0xbaa
 2342 0d76 810D0000 		.4byte	0xd81
 2343 0d7a 1F       		.uleb128 0x1f
 2344 0d7b 01       		.uleb128 0x1
 2345 0d7c 50       		.byte	0x50
 2346 0d7d 02       		.uleb128 0x2
 2347 0d7e 76       		.byte	0x76
 2348 0d7f 00       		.sleb128 0
 2349 0d80 00       		.byte	0
 2350 0d81 20       		.uleb128 0x20
 2351 0d82 A0000000 		.4byte	.LVL24
 2352 0d86 41100000 		.4byte	0x1041
 2353 0d8a 950D0000 		.4byte	0xd95
 2354 0d8e 1F       		.uleb128 0x1f
 2355 0d8f 01       		.uleb128 0x1
 2356 0d90 50       		.byte	0x50
 2357 0d91 02       		.uleb128 0x2
 2358 0d92 76       		.byte	0x76
 2359 0d93 00       		.sleb128 0
 2360 0d94 00       		.byte	0
ARM GAS  C:\Users\alvin\AppData\Local\Temp\cc0iGj3s.s 			page 79


 2361 0d95 20       		.uleb128 0x20
 2362 0d96 AA000000 		.4byte	.LVL25
 2363 0d9a 57100000 		.4byte	0x1057
 2364 0d9e A80D0000 		.4byte	0xda8
 2365 0da2 1F       		.uleb128 0x1f
 2366 0da3 01       		.uleb128 0x1
 2367 0da4 51       		.byte	0x51
 2368 0da5 01       		.uleb128 0x1
 2369 0da6 30       		.byte	0x30
 2370 0da7 00       		.byte	0
 2371 0da8 20       		.uleb128 0x20
 2372 0da9 B2000000 		.4byte	.LVL26
 2373 0dad 57100000 		.4byte	0x1057
 2374 0db1 BB0D0000 		.4byte	0xdbb
 2375 0db5 1F       		.uleb128 0x1f
 2376 0db6 01       		.uleb128 0x1
 2377 0db7 51       		.byte	0x51
 2378 0db8 01       		.uleb128 0x1
 2379 0db9 31       		.byte	0x31
 2380 0dba 00       		.byte	0
 2381 0dbb 20       		.uleb128 0x20
 2382 0dbc F0000000 		.4byte	.LVL29
 2383 0dc0 41100000 		.4byte	0x1041
 2384 0dc4 CF0D0000 		.4byte	0xdcf
 2385 0dc8 1F       		.uleb128 0x1f
 2386 0dc9 01       		.uleb128 0x1
 2387 0dca 50       		.byte	0x50
 2388 0dcb 02       		.uleb128 0x2
 2389 0dcc 76       		.byte	0x76
 2390 0dcd 00       		.sleb128 0
 2391 0dce 00       		.byte	0
 2392 0dcf 20       		.uleb128 0x20
 2393 0dd0 F8000000 		.4byte	.LVL30
 2394 0dd4 57100000 		.4byte	0x1057
 2395 0dd8 E80D0000 		.4byte	0xde8
 2396 0ddc 1F       		.uleb128 0x1f
 2397 0ddd 01       		.uleb128 0x1
 2398 0dde 51       		.byte	0x51
 2399 0ddf 01       		.uleb128 0x1
 2400 0de0 30       		.byte	0x30
 2401 0de1 1F       		.uleb128 0x1f
 2402 0de2 01       		.uleb128 0x1
 2403 0de3 50       		.byte	0x50
 2404 0de4 02       		.uleb128 0x2
 2405 0de5 76       		.byte	0x76
 2406 0de6 00       		.sleb128 0
 2407 0de7 00       		.byte	0
 2408 0de8 20       		.uleb128 0x20
 2409 0de9 00010000 		.4byte	.LVL31
 2410 0ded 57100000 		.4byte	0x1057
 2411 0df1 010E0000 		.4byte	0xe01
 2412 0df5 1F       		.uleb128 0x1f
 2413 0df6 01       		.uleb128 0x1
 2414 0df7 51       		.byte	0x51
 2415 0df8 01       		.uleb128 0x1
 2416 0df9 31       		.byte	0x31
 2417 0dfa 1F       		.uleb128 0x1f
ARM GAS  C:\Users\alvin\AppData\Local\Temp\cc0iGj3s.s 			page 80


 2418 0dfb 01       		.uleb128 0x1
 2419 0dfc 50       		.byte	0x50
 2420 0dfd 02       		.uleb128 0x2
 2421 0dfe 76       		.byte	0x76
 2422 0dff 00       		.sleb128 0
 2423 0e00 00       		.byte	0
 2424 0e01 20       		.uleb128 0x20
 2425 0e02 06010000 		.4byte	.LVL32
 2426 0e06 6E100000 		.4byte	0x106e
 2427 0e0a 140E0000 		.4byte	0xe14
 2428 0e0e 1F       		.uleb128 0x1f
 2429 0e0f 01       		.uleb128 0x1
 2430 0e10 50       		.byte	0x50
 2431 0e11 01       		.uleb128 0x1
 2432 0e12 30       		.byte	0x30
 2433 0e13 00       		.byte	0
 2434 0e14 20       		.uleb128 0x20
 2435 0e15 6E010000 		.4byte	.LVL39
 2436 0e19 84100000 		.4byte	0x1084
 2437 0e1d 2B0E0000 		.4byte	0xe2b
 2438 0e21 1F       		.uleb128 0x1f
 2439 0e22 01       		.uleb128 0x1
 2440 0e23 51       		.byte	0x51
 2441 0e24 05       		.uleb128 0x5
 2442 0e25 03       		.byte	0x3
 2443 0e26 00000000 		.4byte	.LANCHOR2
 2444 0e2a 00       		.byte	0
 2445 0e2b 20       		.uleb128 0x20
 2446 0e2c F6010000 		.4byte	.LVL44
 2447 0e30 EC0F0000 		.4byte	0xfec
 2448 0e34 4A0E0000 		.4byte	0xe4a
 2449 0e38 1F       		.uleb128 0x1f
 2450 0e39 01       		.uleb128 0x1
 2451 0e3a 52       		.byte	0x52
 2452 0e3b 01       		.uleb128 0x1
 2453 0e3c 32       		.byte	0x32
 2454 0e3d 1F       		.uleb128 0x1f
 2455 0e3e 01       		.uleb128 0x1
 2456 0e3f 51       		.byte	0x51
 2457 0e40 02       		.uleb128 0x2
 2458 0e41 75       		.byte	0x75
 2459 0e42 00       		.sleb128 0
 2460 0e43 1F       		.uleb128 0x1f
 2461 0e44 01       		.uleb128 0x1
 2462 0e45 50       		.byte	0x50
 2463 0e46 02       		.uleb128 0x2
 2464 0e47 76       		.byte	0x76
 2465 0e48 00       		.sleb128 0
 2466 0e49 00       		.byte	0
 2467 0e4a 20       		.uleb128 0x20
 2468 0e4b 16020000 		.4byte	.LVL45
 2469 0e4f EC0F0000 		.4byte	0xfec
 2470 0e53 5D0E0000 		.4byte	0xe5d
 2471 0e57 1F       		.uleb128 0x1f
 2472 0e58 01       		.uleb128 0x1
 2473 0e59 52       		.byte	0x52
 2474 0e5a 01       		.uleb128 0x1
ARM GAS  C:\Users\alvin\AppData\Local\Temp\cc0iGj3s.s 			page 81


 2475 0e5b 3A       		.byte	0x3a
 2476 0e5c 00       		.byte	0
 2477 0e5d 21       		.uleb128 0x21
 2478 0e5e 1C020000 		.4byte	.LVL47
 2479 0e62 140B0000 		.4byte	0xb14
 2480 0e66 20       		.uleb128 0x20
 2481 0e67 34020000 		.4byte	.LVL54
 2482 0e6b 260B0000 		.4byte	0xb26
 2483 0e6f 7A0E0000 		.4byte	0xe7a
 2484 0e73 1F       		.uleb128 0x1f
 2485 0e74 01       		.uleb128 0x1
 2486 0e75 50       		.byte	0x50
 2487 0e76 02       		.uleb128 0x2
 2488 0e77 75       		.byte	0x75
 2489 0e78 00       		.sleb128 0
 2490 0e79 00       		.byte	0
 2491 0e7a 2A       		.uleb128 0x2a
 2492 0e7b 5E020000 		.4byte	.LVL57
 2493 0e7f 1F       		.uleb128 0x1f
 2494 0e80 01       		.uleb128 0x1
 2495 0e81 51       		.byte	0x51
 2496 0e82 02       		.uleb128 0x2
 2497 0e83 75       		.byte	0x75
 2498 0e84 00       		.sleb128 0
 2499 0e85 1F       		.uleb128 0x1f
 2500 0e86 01       		.uleb128 0x1
 2501 0e87 50       		.byte	0x50
 2502 0e88 02       		.uleb128 0x2
 2503 0e89 74       		.byte	0x74
 2504 0e8a 00       		.sleb128 0
 2505 0e8b 00       		.byte	0
 2506 0e8c 00       		.byte	0
 2507 0e8d 0B       		.uleb128 0xb
 2508 0e8e 6B000000 		.4byte	0x6b
 2509 0e92 9D0E0000 		.4byte	0xe9d
 2510 0e96 0C       		.uleb128 0xc
 2511 0e97 A9000000 		.4byte	0xa9
 2512 0e9b 01       		.byte	0x1
 2513 0e9c 00       		.byte	0
 2514 0e9d 0F       		.uleb128 0xf
 2515 0e9e 04       		.byte	0x4
 2516 0e9f 42040000 		.4byte	0x442
 2517 0ea3 0F       		.uleb128 0xf
 2518 0ea4 04       		.byte	0x4
 2519 0ea5 02070000 		.4byte	0x702
 2520 0ea9 2B       		.uleb128 0x2b
 2521 0eaa 5F1B0000 		.4byte	.LASF313
 2522 0eae 08       		.byte	0x8
 2523 0eaf 7F02     		.2byte	0x27f
 2524 0eb1 4F0A0000 		.4byte	0xa4f
 2525 0eb5 0B       		.uleb128 0xb
 2526 0eb6 6B000000 		.4byte	0x6b
 2527 0eba C60E0000 		.4byte	0xec6
 2528 0ebe 17       		.uleb128 0x17
 2529 0ebf A9000000 		.4byte	0xa9
 2530 0ec3 7F0D     		.2byte	0xd7f
 2531 0ec5 00       		.byte	0
ARM GAS  C:\Users\alvin\AppData\Local\Temp\cc0iGj3s.s 			page 82


 2532 0ec6 2B       		.uleb128 0x2b
 2533 0ec7 851F0000 		.4byte	.LASF314
 2534 0ecb 08       		.byte	0x8
 2535 0ecc 8402     		.2byte	0x284
 2536 0ece B50E0000 		.4byte	0xeb5
 2537 0ed2 2C       		.uleb128 0x2c
 2538 0ed3 B10B0000 		.4byte	.LASF315
 2539 0ed7 01       		.byte	0x1
 2540 0ed8 3D       		.byte	0x3d
 2541 0ed9 A4000000 		.4byte	0xa4
 2542 0edd 05       		.uleb128 0x5
 2543 0ede 03       		.byte	0x3
 2544 0edf 00000000 		.4byte	cyBle_eventHandlerFlag
 2545 0ee3 2B       		.uleb128 0x2b
 2546 0ee4 55060000 		.4byte	.LASF316
 2547 0ee8 08       		.byte	0x8
 2548 0ee9 8702     		.2byte	0x287
 2549 0eeb 82040000 		.4byte	0x482
 2550 0eef 2B       		.uleb128 0x2b
 2551 0ef0 A50D0000 		.4byte	.LASF317
 2552 0ef4 08       		.byte	0x8
 2553 0ef5 8802     		.2byte	0x288
 2554 0ef7 FB0E0000 		.4byte	0xefb
 2555 0efb 0F       		.uleb128 0xf
 2556 0efc 04       		.byte	0x4
 2557 0efd 82040000 		.4byte	0x482
 2558 0f01 2C       		.uleb128 0x2c
 2559 0f02 741D0000 		.4byte	.LASF318
 2560 0f06 01       		.byte	0x1
 2561 0f07 D0       		.byte	0xd0
 2562 0f08 0A060000 		.4byte	0x60a
 2563 0f0c 05       		.uleb128 0x5
 2564 0f0d 03       		.byte	0x3
 2565 0f0e 00000000 		.4byte	cyBle_authInfo
 2566 0f12 2B       		.uleb128 0x2b
 2567 0f13 541C0000 		.4byte	.LASF319
 2568 0f17 08       		.byte	0x8
 2569 0f18 A502     		.2byte	0x2a5
 2570 0f1a 6B000000 		.4byte	0x6b
 2571 0f1e 2B       		.uleb128 0x2b
 2572 0f1f 00000000 		.4byte	.LASF320
 2573 0f23 08       		.byte	0x8
 2574 0f24 AB02     		.2byte	0x2ab
 2575 0f26 6B000000 		.4byte	0x6b
 2576 0f2a 2D       		.uleb128 0x2d
 2577 0f2b A4200000 		.4byte	.LASF321
 2578 0f2f 09       		.byte	0x9
 2579 0f30 EC       		.byte	0xec
 2580 0f31 16060000 		.4byte	0x616
 2581 0f35 2D       		.uleb128 0x2d
 2582 0f36 0D130000 		.4byte	.LASF322
 2583 0f3a 09       		.byte	0x9
 2584 0f3b F4       		.byte	0xf4
 2585 0f3c 400F0000 		.4byte	0xf40
 2586 0f40 26       		.uleb128 0x26
 2587 0f41 D50A0000 		.4byte	0xad5
 2588 0f45 2B       		.uleb128 0x2b
ARM GAS  C:\Users\alvin\AppData\Local\Temp\cc0iGj3s.s 			page 83


 2589 0f46 CC1C0000 		.4byte	.LASF323
 2590 0f4a 0A       		.byte	0xa
 2591 0f4b DA09     		.2byte	0x9da
 2592 0f4d 080B0000 		.4byte	0xb08
 2593 0f51 2C       		.uleb128 0x2c
 2594 0f52 CA0C0000 		.4byte	.LASF324
 2595 0f56 01       		.byte	0x1
 2596 0f57 3B       		.byte	0x3b
 2597 0f58 05090000 		.4byte	0x905
 2598 0f5c 05       		.uleb128 0x5
 2599 0f5d 03       		.byte	0x3
 2600 0f5e 00000000 		.4byte	cyBle_connHandle
 2601 0f62 2C       		.uleb128 0x2c
 2602 0f63 FA110000 		.4byte	.LASF325
 2603 0f67 01       		.byte	0x1
 2604 0f68 3E       		.byte	0x3e
 2605 0f69 A4000000 		.4byte	0xa4
 2606 0f6d 05       		.uleb128 0x5
 2607 0f6e 03       		.byte	0x3
 2608 0f6f 00000000 		.4byte	cyBle_busyStatus
 2609 0f73 2C       		.uleb128 0x2c
 2610 0f74 9A1F0000 		.4byte	.LASF326
 2611 0f78 01       		.byte	0x1
 2612 0f79 41       		.byte	0x41
 2613 0f7a 6B000000 		.4byte	0x6b
 2614 0f7e 05       		.uleb128 0x5
 2615 0f7f 03       		.byte	0x3
 2616 0f80 00000000 		.4byte	cyBle_advertisingIntervalType
 2617 0f84 2E       		.uleb128 0x2e
 2618 0f85 E81F0000 		.4byte	.LASF327
 2619 0f89 07       		.byte	0x7
 2620 0f8a 4001     		.2byte	0x140
 2621 0f8c 3F030000 		.4byte	0x33f
 2622 0f90 9F0F0000 		.4byte	0xf9f
 2623 0f94 14       		.uleb128 0x14
 2624 0f95 05090000 		.4byte	0x905
 2625 0f99 14       		.uleb128 0x14
 2626 0f9a 9F0F0000 		.4byte	0xf9f
 2627 0f9e 00       		.byte	0
 2628 0f9f 0F       		.uleb128 0xf
 2629 0fa0 04       		.byte	0x4
 2630 0fa1 180A0000 		.4byte	0xa18
 2631 0fa5 2F       		.uleb128 0x2f
 2632 0fa6 B0160000 		.4byte	.LASF328
 2633 0faa 09       		.byte	0x9
 2634 0fab D3       		.byte	0xd3
 2635 0fac C9080000 		.4byte	0x8c9
 2636 0fb0 BA0F0000 		.4byte	0xfba
 2637 0fb4 14       		.uleb128 0x14
 2638 0fb5 A40B0000 		.4byte	0xba4
 2639 0fb9 00       		.byte	0
 2640 0fba 2E       		.uleb128 0x2e
 2641 0fbb 7B040000 		.4byte	.LASF329
 2642 0fbf 07       		.byte	0x7
 2643 0fc0 C601     		.2byte	0x1c6
 2644 0fc2 3F030000 		.4byte	0x33f
 2645 0fc6 D00F0000 		.4byte	0xfd0
ARM GAS  C:\Users\alvin\AppData\Local\Temp\cc0iGj3s.s 			page 84


 2646 0fca 14       		.uleb128 0x14
 2647 0fcb 05090000 		.4byte	0x905
 2648 0fcf 00       		.byte	0
 2649 0fd0 2E       		.uleb128 0x2e
 2650 0fd1 97130000 		.4byte	.LASF330
 2651 0fd5 03       		.byte	0x3
 2652 0fd6 EE06     		.2byte	0x6ee
 2653 0fd8 3F030000 		.4byte	0x33f
 2654 0fdc E60F0000 		.4byte	0xfe6
 2655 0fe0 14       		.uleb128 0x14
 2656 0fe1 E60F0000 		.4byte	0xfe6
 2657 0fe5 00       		.byte	0
 2658 0fe6 0F       		.uleb128 0xf
 2659 0fe7 04       		.byte	0x4
 2660 0fe8 E3030000 		.4byte	0x3e3
 2661 0fec 30       		.uleb128 0x30
 2662 0fed 56200000 		.4byte	.LASF334
 2663 0ff1 B0000000 		.4byte	0xb0
 2664 0ff5 09100000 		.4byte	0x1009
 2665 0ff9 14       		.uleb128 0x14
 2666 0ffa B0000000 		.4byte	0xb0
 2667 0ffe 14       		.uleb128 0x14
 2668 0fff 09100000 		.4byte	0x1009
 2669 1003 14       		.uleb128 0x14
 2670 1004 A9000000 		.4byte	0xa9
 2671 1008 00       		.byte	0
 2672 1009 0F       		.uleb128 0xf
 2673 100a 04       		.byte	0x4
 2674 100b 0F100000 		.4byte	0x100f
 2675 100f 31       		.uleb128 0x31
 2676 1010 2E       		.uleb128 0x2e
 2677 1011 71130000 		.4byte	.LASF331
 2678 1015 05       		.byte	0x5
 2679 1016 300C     		.2byte	0xc30
 2680 1018 3F030000 		.4byte	0x33f
 2681 101c 26100000 		.4byte	0x1026
 2682 1020 14       		.uleb128 0x14
 2683 1021 26060000 		.4byte	0x626
 2684 1025 00       		.byte	0
 2685 1026 2E       		.uleb128 0x2e
 2686 1027 290E0000 		.4byte	.LASF332
 2687 102b 07       		.byte	0x7
 2688 102c 7C01     		.2byte	0x17c
 2689 102e 3F030000 		.4byte	0x33f
 2690 1032 41100000 		.4byte	0x1041
 2691 1036 14       		.uleb128 0x14
 2692 1037 05090000 		.4byte	0x905
 2693 103b 14       		.uleb128 0x14
 2694 103c 77000000 		.4byte	0x77
 2695 1040 00       		.byte	0
 2696 1041 2E       		.uleb128 0x2e
 2697 1042 5B000000 		.4byte	.LASF333
 2698 1046 03       		.byte	0x3
 2699 1047 6F06     		.2byte	0x66f
 2700 1049 3F030000 		.4byte	0x33f
 2701 104d 57100000 		.4byte	0x1057
 2702 1051 14       		.uleb128 0x14
ARM GAS  C:\Users\alvin\AppData\Local\Temp\cc0iGj3s.s 			page 85


 2703 1052 FB0E0000 		.4byte	0xefb
 2704 1056 00       		.byte	0
 2705 1057 32       		.uleb128 0x32
 2706 1058 0B120000 		.4byte	.LASF335
 2707 105c 08       		.byte	0x8
 2708 105d 6502     		.2byte	0x265
 2709 105f 6E100000 		.4byte	0x106e
 2710 1063 14       		.uleb128 0x14
 2711 1064 F30B0000 		.4byte	0xbf3
 2712 1068 14       		.uleb128 0x14
 2713 1069 6B000000 		.4byte	0x6b
 2714 106d 00       		.byte	0
 2715 106e 2E       		.uleb128 0x2e
 2716 106f 9B000000 		.4byte	.LASF336
 2717 1073 05       		.byte	0x5
 2718 1074 A704     		.2byte	0x4a7
 2719 1076 3F030000 		.4byte	0x33f
 2720 107a 84100000 		.4byte	0x1084
 2721 107e 14       		.uleb128 0x14
 2722 107f 09050000 		.4byte	0x509
 2723 1083 00       		.byte	0
 2724 1084 2E       		.uleb128 0x2e
 2725 1085 B8200000 		.4byte	.LASF337
 2726 1089 05       		.byte	0x5
 2727 108a C907     		.2byte	0x7c9
 2728 108c 3F030000 		.4byte	0x33f
 2729 1090 9F100000 		.4byte	0x109f
 2730 1094 14       		.uleb128 0x14
 2731 1095 6B000000 		.4byte	0x6b
 2732 1099 14       		.uleb128 0x14
 2733 109a 9F100000 		.4byte	0x109f
 2734 109e 00       		.byte	0
 2735 109f 0F       		.uleb128 0xf
 2736 10a0 04       		.byte	0x4
 2737 10a1 0A060000 		.4byte	0x60a
 2738 10a5 00       		.byte	0
 2739              		.section	.debug_abbrev,"",%progbits
 2740              	.Ldebug_abbrev0:
 2741 0000 01       		.uleb128 0x1
 2742 0001 11       		.uleb128 0x11
 2743 0002 01       		.byte	0x1
 2744 0003 25       		.uleb128 0x25
 2745 0004 0E       		.uleb128 0xe
 2746 0005 13       		.uleb128 0x13
 2747 0006 0B       		.uleb128 0xb
 2748 0007 03       		.uleb128 0x3
 2749 0008 0E       		.uleb128 0xe
 2750 0009 1B       		.uleb128 0x1b
 2751 000a 0E       		.uleb128 0xe
 2752 000b 55       		.uleb128 0x55
 2753 000c 17       		.uleb128 0x17
 2754 000d 11       		.uleb128 0x11
 2755 000e 01       		.uleb128 0x1
 2756 000f 10       		.uleb128 0x10
 2757 0010 17       		.uleb128 0x17
 2758 0011 00       		.byte	0
 2759 0012 00       		.byte	0
ARM GAS  C:\Users\alvin\AppData\Local\Temp\cc0iGj3s.s 			page 86


 2760 0013 02       		.uleb128 0x2
 2761 0014 24       		.uleb128 0x24
 2762 0015 00       		.byte	0
 2763 0016 0B       		.uleb128 0xb
 2764 0017 0B       		.uleb128 0xb
 2765 0018 3E       		.uleb128 0x3e
 2766 0019 0B       		.uleb128 0xb
 2767 001a 03       		.uleb128 0x3
 2768 001b 0E       		.uleb128 0xe
 2769 001c 00       		.byte	0
 2770 001d 00       		.byte	0
 2771 001e 03       		.uleb128 0x3
 2772 001f 24       		.uleb128 0x24
 2773 0020 00       		.byte	0
 2774 0021 0B       		.uleb128 0xb
 2775 0022 0B       		.uleb128 0xb
 2776 0023 3E       		.uleb128 0x3e
 2777 0024 0B       		.uleb128 0xb
 2778 0025 03       		.uleb128 0x3
 2779 0026 08       		.uleb128 0x8
 2780 0027 00       		.byte	0
 2781 0028 00       		.byte	0
 2782 0029 04       		.uleb128 0x4
 2783 002a 16       		.uleb128 0x16
 2784 002b 00       		.byte	0
 2785 002c 03       		.uleb128 0x3
 2786 002d 0E       		.uleb128 0xe
 2787 002e 3A       		.uleb128 0x3a
 2788 002f 0B       		.uleb128 0xb
 2789 0030 3B       		.uleb128 0x3b
 2790 0031 05       		.uleb128 0x5
 2791 0032 49       		.uleb128 0x49
 2792 0033 13       		.uleb128 0x13
 2793 0034 00       		.byte	0
 2794 0035 00       		.byte	0
 2795 0036 05       		.uleb128 0x5
 2796 0037 35       		.uleb128 0x35
 2797 0038 00       		.byte	0
 2798 0039 49       		.uleb128 0x49
 2799 003a 13       		.uleb128 0x13
 2800 003b 00       		.byte	0
 2801 003c 00       		.byte	0
 2802 003d 06       		.uleb128 0x6
 2803 003e 0F       		.uleb128 0xf
 2804 003f 00       		.byte	0
 2805 0040 0B       		.uleb128 0xb
 2806 0041 0B       		.uleb128 0xb
 2807 0042 00       		.byte	0
 2808 0043 00       		.byte	0
 2809 0044 07       		.uleb128 0x7
 2810 0045 04       		.uleb128 0x4
 2811 0046 01       		.byte	0x1
 2812 0047 0B       		.uleb128 0xb
 2813 0048 0B       		.uleb128 0xb
 2814 0049 3A       		.uleb128 0x3a
 2815 004a 0B       		.uleb128 0xb
 2816 004b 3B       		.uleb128 0x3b
ARM GAS  C:\Users\alvin\AppData\Local\Temp\cc0iGj3s.s 			page 87


 2817 004c 05       		.uleb128 0x5
 2818 004d 01       		.uleb128 0x1
 2819 004e 13       		.uleb128 0x13
 2820 004f 00       		.byte	0
 2821 0050 00       		.byte	0
 2822 0051 08       		.uleb128 0x8
 2823 0052 28       		.uleb128 0x28
 2824 0053 00       		.byte	0
 2825 0054 03       		.uleb128 0x3
 2826 0055 0E       		.uleb128 0xe
 2827 0056 1C       		.uleb128 0x1c
 2828 0057 0D       		.uleb128 0xd
 2829 0058 00       		.byte	0
 2830 0059 00       		.byte	0
 2831 005a 09       		.uleb128 0x9
 2832 005b 13       		.uleb128 0x13
 2833 005c 01       		.byte	0x1
 2834 005d 0B       		.uleb128 0xb
 2835 005e 0B       		.uleb128 0xb
 2836 005f 3A       		.uleb128 0x3a
 2837 0060 0B       		.uleb128 0xb
 2838 0061 3B       		.uleb128 0x3b
 2839 0062 05       		.uleb128 0x5
 2840 0063 01       		.uleb128 0x1
 2841 0064 13       		.uleb128 0x13
 2842 0065 00       		.byte	0
 2843 0066 00       		.byte	0
 2844 0067 0A       		.uleb128 0xa
 2845 0068 0D       		.uleb128 0xd
 2846 0069 00       		.byte	0
 2847 006a 03       		.uleb128 0x3
 2848 006b 0E       		.uleb128 0xe
 2849 006c 3A       		.uleb128 0x3a
 2850 006d 0B       		.uleb128 0xb
 2851 006e 3B       		.uleb128 0x3b
 2852 006f 05       		.uleb128 0x5
 2853 0070 49       		.uleb128 0x49
 2854 0071 13       		.uleb128 0x13
 2855 0072 38       		.uleb128 0x38
 2856 0073 0B       		.uleb128 0xb
 2857 0074 00       		.byte	0
 2858 0075 00       		.byte	0
 2859 0076 0B       		.uleb128 0xb
 2860 0077 01       		.uleb128 0x1
 2861 0078 01       		.byte	0x1
 2862 0079 49       		.uleb128 0x49
 2863 007a 13       		.uleb128 0x13
 2864 007b 01       		.uleb128 0x1
 2865 007c 13       		.uleb128 0x13
 2866 007d 00       		.byte	0
 2867 007e 00       		.byte	0
 2868 007f 0C       		.uleb128 0xc
 2869 0080 21       		.uleb128 0x21
 2870 0081 00       		.byte	0
 2871 0082 49       		.uleb128 0x49
 2872 0083 13       		.uleb128 0x13
 2873 0084 2F       		.uleb128 0x2f
ARM GAS  C:\Users\alvin\AppData\Local\Temp\cc0iGj3s.s 			page 88


 2874 0085 0B       		.uleb128 0xb
 2875 0086 00       		.byte	0
 2876 0087 00       		.byte	0
 2877 0088 0D       		.uleb128 0xd
 2878 0089 04       		.uleb128 0x4
 2879 008a 01       		.byte	0x1
 2880 008b 0B       		.uleb128 0xb
 2881 008c 0B       		.uleb128 0xb
 2882 008d 3A       		.uleb128 0x3a
 2883 008e 0B       		.uleb128 0xb
 2884 008f 3B       		.uleb128 0x3b
 2885 0090 0B       		.uleb128 0xb
 2886 0091 01       		.uleb128 0x1
 2887 0092 13       		.uleb128 0x13
 2888 0093 00       		.byte	0
 2889 0094 00       		.byte	0
 2890 0095 0E       		.uleb128 0xe
 2891 0096 16       		.uleb128 0x16
 2892 0097 00       		.byte	0
 2893 0098 03       		.uleb128 0x3
 2894 0099 0E       		.uleb128 0xe
 2895 009a 3A       		.uleb128 0x3a
 2896 009b 0B       		.uleb128 0xb
 2897 009c 3B       		.uleb128 0x3b
 2898 009d 0B       		.uleb128 0xb
 2899 009e 49       		.uleb128 0x49
 2900 009f 13       		.uleb128 0x13
 2901 00a0 00       		.byte	0
 2902 00a1 00       		.byte	0
 2903 00a2 0F       		.uleb128 0xf
 2904 00a3 0F       		.uleb128 0xf
 2905 00a4 00       		.byte	0
 2906 00a5 0B       		.uleb128 0xb
 2907 00a6 0B       		.uleb128 0xb
 2908 00a7 49       		.uleb128 0x49
 2909 00a8 13       		.uleb128 0x13
 2910 00a9 00       		.byte	0
 2911 00aa 00       		.byte	0
 2912 00ab 10       		.uleb128 0x10
 2913 00ac 0D       		.uleb128 0xd
 2914 00ad 00       		.byte	0
 2915 00ae 03       		.uleb128 0x3
 2916 00af 08       		.uleb128 0x8
 2917 00b0 3A       		.uleb128 0x3a
 2918 00b1 0B       		.uleb128 0xb
 2919 00b2 3B       		.uleb128 0x3b
 2920 00b3 05       		.uleb128 0x5
 2921 00b4 49       		.uleb128 0x49
 2922 00b5 13       		.uleb128 0x13
 2923 00b6 38       		.uleb128 0x38
 2924 00b7 0B       		.uleb128 0xb
 2925 00b8 00       		.byte	0
 2926 00b9 00       		.byte	0
 2927 00ba 11       		.uleb128 0x11
 2928 00bb 13       		.uleb128 0x13
 2929 00bc 01       		.byte	0x1
 2930 00bd 0B       		.uleb128 0xb
ARM GAS  C:\Users\alvin\AppData\Local\Temp\cc0iGj3s.s 			page 89


 2931 00be 0B       		.uleb128 0xb
 2932 00bf 3A       		.uleb128 0x3a
 2933 00c0 0B       		.uleb128 0xb
 2934 00c1 3B       		.uleb128 0x3b
 2935 00c2 0B       		.uleb128 0xb
 2936 00c3 01       		.uleb128 0x1
 2937 00c4 13       		.uleb128 0x13
 2938 00c5 00       		.byte	0
 2939 00c6 00       		.byte	0
 2940 00c7 12       		.uleb128 0x12
 2941 00c8 0D       		.uleb128 0xd
 2942 00c9 00       		.byte	0
 2943 00ca 03       		.uleb128 0x3
 2944 00cb 0E       		.uleb128 0xe
 2945 00cc 3A       		.uleb128 0x3a
 2946 00cd 0B       		.uleb128 0xb
 2947 00ce 3B       		.uleb128 0x3b
 2948 00cf 0B       		.uleb128 0xb
 2949 00d0 49       		.uleb128 0x49
 2950 00d1 13       		.uleb128 0x13
 2951 00d2 38       		.uleb128 0x38
 2952 00d3 0B       		.uleb128 0xb
 2953 00d4 00       		.byte	0
 2954 00d5 00       		.byte	0
 2955 00d6 13       		.uleb128 0x13
 2956 00d7 15       		.uleb128 0x15
 2957 00d8 01       		.byte	0x1
 2958 00d9 27       		.uleb128 0x27
 2959 00da 19       		.uleb128 0x19
 2960 00db 01       		.uleb128 0x1
 2961 00dc 13       		.uleb128 0x13
 2962 00dd 00       		.byte	0
 2963 00de 00       		.byte	0
 2964 00df 14       		.uleb128 0x14
 2965 00e0 05       		.uleb128 0x5
 2966 00e1 00       		.byte	0
 2967 00e2 49       		.uleb128 0x49
 2968 00e3 13       		.uleb128 0x13
 2969 00e4 00       		.byte	0
 2970 00e5 00       		.byte	0
 2971 00e6 15       		.uleb128 0x15
 2972 00e7 13       		.uleb128 0x13
 2973 00e8 01       		.byte	0x1
 2974 00e9 0B       		.uleb128 0xb
 2975 00ea 05       		.uleb128 0x5
 2976 00eb 3A       		.uleb128 0x3a
 2977 00ec 0B       		.uleb128 0xb
 2978 00ed 3B       		.uleb128 0x3b
 2979 00ee 0B       		.uleb128 0xb
 2980 00ef 01       		.uleb128 0x1
 2981 00f0 13       		.uleb128 0x13
 2982 00f1 00       		.byte	0
 2983 00f2 00       		.byte	0
 2984 00f3 16       		.uleb128 0x16
 2985 00f4 0D       		.uleb128 0xd
 2986 00f5 00       		.byte	0
 2987 00f6 03       		.uleb128 0x3
ARM GAS  C:\Users\alvin\AppData\Local\Temp\cc0iGj3s.s 			page 90


 2988 00f7 0E       		.uleb128 0xe
 2989 00f8 3A       		.uleb128 0x3a
 2990 00f9 0B       		.uleb128 0xb
 2991 00fa 3B       		.uleb128 0x3b
 2992 00fb 0B       		.uleb128 0xb
 2993 00fc 49       		.uleb128 0x49
 2994 00fd 13       		.uleb128 0x13
 2995 00fe 38       		.uleb128 0x38
 2996 00ff 05       		.uleb128 0x5
 2997 0100 00       		.byte	0
 2998 0101 00       		.byte	0
 2999 0102 17       		.uleb128 0x17
 3000 0103 21       		.uleb128 0x21
 3001 0104 00       		.byte	0
 3002 0105 49       		.uleb128 0x49
 3003 0106 13       		.uleb128 0x13
 3004 0107 2F       		.uleb128 0x2f
 3005 0108 05       		.uleb128 0x5
 3006 0109 00       		.byte	0
 3007 010a 00       		.byte	0
 3008 010b 18       		.uleb128 0x18
 3009 010c 2E       		.uleb128 0x2e
 3010 010d 00       		.byte	0
 3011 010e 03       		.uleb128 0x3
 3012 010f 0E       		.uleb128 0xe
 3013 0110 3A       		.uleb128 0x3a
 3014 0111 0B       		.uleb128 0xb
 3015 0112 3B       		.uleb128 0x3b
 3016 0113 05       		.uleb128 0x5
 3017 0114 27       		.uleb128 0x27
 3018 0115 19       		.uleb128 0x19
 3019 0116 11       		.uleb128 0x11
 3020 0117 01       		.uleb128 0x1
 3021 0118 12       		.uleb128 0x12
 3022 0119 06       		.uleb128 0x6
 3023 011a 40       		.uleb128 0x40
 3024 011b 18       		.uleb128 0x18
 3025 011c 9742     		.uleb128 0x2117
 3026 011e 19       		.uleb128 0x19
 3027 011f 00       		.byte	0
 3028 0120 00       		.byte	0
 3029 0121 19       		.uleb128 0x19
 3030 0122 2E       		.uleb128 0x2e
 3031 0123 01       		.byte	0x1
 3032 0124 03       		.uleb128 0x3
 3033 0125 0E       		.uleb128 0xe
 3034 0126 3A       		.uleb128 0x3a
 3035 0127 0B       		.uleb128 0xb
 3036 0128 3B       		.uleb128 0x3b
 3037 0129 0B       		.uleb128 0xb
 3038 012a 27       		.uleb128 0x27
 3039 012b 19       		.uleb128 0x19
 3040 012c 11       		.uleb128 0x11
 3041 012d 01       		.uleb128 0x1
 3042 012e 12       		.uleb128 0x12
 3043 012f 06       		.uleb128 0x6
 3044 0130 40       		.uleb128 0x40
ARM GAS  C:\Users\alvin\AppData\Local\Temp\cc0iGj3s.s 			page 91


 3045 0131 18       		.uleb128 0x18
 3046 0132 9742     		.uleb128 0x2117
 3047 0134 19       		.uleb128 0x19
 3048 0135 01       		.uleb128 0x1
 3049 0136 13       		.uleb128 0x13
 3050 0137 00       		.byte	0
 3051 0138 00       		.byte	0
 3052 0139 1A       		.uleb128 0x1a
 3053 013a 05       		.uleb128 0x5
 3054 013b 00       		.byte	0
 3055 013c 03       		.uleb128 0x3
 3056 013d 0E       		.uleb128 0xe
 3057 013e 3A       		.uleb128 0x3a
 3058 013f 0B       		.uleb128 0xb
 3059 0140 3B       		.uleb128 0x3b
 3060 0141 0B       		.uleb128 0xb
 3061 0142 49       		.uleb128 0x49
 3062 0143 13       		.uleb128 0x13
 3063 0144 02       		.uleb128 0x2
 3064 0145 17       		.uleb128 0x17
 3065 0146 00       		.byte	0
 3066 0147 00       		.byte	0
 3067 0148 1B       		.uleb128 0x1b
 3068 0149 34       		.uleb128 0x34
 3069 014a 00       		.byte	0
 3070 014b 03       		.uleb128 0x3
 3071 014c 0E       		.uleb128 0xe
 3072 014d 3A       		.uleb128 0x3a
 3073 014e 0B       		.uleb128 0xb
 3074 014f 3B       		.uleb128 0x3b
 3075 0150 0B       		.uleb128 0xb
 3076 0151 49       		.uleb128 0x49
 3077 0152 13       		.uleb128 0x13
 3078 0153 02       		.uleb128 0x2
 3079 0154 17       		.uleb128 0x17
 3080 0155 00       		.byte	0
 3081 0156 00       		.byte	0
 3082 0157 1C       		.uleb128 0x1c
 3083 0158 0B       		.uleb128 0xb
 3084 0159 01       		.byte	0x1
 3085 015a 11       		.uleb128 0x11
 3086 015b 01       		.uleb128 0x1
 3087 015c 12       		.uleb128 0x12
 3088 015d 06       		.uleb128 0x6
 3089 015e 01       		.uleb128 0x1
 3090 015f 13       		.uleb128 0x13
 3091 0160 00       		.byte	0
 3092 0161 00       		.byte	0
 3093 0162 1D       		.uleb128 0x1d
 3094 0163 34       		.uleb128 0x34
 3095 0164 00       		.byte	0
 3096 0165 03       		.uleb128 0x3
 3097 0166 0E       		.uleb128 0xe
 3098 0167 3A       		.uleb128 0x3a
 3099 0168 0B       		.uleb128 0xb
 3100 0169 3B       		.uleb128 0x3b
 3101 016a 05       		.uleb128 0x5
ARM GAS  C:\Users\alvin\AppData\Local\Temp\cc0iGj3s.s 			page 92


 3102 016b 49       		.uleb128 0x49
 3103 016c 13       		.uleb128 0x13
 3104 016d 02       		.uleb128 0x2
 3105 016e 18       		.uleb128 0x18
 3106 016f 00       		.byte	0
 3107 0170 00       		.byte	0
 3108 0171 1E       		.uleb128 0x1e
 3109 0172 898201   		.uleb128 0x4109
 3110 0175 01       		.byte	0x1
 3111 0176 11       		.uleb128 0x11
 3112 0177 01       		.uleb128 0x1
 3113 0178 31       		.uleb128 0x31
 3114 0179 13       		.uleb128 0x13
 3115 017a 00       		.byte	0
 3116 017b 00       		.byte	0
 3117 017c 1F       		.uleb128 0x1f
 3118 017d 8A8201   		.uleb128 0x410a
 3119 0180 00       		.byte	0
 3120 0181 02       		.uleb128 0x2
 3121 0182 18       		.uleb128 0x18
 3122 0183 9142     		.uleb128 0x2111
 3123 0185 18       		.uleb128 0x18
 3124 0186 00       		.byte	0
 3125 0187 00       		.byte	0
 3126 0188 20       		.uleb128 0x20
 3127 0189 898201   		.uleb128 0x4109
 3128 018c 01       		.byte	0x1
 3129 018d 11       		.uleb128 0x11
 3130 018e 01       		.uleb128 0x1
 3131 018f 31       		.uleb128 0x31
 3132 0190 13       		.uleb128 0x13
 3133 0191 01       		.uleb128 0x1
 3134 0192 13       		.uleb128 0x13
 3135 0193 00       		.byte	0
 3136 0194 00       		.byte	0
 3137 0195 21       		.uleb128 0x21
 3138 0196 898201   		.uleb128 0x4109
 3139 0199 00       		.byte	0
 3140 019a 11       		.uleb128 0x11
 3141 019b 01       		.uleb128 0x1
 3142 019c 31       		.uleb128 0x31
 3143 019d 13       		.uleb128 0x13
 3144 019e 00       		.byte	0
 3145 019f 00       		.byte	0
 3146 01a0 22       		.uleb128 0x22
 3147 01a1 2E       		.uleb128 0x2e
 3148 01a2 01       		.byte	0x1
 3149 01a3 3F       		.uleb128 0x3f
 3150 01a4 19       		.uleb128 0x19
 3151 01a5 03       		.uleb128 0x3
 3152 01a6 0E       		.uleb128 0xe
 3153 01a7 3A       		.uleb128 0x3a
 3154 01a8 0B       		.uleb128 0xb
 3155 01a9 3B       		.uleb128 0x3b
 3156 01aa 05       		.uleb128 0x5
 3157 01ab 27       		.uleb128 0x27
 3158 01ac 19       		.uleb128 0x19
ARM GAS  C:\Users\alvin\AppData\Local\Temp\cc0iGj3s.s 			page 93


 3159 01ad 49       		.uleb128 0x49
 3160 01ae 13       		.uleb128 0x13
 3161 01af 11       		.uleb128 0x11
 3162 01b0 01       		.uleb128 0x1
 3163 01b1 12       		.uleb128 0x12
 3164 01b2 06       		.uleb128 0x6
 3165 01b3 40       		.uleb128 0x40
 3166 01b4 18       		.uleb128 0x18
 3167 01b5 9742     		.uleb128 0x2117
 3168 01b7 19       		.uleb128 0x19
 3169 01b8 01       		.uleb128 0x1
 3170 01b9 13       		.uleb128 0x13
 3171 01ba 00       		.byte	0
 3172 01bb 00       		.byte	0
 3173 01bc 23       		.uleb128 0x23
 3174 01bd 05       		.uleb128 0x5
 3175 01be 00       		.byte	0
 3176 01bf 03       		.uleb128 0x3
 3177 01c0 0E       		.uleb128 0xe
 3178 01c1 3A       		.uleb128 0x3a
 3179 01c2 0B       		.uleb128 0xb
 3180 01c3 3B       		.uleb128 0x3b
 3181 01c4 05       		.uleb128 0x5
 3182 01c5 49       		.uleb128 0x49
 3183 01c6 13       		.uleb128 0x13
 3184 01c7 02       		.uleb128 0x2
 3185 01c8 17       		.uleb128 0x17
 3186 01c9 00       		.byte	0
 3187 01ca 00       		.byte	0
 3188 01cb 24       		.uleb128 0x24
 3189 01cc 34       		.uleb128 0x34
 3190 01cd 00       		.byte	0
 3191 01ce 03       		.uleb128 0x3
 3192 01cf 08       		.uleb128 0x8
 3193 01d0 3A       		.uleb128 0x3a
 3194 01d1 0B       		.uleb128 0xb
 3195 01d2 3B       		.uleb128 0x3b
 3196 01d3 05       		.uleb128 0x5
 3197 01d4 49       		.uleb128 0x49
 3198 01d5 13       		.uleb128 0x13
 3199 01d6 02       		.uleb128 0x2
 3200 01d7 17       		.uleb128 0x17
 3201 01d8 00       		.byte	0
 3202 01d9 00       		.byte	0
 3203 01da 25       		.uleb128 0x25
 3204 01db 34       		.uleb128 0x34
 3205 01dc 00       		.byte	0
 3206 01dd 03       		.uleb128 0x3
 3207 01de 0E       		.uleb128 0xe
 3208 01df 3A       		.uleb128 0x3a
 3209 01e0 0B       		.uleb128 0xb
 3210 01e1 3B       		.uleb128 0x3b
 3211 01e2 05       		.uleb128 0x5
 3212 01e3 49       		.uleb128 0x49
 3213 01e4 13       		.uleb128 0x13
 3214 01e5 02       		.uleb128 0x2
 3215 01e6 17       		.uleb128 0x17
ARM GAS  C:\Users\alvin\AppData\Local\Temp\cc0iGj3s.s 			page 94


 3216 01e7 00       		.byte	0
 3217 01e8 00       		.byte	0
 3218 01e9 26       		.uleb128 0x26
 3219 01ea 26       		.uleb128 0x26
 3220 01eb 00       		.byte	0
 3221 01ec 49       		.uleb128 0x49
 3222 01ed 13       		.uleb128 0x13
 3223 01ee 00       		.byte	0
 3224 01ef 00       		.byte	0
 3225 01f0 27       		.uleb128 0x27
 3226 01f1 2E       		.uleb128 0x2e
 3227 01f2 01       		.byte	0x1
 3228 01f3 3F       		.uleb128 0x3f
 3229 01f4 19       		.uleb128 0x19
 3230 01f5 03       		.uleb128 0x3
 3231 01f6 0E       		.uleb128 0xe
 3232 01f7 3A       		.uleb128 0x3a
 3233 01f8 0B       		.uleb128 0xb
 3234 01f9 3B       		.uleb128 0x3b
 3235 01fa 05       		.uleb128 0x5
 3236 01fb 27       		.uleb128 0x27
 3237 01fc 19       		.uleb128 0x19
 3238 01fd 11       		.uleb128 0x11
 3239 01fe 01       		.uleb128 0x1
 3240 01ff 12       		.uleb128 0x12
 3241 0200 06       		.uleb128 0x6
 3242 0201 40       		.uleb128 0x40
 3243 0202 18       		.uleb128 0x18
 3244 0203 9742     		.uleb128 0x2117
 3245 0205 19       		.uleb128 0x19
 3246 0206 01       		.uleb128 0x1
 3247 0207 13       		.uleb128 0x13
 3248 0208 00       		.byte	0
 3249 0209 00       		.byte	0
 3250 020a 28       		.uleb128 0x28
 3251 020b 0B       		.uleb128 0xb
 3252 020c 01       		.byte	0x1
 3253 020d 11       		.uleb128 0x11
 3254 020e 01       		.uleb128 0x1
 3255 020f 12       		.uleb128 0x12
 3256 0210 06       		.uleb128 0x6
 3257 0211 00       		.byte	0
 3258 0212 00       		.byte	0
 3259 0213 29       		.uleb128 0x29
 3260 0214 34       		.uleb128 0x34
 3261 0215 00       		.byte	0
 3262 0216 03       		.uleb128 0x3
 3263 0217 0E       		.uleb128 0xe
 3264 0218 3A       		.uleb128 0x3a
 3265 0219 0B       		.uleb128 0xb
 3266 021a 3B       		.uleb128 0x3b
 3267 021b 05       		.uleb128 0x5
 3268 021c 49       		.uleb128 0x49
 3269 021d 13       		.uleb128 0x13
 3270 021e 00       		.byte	0
 3271 021f 00       		.byte	0
 3272 0220 2A       		.uleb128 0x2a
ARM GAS  C:\Users\alvin\AppData\Local\Temp\cc0iGj3s.s 			page 95


 3273 0221 898201   		.uleb128 0x4109
 3274 0224 01       		.byte	0x1
 3275 0225 11       		.uleb128 0x11
 3276 0226 01       		.uleb128 0x1
 3277 0227 00       		.byte	0
 3278 0228 00       		.byte	0
 3279 0229 2B       		.uleb128 0x2b
 3280 022a 34       		.uleb128 0x34
 3281 022b 00       		.byte	0
 3282 022c 03       		.uleb128 0x3
 3283 022d 0E       		.uleb128 0xe
 3284 022e 3A       		.uleb128 0x3a
 3285 022f 0B       		.uleb128 0xb
 3286 0230 3B       		.uleb128 0x3b
 3287 0231 05       		.uleb128 0x5
 3288 0232 49       		.uleb128 0x49
 3289 0233 13       		.uleb128 0x13
 3290 0234 3F       		.uleb128 0x3f
 3291 0235 19       		.uleb128 0x19
 3292 0236 3C       		.uleb128 0x3c
 3293 0237 19       		.uleb128 0x19
 3294 0238 00       		.byte	0
 3295 0239 00       		.byte	0
 3296 023a 2C       		.uleb128 0x2c
 3297 023b 34       		.uleb128 0x34
 3298 023c 00       		.byte	0
 3299 023d 03       		.uleb128 0x3
 3300 023e 0E       		.uleb128 0xe
 3301 023f 3A       		.uleb128 0x3a
 3302 0240 0B       		.uleb128 0xb
 3303 0241 3B       		.uleb128 0x3b
 3304 0242 0B       		.uleb128 0xb
 3305 0243 49       		.uleb128 0x49
 3306 0244 13       		.uleb128 0x13
 3307 0245 3F       		.uleb128 0x3f
 3308 0246 19       		.uleb128 0x19
 3309 0247 02       		.uleb128 0x2
 3310 0248 18       		.uleb128 0x18
 3311 0249 00       		.byte	0
 3312 024a 00       		.byte	0
 3313 024b 2D       		.uleb128 0x2d
 3314 024c 34       		.uleb128 0x34
 3315 024d 00       		.byte	0
 3316 024e 03       		.uleb128 0x3
 3317 024f 0E       		.uleb128 0xe
 3318 0250 3A       		.uleb128 0x3a
 3319 0251 0B       		.uleb128 0xb
 3320 0252 3B       		.uleb128 0x3b
 3321 0253 0B       		.uleb128 0xb
 3322 0254 49       		.uleb128 0x49
 3323 0255 13       		.uleb128 0x13
 3324 0256 3F       		.uleb128 0x3f
 3325 0257 19       		.uleb128 0x19
 3326 0258 3C       		.uleb128 0x3c
 3327 0259 19       		.uleb128 0x19
 3328 025a 00       		.byte	0
 3329 025b 00       		.byte	0
ARM GAS  C:\Users\alvin\AppData\Local\Temp\cc0iGj3s.s 			page 96


 3330 025c 2E       		.uleb128 0x2e
 3331 025d 2E       		.uleb128 0x2e
 3332 025e 01       		.byte	0x1
 3333 025f 3F       		.uleb128 0x3f
 3334 0260 19       		.uleb128 0x19
 3335 0261 03       		.uleb128 0x3
 3336 0262 0E       		.uleb128 0xe
 3337 0263 3A       		.uleb128 0x3a
 3338 0264 0B       		.uleb128 0xb
 3339 0265 3B       		.uleb128 0x3b
 3340 0266 05       		.uleb128 0x5
 3341 0267 27       		.uleb128 0x27
 3342 0268 19       		.uleb128 0x19
 3343 0269 49       		.uleb128 0x49
 3344 026a 13       		.uleb128 0x13
 3345 026b 3C       		.uleb128 0x3c
 3346 026c 19       		.uleb128 0x19
 3347 026d 01       		.uleb128 0x1
 3348 026e 13       		.uleb128 0x13
 3349 026f 00       		.byte	0
 3350 0270 00       		.byte	0
 3351 0271 2F       		.uleb128 0x2f
 3352 0272 2E       		.uleb128 0x2e
 3353 0273 01       		.byte	0x1
 3354 0274 3F       		.uleb128 0x3f
 3355 0275 19       		.uleb128 0x19
 3356 0276 03       		.uleb128 0x3
 3357 0277 0E       		.uleb128 0xe
 3358 0278 3A       		.uleb128 0x3a
 3359 0279 0B       		.uleb128 0xb
 3360 027a 3B       		.uleb128 0x3b
 3361 027b 0B       		.uleb128 0xb
 3362 027c 27       		.uleb128 0x27
 3363 027d 19       		.uleb128 0x19
 3364 027e 49       		.uleb128 0x49
 3365 027f 13       		.uleb128 0x13
 3366 0280 3C       		.uleb128 0x3c
 3367 0281 19       		.uleb128 0x19
 3368 0282 01       		.uleb128 0x1
 3369 0283 13       		.uleb128 0x13
 3370 0284 00       		.byte	0
 3371 0285 00       		.byte	0
 3372 0286 30       		.uleb128 0x30
 3373 0287 2E       		.uleb128 0x2e
 3374 0288 01       		.byte	0x1
 3375 0289 3F       		.uleb128 0x3f
 3376 028a 19       		.uleb128 0x19
 3377 028b 03       		.uleb128 0x3
 3378 028c 0E       		.uleb128 0xe
 3379 028d 27       		.uleb128 0x27
 3380 028e 19       		.uleb128 0x19
 3381 028f 49       		.uleb128 0x49
 3382 0290 13       		.uleb128 0x13
 3383 0291 34       		.uleb128 0x34
 3384 0292 19       		.uleb128 0x19
 3385 0293 3C       		.uleb128 0x3c
 3386 0294 19       		.uleb128 0x19
ARM GAS  C:\Users\alvin\AppData\Local\Temp\cc0iGj3s.s 			page 97


 3387 0295 01       		.uleb128 0x1
 3388 0296 13       		.uleb128 0x13
 3389 0297 00       		.byte	0
 3390 0298 00       		.byte	0
 3391 0299 31       		.uleb128 0x31
 3392 029a 26       		.uleb128 0x26
 3393 029b 00       		.byte	0
 3394 029c 00       		.byte	0
 3395 029d 00       		.byte	0
 3396 029e 32       		.uleb128 0x32
 3397 029f 2E       		.uleb128 0x2e
 3398 02a0 01       		.byte	0x1
 3399 02a1 3F       		.uleb128 0x3f
 3400 02a2 19       		.uleb128 0x19
 3401 02a3 03       		.uleb128 0x3
 3402 02a4 0E       		.uleb128 0xe
 3403 02a5 3A       		.uleb128 0x3a
 3404 02a6 0B       		.uleb128 0xb
 3405 02a7 3B       		.uleb128 0x3b
 3406 02a8 05       		.uleb128 0x5
 3407 02a9 27       		.uleb128 0x27
 3408 02aa 19       		.uleb128 0x19
 3409 02ab 3C       		.uleb128 0x3c
 3410 02ac 19       		.uleb128 0x19
 3411 02ad 01       		.uleb128 0x1
 3412 02ae 13       		.uleb128 0x13
 3413 02af 00       		.byte	0
 3414 02b0 00       		.byte	0
 3415 02b1 00       		.byte	0
 3416              		.section	.debug_loc,"",%progbits
 3417              	.Ldebug_loc0:
 3418              	.LLST0:
 3419 0000 00000000 		.4byte	.LVL0
 3420 0004 09000000 		.4byte	.LVL1-1
 3421 0008 0100     		.2byte	0x1
 3422 000a 50       		.byte	0x50
 3423 000b 09000000 		.4byte	.LVL1-1
 3424 000f 32000000 		.4byte	.LVL7
 3425 0013 0100     		.2byte	0x1
 3426 0015 54       		.byte	0x54
 3427 0016 32000000 		.4byte	.LVL7
 3428 001a 38000000 		.4byte	.LFE2
 3429 001e 0400     		.2byte	0x4
 3430 0020 F3       		.byte	0xf3
 3431 0021 01       		.uleb128 0x1
 3432 0022 50       		.byte	0x50
 3433 0023 9F       		.byte	0x9f
 3434 0024 00000000 		.4byte	0
 3435 0028 00000000 		.4byte	0
 3436              	.LLST1:
 3437 002c 0A000000 		.4byte	.LVL1
 3438 0030 24000000 		.4byte	.LVL2
 3439 0034 0100     		.2byte	0x1
 3440 0036 50       		.byte	0x50
 3441 0037 24000000 		.4byte	.LVL2
 3442 003b 27000000 		.4byte	.LVL3-1
 3443 003f 0200     		.2byte	0x2
ARM GAS  C:\Users\alvin\AppData\Local\Temp\cc0iGj3s.s 			page 98


 3444 0041 71       		.byte	0x71
 3445 0042 03       		.sleb128 3
 3446 0043 2A000000 		.4byte	.LVL4
 3447 0047 2C000000 		.4byte	.LVL5
 3448 004b 0100     		.2byte	0x1
 3449 004d 50       		.byte	0x50
 3450 004e 00000000 		.4byte	0
 3451 0052 00000000 		.4byte	0
 3452              	.LLST2:
 3453 0056 00000000 		.4byte	.LVL8
 3454 005a 08000000 		.4byte	.LVL9
 3455 005e 0100     		.2byte	0x1
 3456 0060 50       		.byte	0x50
 3457 0061 08000000 		.4byte	.LVL9
 3458 0065 0A000000 		.4byte	.LVL10
 3459 0069 0400     		.2byte	0x4
 3460 006b F3       		.byte	0xf3
 3461 006c 01       		.uleb128 0x1
 3462 006d 50       		.byte	0x50
 3463 006e 9F       		.byte	0x9f
 3464 006f 0A000000 		.4byte	.LVL10
 3465 0073 1E000000 		.4byte	.LVL15
 3466 0077 0100     		.2byte	0x1
 3467 0079 50       		.byte	0x50
 3468 007a 1E000000 		.4byte	.LVL15
 3469 007e 20000000 		.4byte	.LVL16
 3470 0082 0400     		.2byte	0x4
 3471 0084 F3       		.byte	0xf3
 3472 0085 01       		.uleb128 0x1
 3473 0086 50       		.byte	0x50
 3474 0087 9F       		.byte	0x9f
 3475 0088 20000000 		.4byte	.LVL16
 3476 008c 22000000 		.4byte	.LVL17
 3477 0090 0100     		.2byte	0x1
 3478 0092 50       		.byte	0x50
 3479 0093 22000000 		.4byte	.LVL17
 3480 0097 24000000 		.4byte	.LFE7
 3481 009b 0400     		.2byte	0x4
 3482 009d F3       		.byte	0xf3
 3483 009e 01       		.uleb128 0x1
 3484 009f 50       		.byte	0x50
 3485 00a0 9F       		.byte	0x9f
 3486 00a1 00000000 		.4byte	0
 3487 00a5 00000000 		.4byte	0
 3488              	.LLST3:
 3489 00a9 0A000000 		.4byte	.LVL10
 3490 00ad 12000000 		.4byte	.LVL11
 3491 00b1 0100     		.2byte	0x1
 3492 00b3 53       		.byte	0x53
 3493 00b4 14000000 		.4byte	.LVL12
 3494 00b8 16000000 		.4byte	.LVL13
 3495 00bc 0100     		.2byte	0x1
 3496 00be 53       		.byte	0x53
 3497 00bf 18000000 		.4byte	.LVL14
 3498 00c3 22000000 		.4byte	.LVL17
 3499 00c7 0100     		.2byte	0x1
 3500 00c9 53       		.byte	0x53
ARM GAS  C:\Users\alvin\AppData\Local\Temp\cc0iGj3s.s 			page 99


 3501 00ca 00000000 		.4byte	0
 3502 00ce 00000000 		.4byte	0
 3503              	.LLST4:
 3504 00d2 00000000 		.4byte	.LVL8
 3505 00d6 22000000 		.4byte	.LVL17
 3506 00da 0200     		.2byte	0x2
 3507 00dc 30       		.byte	0x30
 3508 00dd 9F       		.byte	0x9f
 3509 00de 22000000 		.4byte	.LVL17
 3510 00e2 24000000 		.4byte	.LFE7
 3511 00e6 0100     		.2byte	0x1
 3512 00e8 50       		.byte	0x50
 3513 00e9 00000000 		.4byte	0
 3514 00ed 00000000 		.4byte	0
 3515              	.LLST5:
 3516 00f1 00000000 		.4byte	.LVL18
 3517 00f5 7C000000 		.4byte	.LVL20
 3518 00f9 0100     		.2byte	0x1
 3519 00fb 50       		.byte	0x50
 3520 00fc 7C000000 		.4byte	.LVL20
 3521 0100 1E010000 		.4byte	.LVL35
 3522 0104 0400     		.2byte	0x4
 3523 0106 F3       		.byte	0xf3
 3524 0107 01       		.uleb128 0x1
 3525 0108 50       		.byte	0x50
 3526 0109 9F       		.byte	0x9f
 3527 010a 1E010000 		.4byte	.LVL35
 3528 010e 68010000 		.4byte	.LVL38
 3529 0112 0100     		.2byte	0x1
 3530 0114 50       		.byte	0x50
 3531 0115 68010000 		.4byte	.LVL38
 3532 0119 7A010000 		.4byte	.LVL40
 3533 011d 0400     		.2byte	0x4
 3534 011f F3       		.byte	0xf3
 3535 0120 01       		.uleb128 0x1
 3536 0121 50       		.byte	0x50
 3537 0122 9F       		.byte	0x9f
 3538 0123 7A010000 		.4byte	.LVL40
 3539 0127 EE010000 		.4byte	.LVL43
 3540 012b 0100     		.2byte	0x1
 3541 012d 50       		.byte	0x50
 3542 012e EE010000 		.4byte	.LVL43
 3543 0132 18020000 		.4byte	.LVL46
 3544 0136 0400     		.2byte	0x4
 3545 0138 F3       		.byte	0xf3
 3546 0139 01       		.uleb128 0x1
 3547 013a 50       		.byte	0x50
 3548 013b 9F       		.byte	0x9f
 3549 013c 18020000 		.4byte	.LVL46
 3550 0140 1B020000 		.4byte	.LVL47-1
 3551 0144 0100     		.2byte	0x1
 3552 0146 50       		.byte	0x50
 3553 0147 1B020000 		.4byte	.LVL47-1
 3554 014b 1E020000 		.4byte	.LVL48
 3555 014f 0400     		.2byte	0x4
 3556 0151 F3       		.byte	0xf3
 3557 0152 01       		.uleb128 0x1
ARM GAS  C:\Users\alvin\AppData\Local\Temp\cc0iGj3s.s 			page 100


 3558 0153 50       		.byte	0x50
 3559 0154 9F       		.byte	0x9f
 3560 0155 1E020000 		.4byte	.LVL48
 3561 0159 28020000 		.4byte	.LVL50
 3562 015d 0100     		.2byte	0x1
 3563 015f 50       		.byte	0x50
 3564 0160 28020000 		.4byte	.LVL50
 3565 0164 2E020000 		.4byte	.LVL52
 3566 0168 0400     		.2byte	0x4
 3567 016a F3       		.byte	0xf3
 3568 016b 01       		.uleb128 0x1
 3569 016c 50       		.byte	0x50
 3570 016d 9F       		.byte	0x9f
 3571 016e 2E020000 		.4byte	.LVL52
 3572 0172 30020000 		.4byte	.LVL53
 3573 0176 0100     		.2byte	0x1
 3574 0178 50       		.byte	0x50
 3575 0179 30020000 		.4byte	.LVL53
 3576 017d 36020000 		.4byte	.LVL55
 3577 0181 0400     		.2byte	0x4
 3578 0183 F3       		.byte	0xf3
 3579 0184 01       		.uleb128 0x1
 3580 0185 50       		.byte	0x50
 3581 0186 9F       		.byte	0x9f
 3582 0187 36020000 		.4byte	.LVL55
 3583 018b 40020000 		.4byte	.LVL56
 3584 018f 0100     		.2byte	0x1
 3585 0191 50       		.byte	0x50
 3586 0192 40020000 		.4byte	.LVL56
 3587 0196 B4020000 		.4byte	.LFE10
 3588 019a 0400     		.2byte	0x4
 3589 019c F3       		.byte	0xf3
 3590 019d 01       		.uleb128 0x1
 3591 019e 50       		.byte	0x50
 3592 019f 9F       		.byte	0x9f
 3593 01a0 00000000 		.4byte	0
 3594 01a4 00000000 		.4byte	0
 3595              	.LLST6:
 3596 01a8 00000000 		.4byte	.LVL18
 3597 01ac 0C000000 		.4byte	.LVL19
 3598 01b0 0100     		.2byte	0x1
 3599 01b2 51       		.byte	0x51
 3600 01b3 0C000000 		.4byte	.LVL19
 3601 01b7 60020000 		.4byte	.LVL58
 3602 01bb 0100     		.2byte	0x1
 3603 01bd 55       		.byte	0x55
 3604 01be 60020000 		.4byte	.LVL58
 3605 01c2 B4020000 		.4byte	.LFE10
 3606 01c6 0400     		.2byte	0x4
 3607 01c8 F3       		.byte	0xf3
 3608 01c9 01       		.uleb128 0x1
 3609 01ca 51       		.byte	0x51
 3610 01cb 9F       		.byte	0x9f
 3611 01cc 00000000 		.4byte	0
 3612 01d0 00000000 		.4byte	0
 3613              	.LLST7:
 3614 01d4 DE000000 		.4byte	.LVL27
ARM GAS  C:\Users\alvin\AppData\Local\Temp\cc0iGj3s.s 			page 101


 3615 01d8 E8000000 		.4byte	.LVL28
 3616 01dc 0100     		.2byte	0x1
 3617 01de 53       		.byte	0x53
 3618 01df 00000000 		.4byte	0
 3619 01e3 00000000 		.4byte	0
 3620              	.LLST8:
 3621 01e7 26010000 		.4byte	.LVL36
 3622 01eb 4E010000 		.4byte	.LVL37
 3623 01ef 0100     		.2byte	0x1
 3624 01f1 55       		.byte	0x55
 3625 01f2 00000000 		.4byte	0
 3626 01f6 00000000 		.4byte	0
 3627              	.LLST9:
 3628 01fa 82010000 		.4byte	.LVL41
 3629 01fe 8A010000 		.4byte	.LVL42
 3630 0202 0100     		.2byte	0x1
 3631 0204 55       		.byte	0x55
 3632 0205 00000000 		.4byte	0
 3633 0209 00000000 		.4byte	0
 3634              	.LLST10:
 3635 020d 26020000 		.4byte	.LVL49
 3636 0211 2B020000 		.4byte	.LVL51-1
 3637 0215 0100     		.2byte	0x1
 3638 0217 51       		.byte	0x51
 3639 0218 00000000 		.4byte	0
 3640 021c 00000000 		.4byte	0
 3641              		.section	.debug_aranges,"",%progbits
 3642 0000 34000000 		.4byte	0x34
 3643 0004 0200     		.2byte	0x2
 3644 0006 00000000 		.4byte	.Ldebug_info0
 3645 000a 04       		.byte	0x4
 3646 000b 00       		.byte	0
 3647 000c 0000     		.2byte	0
 3648 000e 0000     		.2byte	0
 3649 0010 00000000 		.4byte	.LFB4
 3650 0014 10000000 		.4byte	.LFE4-.LFB4
 3651 0018 00000000 		.4byte	.LFB2
 3652 001c 38000000 		.4byte	.LFE2-.LFB2
 3653 0020 00000000 		.4byte	.LFB7
 3654 0024 24000000 		.4byte	.LFE7-.LFB7
 3655 0028 00000000 		.4byte	.LFB10
 3656 002c B4020000 		.4byte	.LFE10-.LFB10
 3657 0030 00000000 		.4byte	0
 3658 0034 00000000 		.4byte	0
 3659              		.section	.debug_ranges,"",%progbits
 3660              	.Ldebug_ranges0:
 3661 0000 00000000 		.4byte	.LFB4
 3662 0004 10000000 		.4byte	.LFE4
 3663 0008 00000000 		.4byte	.LFB2
 3664 000c 38000000 		.4byte	.LFE2
 3665 0010 00000000 		.4byte	.LFB7
 3666 0014 24000000 		.4byte	.LFE7
 3667 0018 00000000 		.4byte	.LFB10
 3668 001c B4020000 		.4byte	.LFE10
 3669 0020 00000000 		.4byte	0
 3670 0024 00000000 		.4byte	0
 3671              		.section	.debug_line,"",%progbits
ARM GAS  C:\Users\alvin\AppData\Local\Temp\cc0iGj3s.s 			page 102


 3672              	.Ldebug_line0:
 3673 0000 BA010000 		.section	.debug_str,"MS",%progbits,1
 3673      0200E000 
 3673      00000201 
 3673      FB0E0D00 
 3673      01010101 
 3674              	.LASF320:
 3675 0000 6379426C 		.ascii	"cyBle_peerBonding\000"
 3675      655F7065 
 3675      6572426F 
 3675      6E64696E 
 3675      6700
 3676              	.LASF256:
 3677 0012 4359424C 		.ascii	"CYBLE_GATT_ERR_INVALID_CRC\000"
 3677      455F4741 
 3677      54545F45 
 3677      52525F49 
 3677      4E56414C 
 3678              	.LASF15:
 3679 002d 73697A65 		.ascii	"sizetype\000"
 3679      74797065 
 3679      00
 3680              	.LASF183:
 3681 0036 656B6579 		.ascii	"ekeySize\000"
 3681      53697A65 
 3681      00
 3682              	.LASF226:
 3683 003f 4359424C 		.ascii	"CYBLE_GATT_HANDLE_VALUE_CNF\000"
 3683      455F4741 
 3683      54545F48 
 3683      414E444C 
 3683      455F5641 
 3684              	.LASF333:
 3685 005b 4379426C 		.ascii	"CyBle_SetDeviceAddress\000"
 3685      655F5365 
 3685      74446576 
 3685      69636541 
 3685      64647265 
 3686              	.LASF36:
 3687 0072 4359424C 		.ascii	"CYBLE_EVT_GAP_NUMERIC_COMPARISON_REQUEST\000"
 3687      455F4556 
 3687      545F4741 
 3687      505F4E55 
 3687      4D455249 
 3688              	.LASF336:
 3689 009b 4379426C 		.ascii	"CyBle_GapSetIoCap\000"
 3689      655F4761 
 3689      70536574 
 3689      496F4361 
 3689      7000
 3690              	.LASF342:
 3691 00ad 4379426C 		.ascii	"CyBle_WriteReqHandler\000"
 3691      655F5772 
 3691      69746552 
 3691      65714861 
 3691      6E646C65 
 3692              	.LASF135:
ARM GAS  C:\Users\alvin\AppData\Local\Temp\cc0iGj3s.s 			page 103


 3693 00c3 72657175 		.ascii	"request\000"
 3693      65737400 
 3694              	.LASF264:
 3695 00cb 4359424C 		.ascii	"CYBLE_GATT_ERR_CCCD_IMPROPERLY_CONFIGURED\000"
 3695      455F4741 
 3695      54545F45 
 3695      52525F43 
 3695      4343445F 
 3696              	.LASF302:
 3697 00f5 6576656E 		.ascii	"eventParam\000"
 3697      74506172 
 3697      616D00
 3698              	.LASF30:
 3699 0100 4359424C 		.ascii	"CYBLE_EVT_GAP_DEVICE_CONNECTED\000"
 3699      455F4556 
 3699      545F4741 
 3699      505F4445 
 3699      56494345 
 3700              	.LASF155:
 3701 011f 4359424C 		.ascii	"CYBLE_GAP_IOCAP_NOINPUT_NOOUTPUT\000"
 3701      455F4741 
 3701      505F494F 
 3701      4341505F 
 3701      4E4F494E 
 3702              	.LASF44:
 3703 0140 4359424C 		.ascii	"CYBLE_EVT_GATT_CONNECT_IND\000"
 3703      455F4556 
 3703      545F4741 
 3703      54545F43 
 3703      4F4E4E45 
 3704              	.LASF219:
 3705 015b 4359424C 		.ascii	"CYBLE_GATT_WRITE_CMD\000"
 3705      455F4741 
 3705      54545F57 
 3705      52495445 
 3705      5F434D44 
 3706              	.LASF11:
 3707 0170 75696E74 		.ascii	"uint32\000"
 3707      333200
 3708              	.LASF157:
 3709 0177 4359424C 		.ascii	"CYBLE_GAP_IOCAP_T\000"
 3709      455F4741 
 3709      505F494F 
 3709      4341505F 
 3709      5400
 3710              	.LASF129:
 3711 0189 626C6550 		.ascii	"blePwrLevelInDbm\000"
 3711      77724C65 
 3711      76656C49 
 3711      6E44626D 
 3711      00
 3712              	.LASF231:
 3713 019a 4359424C 		.ascii	"CYBLE_GATT_ERR_READ_NOT_PERMITTED\000"
 3713      455F4741 
 3713      54545F45 
 3713      52525F52 
 3713      4541445F 
ARM GAS  C:\Users\alvin\AppData\Local\Temp\cc0iGj3s.s 			page 104


 3714              	.LASF246:
 3715 01bc 4359424C 		.ascii	"CYBLE_GATT_ERR_INSUFFICIENT_RESOURCE\000"
 3715      455F4741 
 3715      54545F45 
 3715      52525F49 
 3715      4E535546 
 3716              	.LASF220:
 3717 01e1 4359424C 		.ascii	"CYBLE_GATT_PREPARE_WRITE_REQ\000"
 3717      455F4741 
 3717      54545F50 
 3717      52455041 
 3717      52455F57 
 3718              	.LASF245:
 3719 01fe 4359424C 		.ascii	"CYBLE_GATT_ERR_UNSUPPORTED_GROUP_TYPE\000"
 3719      455F4741 
 3719      54545F45 
 3719      52525F55 
 3719      4E535550 
 3720              	.LASF98:
 3721 0224 4359424C 		.ascii	"CYBLE_ERROR_L2CAP_CONNECTION_ENTITY_NOT_FOUND\000"
 3721      455F4552 
 3721      524F525F 
 3721      4C324341 
 3721      505F434F 
 3722              	.LASF104:
 3723 0252 4359424C 		.ascii	"CYBLE_ERROR_MIC_AUTH_FAILED\000"
 3723      455F4552 
 3723      524F525F 
 3723      4D49435F 
 3723      41555448 
 3724              	.LASF64:
 3725 026e 4359424C 		.ascii	"CYBLE_EVT_GATTS_DATA_SIGNED_CMD_REQ\000"
 3725      455F4556 
 3725      545F4741 
 3725      5454535F 
 3725      44415441 
 3726              	.LASF76:
 3727 0292 4359424C 		.ascii	"CYBLE_EVT_L2CAP_CBFC_RX_CREDIT_IND\000"
 3727      455F4556 
 3727      545F4C32 
 3727      4341505F 
 3727      43424643 
 3728              	.LASF273:
 3729 02b5 4359424C 		.ascii	"CYBLE_GATT_VALUE_T\000"
 3729      455F4741 
 3729      54545F56 
 3729      414C5545 
 3729      5F5400
 3730              	.LASF309:
 3731 02c8 6D656D52 		.ascii	"memReq\000"
 3731      657100
 3732              	.LASF214:
 3733 02cf 4359424C 		.ascii	"CYBLE_GATT_READ_MULTIPLE_RSP\000"
 3733      455F4741 
 3733      54545F52 
 3733      4541445F 
 3733      4D554C54 
ARM GAS  C:\Users\alvin\AppData\Local\Temp\cc0iGj3s.s 			page 105


 3734              	.LASF140:
 3735 02ec 74797065 		.ascii	"type\000"
 3735      00
 3736              	.LASF146:
 3737 02f1 4359424C 		.ascii	"CYBLE_TO_REASON_CODE_T\000"
 3737      455F544F 
 3737      5F524541 
 3737      534F4E5F 
 3737      434F4445 
 3738              	.LASF173:
 3739 0308 4359424C 		.ascii	"CYBLE_GAP_AUTH_ERROR_AUTHENTICATION_TIMEOUT\000"
 3739      455F4741 
 3739      505F4155 
 3739      54485F45 
 3739      52524F52 
 3740              	.LASF166:
 3741 0334 4359424C 		.ascii	"CYBLE_GAP_AUTH_ERROR_UNSPECIFIED_REASON\000"
 3741      455F4741 
 3741      505F4155 
 3741      54485F45 
 3741      52524F52 
 3742              	.LASF208:
 3743 035c 4359424C 		.ascii	"CYBLE_GATT_READ_BY_TYPE_RSP\000"
 3743      455F4741 
 3743      54545F52 
 3743      4541445F 
 3743      42595F54 
 3744              	.LASF288:
 3745 0378 4359424C 		.ascii	"CYBLE_CALLBACK_T\000"
 3745      455F4341 
 3745      4C4C4241 
 3745      434B5F54 
 3745      00
 3746              	.LASF61:
 3747 0389 4359424C 		.ascii	"CYBLE_EVT_GATTC_HANDLE_VALUE_NTF\000"
 3747      455F4556 
 3747      545F4741 
 3747      5454435F 
 3747      48414E44 
 3748              	.LASF24:
 3749 03aa 4359424C 		.ascii	"CYBLE_EVT_GAP_AUTH_REQ\000"
 3749      455F4556 
 3749      545F4741 
 3749      505F4155 
 3749      54485F52 
 3750              	.LASF271:
 3751 03c1 4359424C 		.ascii	"CYBLE_CONN_HANDLE_T\000"
 3751      455F434F 
 3751      4E4E5F48 
 3751      414E444C 
 3751      455F5400 
 3752              	.LASF93:
 3753 03d5 4359424C 		.ascii	"CYBLE_ERROR_BT_ON_NOT_COMPLETED\000"
 3753      455F4552 
 3753      524F525F 
 3753      42545F4F 
 3753      4E5F4E4F 
ARM GAS  C:\Users\alvin\AppData\Local\Temp\cc0iGj3s.s 			page 106


 3754              	.LASF152:
 3755 03f5 4359424C 		.ascii	"CYBLE_GAP_IOCAP_DISPLAY_ONLY\000"
 3755      455F4741 
 3755      505F494F 
 3755      4341505F 
 3755      44495350 
 3756              	.LASF118:
 3757 0412 4359424C 		.ascii	"CYBLE_LL_PWR_LVL_NEG_3_DBM\000"
 3757      455F4C4C 
 3757      5F505752 
 3757      5F4C564C 
 3757      5F4E4547 
 3758              	.LASF304:
 3759 042d 61646472 		.ascii	"addressValid\000"
 3759      65737356 
 3759      616C6964 
 3759      00
 3760              	.LASF297:
 3761 043a 4359424C 		.ascii	"CYBLE_STATE_ADVERTISING\000"
 3761      455F5354 
 3761      4154455F 
 3761      41445645 
 3761      52544953 
 3762              	.LASF38:
 3763 0452 4359424C 		.ascii	"CYBLE_EVT_GAP_OOB_GENERATED_NOTIFICATION\000"
 3763      455F4556 
 3763      545F4741 
 3763      505F4F4F 
 3763      425F4745 
 3764              	.LASF329:
 3765 047b 4379426C 		.ascii	"CyBle_GattsWriteRsp\000"
 3765      655F4761 
 3765      74747357 
 3765      72697465 
 3765      52737000 
 3766              	.LASF269:
 3767 048f 62644861 		.ascii	"bdHandle\000"
 3767      6E646C65 
 3767      00
 3768              	.LASF258:
 3769 0498 4359424C 		.ascii	"CYBLE_GATTS_ERR_NETWORK_NOT_AVAILABLE\000"
 3769      455F4741 
 3769      5454535F 
 3769      4552525F 
 3769      4E455457 
 3770              	.LASF159:
 3771 04be 4359424C 		.ascii	"CYBLE_GAP_AUTH_ERROR_PASSKEY_ENTRY_FAILED\000"
 3771      455F4741 
 3771      505F4155 
 3771      54485F45 
 3771      52524F52 
 3772              	.LASF261:
 3773 04e8 4359424C 		.ascii	"CYBLE_GATT_ERR_ANCS_INVALID_COMMAND\000"
 3773      455F4741 
 3773      54545F45 
 3773      52525F41 
 3773      4E43535F 
ARM GAS  C:\Users\alvin\AppData\Local\Temp\cc0iGj3s.s 			page 107


 3774              	.LASF195:
 3775 050c 6C6F6361 		.ascii	"localResolvablePvtAddr\000"
 3775      6C526573 
 3775      6F6C7661 
 3775      626C6550 
 3775      76744164 
 3776              	.LASF116:
 3777 0523 4359424C 		.ascii	"CYBLE_LL_PWR_LVL_NEG_12_DBM\000"
 3777      455F4C4C 
 3777      5F505752 
 3777      5F4C564C 
 3777      5F4E4547 
 3778              	.LASF202:
 3779 053f 4359424C 		.ascii	"CYBLE_GATT_XCHNG_MTU_RSP\000"
 3779      455F4741 
 3779      54545F58 
 3779      43484E47 
 3779      5F4D5455 
 3780              	.LASF57:
 3781 0558 4359424C 		.ascii	"CYBLE_EVT_GATTS_WRITE_CMD_REQ\000"
 3781      455F4556 
 3781      545F4741 
 3781      5454535F 
 3781      57524954 
 3782              	.LASF4:
 3783 0576 6C6F6E67 		.ascii	"long int\000"
 3783      20696E74 
 3783      00
 3784              	.LASF177:
 3785 057f 4359424C 		.ascii	"CYBLE_GAP_RANDOM_RESOLVABLE_ADDR_TYPE\000"
 3785      455F4741 
 3785      505F5241 
 3785      4E444F4D 
 3785      5F524553 
 3786              	.LASF147:
 3787 05a5 4359424C 		.ascii	"CYBLE_GAP_SEC_LEVEL_1\000"
 3787      455F4741 
 3787      505F5345 
 3787      435F4C45 
 3787      56454C5F 
 3788              	.LASF148:
 3789 05bb 4359424C 		.ascii	"CYBLE_GAP_SEC_LEVEL_2\000"
 3789      455F4741 
 3789      505F5345 
 3789      435F4C45 
 3789      56454C5F 
 3790              	.LASF149:
 3791 05d1 4359424C 		.ascii	"CYBLE_GAP_SEC_LEVEL_3\000"
 3791      455F4741 
 3791      505F5345 
 3791      435F4C45 
 3791      56454C5F 
 3792              	.LASF150:
 3793 05e7 4359424C 		.ascii	"CYBLE_GAP_SEC_LEVEL_4\000"
 3793      455F4741 
 3793      505F5345 
 3793      435F4C45 
ARM GAS  C:\Users\alvin\AppData\Local\Temp\cc0iGj3s.s 			page 108


 3793      56454C5F 
 3794              	.LASF206:
 3795 05fd 4359424C 		.ascii	"CYBLE_GATT_FIND_BY_TYPE_VALUE_RSP\000"
 3795      455F4741 
 3795      54545F46 
 3795      494E445F 
 3795      42595F54 
 3796              	.LASF17:
 3797 061f 4359424C 		.ascii	"CYBLE_EVT_STACK_ON\000"
 3797      455F4556 
 3797      545F5354 
 3797      41434B5F 
 3797      4F4E00
 3798              	.LASF100:
 3799 0632 4359424C 		.ascii	"CYBLE_ERROR_L2CAP_PSM_NOT_IN_RANGE\000"
 3799      455F4552 
 3799      524F525F 
 3799      4C324341 
 3799      505F5053 
 3800              	.LASF316:
 3801 0655 6379426C 		.ascii	"cyBle_deviceAddress\000"
 3801      655F6465 
 3801      76696365 
 3801      41646472 
 3801      65737300 
 3802              	.LASF257:
 3803 0669 4359424C 		.ascii	"CYBLE_GATTS_ERR_HPS_INVALID_REQUEST\000"
 3803      455F4741 
 3803      5454535F 
 3803      4552525F 
 3803      4850535F 
 3804              	.LASF233:
 3805 068d 4359424C 		.ascii	"CYBLE_GATT_ERR_INVALID_PDU\000"
 3805      455F4741 
 3805      54545F45 
 3805      52525F49 
 3805      4E56414C 
 3806              	.LASF162:
 3807 06a8 4359424C 		.ascii	"CYBLE_GAP_AUTH_ERROR_CONFIRM_VALUE_NOT_MATCH\000"
 3807      455F4741 
 3807      505F4155 
 3807      54485F45 
 3807      52524F52 
 3808              	.LASF112:
 3809 06d5 4359424C 		.ascii	"CYBLE_ERROR_CHAR_IS_NOT_DISCOVERED\000"
 3809      455F4552 
 3809      524F525F 
 3809      43484152 
 3809      5F49535F 
 3810              	.LASF276:
 3811 06f8 4359424C 		.ascii	"CYBLE_GATT_HANDLE_VALUE_PAIR_T\000"
 3811      455F4741 
 3811      54545F48 
 3811      414E444C 
 3811      455F5641 
 3812              	.LASF130:
 3813 0717 626C6553 		.ascii	"bleSsChId\000"
ARM GAS  C:\Users\alvin\AppData\Local\Temp\cc0iGj3s.s 			page 109


 3813      73436849 
 3813      6400
 3814              	.LASF70:
 3815 0721 4359424C 		.ascii	"CYBLE_EVT_L2CAP_COMMAND_REJ\000"
 3815      455F4556 
 3815      545F4C32 
 3815      4341505F 
 3815      434F4D4D 
 3816              	.LASF212:
 3817 073d 4359424C 		.ascii	"CYBLE_GATT_READ_BLOB_RSP\000"
 3817      455F4741 
 3817      54545F52 
 3817      4541445F 
 3817      424C4F42 
 3818              	.LASF242:
 3819 0756 4359424C 		.ascii	"CYBLE_GATT_ERR_INVALID_ATTRIBUTE_LEN\000"
 3819      455F4741 
 3819      54545F45 
 3819      52525F49 
 3819      4E56414C 
 3820              	.LASF101:
 3821 077b 4359424C 		.ascii	"CYBLE_ERROR_GATT_DB_INVALID_ATTR_HANDLE\000"
 3821      455F4552 
 3821      524F525F 
 3821      47415454 
 3821      5F44425F 
 3822              	.LASF0:
 3823 07a3 7369676E 		.ascii	"signed char\000"
 3823      65642063 
 3823      68617200 
 3824              	.LASF115:
 3825 07af 4359424C 		.ascii	"CYBLE_LL_PWR_LVL_NEG_18_DBM\000"
 3825      455F4C4C 
 3825      5F505752 
 3825      5F4C564C 
 3825      5F4E4547 
 3826              	.LASF203:
 3827 07cb 4359424C 		.ascii	"CYBLE_GATT_FIND_INFO_REQ\000"
 3827      455F4741 
 3827      54545F46 
 3827      494E445F 
 3827      494E464F 
 3828              	.LASF19:
 3829 07e4 4359424C 		.ascii	"CYBLE_EVT_HARDWARE_ERROR\000"
 3829      455F4556 
 3829      545F4841 
 3829      52445741 
 3829      52455F45 
 3830              	.LASF344:
 3831 07fd 4379426C 		.ascii	"CyBle_EventHandler\000"
 3831      655F4576 
 3831      656E7448 
 3831      616E646C 
 3831      657200
 3832              	.LASF82:
 3833 0810 4359424C 		.ascii	"CYBLE_ERROR_OK\000"
 3833      455F4552 
ARM GAS  C:\Users\alvin\AppData\Local\Temp\cc0iGj3s.s 			page 110


 3833      524F525F 
 3833      4F4B00
 3834              	.LASF128:
 3835 081f 4359424C 		.ascii	"CYBLE_BLESS_PHY_CH_GRP_ID_T\000"
 3835      455F424C 
 3835      4553535F 
 3835      5048595F 
 3835      43485F47 
 3836              	.LASF193:
 3837 083b 70656572 		.ascii	"peerBdAddr\000"
 3837      42644164 
 3837      647200
 3838              	.LASF199:
 3839 0846 4359424C 		.ascii	"CYBLE_GAP_ENHANCE_CONN_COMPLETE_T\000"
 3839      455F4741 
 3839      505F454E 
 3839      48414E43 
 3839      455F434F 
 3840              	.LASF48:
 3841 0868 4359424C 		.ascii	"CYBLE_EVT_GATTC_READ_BY_GROUP_TYPE_RSP\000"
 3841      455F4556 
 3841      545F4741 
 3841      5454435F 
 3841      52454144 
 3842              	.LASF172:
 3843 088f 4359424C 		.ascii	"CYBLE_GAP_AUTH_ERROR_CROSS_TRANSPORT_KEY_GEN_DER_NO"
 3843      455F4741 
 3843      505F4155 
 3843      54485F45 
 3843      52524F52 
 3844 08c2 545F414C 		.ascii	"T_ALLOWED\000"
 3844      4C4F5745 
 3844      4400
 3845              	.LASF294:
 3846 08cc 4359424C 		.ascii	"CYBLE_STATE_STOPPED\000"
 3846      455F5354 
 3846      4154455F 
 3846      53544F50 
 3846      50454400 
 3847              	.LASF285:
 3848 08e0 4359424C 		.ascii	"CYBLE_GATTS_ERR_PARAM_T\000"
 3848      455F4741 
 3848      5454535F 
 3848      4552525F 
 3848      50415241 
 3849              	.LASF1:
 3850 08f8 756E7369 		.ascii	"unsigned char\000"
 3850      676E6564 
 3850      20636861 
 3850      7200
 3851              	.LASF47:
 3852 0906 4359424C 		.ascii	"CYBLE_EVT_GATTC_XCHNG_MTU_RSP\000"
 3852      455F4556 
 3852      545F4741 
 3852      5454435F 
 3852      5843484E 
 3853              	.LASF225:
ARM GAS  C:\Users\alvin\AppData\Local\Temp\cc0iGj3s.s 			page 111


 3854 0924 4359424C 		.ascii	"CYBLE_GATT_HANDLE_VALUE_IND\000"
 3854      455F4741 
 3854      54545F48 
 3854      414E444C 
 3854      455F5641 
 3855              	.LASF42:
 3856 0940 4359424C 		.ascii	"CYBLE_EVT_GAP_SMP_NEGOTIATED_AUTH_INFO\000"
 3856      455F4556 
 3856      545F4741 
 3856      505F534D 
 3856      505F4E45 
 3857              	.LASF77:
 3858 0967 4359424C 		.ascii	"CYBLE_EVT_L2CAP_CBFC_TX_CREDIT_IND\000"
 3858      455F4556 
 3858      545F4C32 
 3858      4341505F 
 3858      43424643 
 3859              	.LASF284:
 3860 098a 6572726F 		.ascii	"errorCode\000"
 3860      72436F64 
 3860      6500
 3861              	.LASF168:
 3862 0994 4359424C 		.ascii	"CYBLE_GAP_AUTH_ERROR_INVALID_PARAMETERS\000"
 3862      455F4741 
 3862      505F4155 
 3862      54485F45 
 3862      52524F52 
 3863              	.LASF137:
 3864 09bc 636F6E66 		.ascii	"configMemory\000"
 3864      69674D65 
 3864      6D6F7279 
 3864      00
 3865              	.LASF74:
 3866 09c9 4359424C 		.ascii	"CYBLE_EVT_L2CAP_CBFC_DISCONN_CNF\000"
 3866      455F4556 
 3866      545F4C32 
 3866      4341505F 
 3866      43424643 
 3867              	.LASF51:
 3868 09ea 4359424C 		.ascii	"CYBLE_EVT_GATTC_FIND_BY_TYPE_VALUE_RSP\000"
 3868      455F4556 
 3868      545F4741 
 3868      5454435F 
 3868      46494E44 
 3869              	.LASF178:
 3870 0a11 4359424C 		.ascii	"CYBLE_GAP_PUBLIC_IDENTITY_ADDR_TYPE\000"
 3870      455F4741 
 3870      505F5055 
 3870      424C4943 
 3870      5F494445 
 3871              	.LASF39:
 3872 0a35 4359424C 		.ascii	"CYBLE_EVT_GAP_DATA_LENGTH_CHANGE\000"
 3872      455F4556 
 3872      545F4741 
 3872      505F4441 
 3872      54415F4C 
 3873              	.LASF14:
ARM GAS  C:\Users\alvin\AppData\Local\Temp\cc0iGj3s.s 			page 112


 3874 0a56 63686172 		.ascii	"char\000"
 3874      00
 3875              	.LASF119:
 3876 0a5b 4359424C 		.ascii	"CYBLE_LL_PWR_LVL_NEG_2_DBM\000"
 3876      455F4C4C 
 3876      5F505752 
 3876      5F4C564C 
 3876      5F4E4547 
 3877              	.LASF218:
 3878 0a76 4359424C 		.ascii	"CYBLE_GATT_WRITE_RSP\000"
 3878      455F4741 
 3878      54545F57 
 3878      52495445 
 3878      5F525350 
 3879              	.LASF54:
 3880 0a8b 4359424C 		.ascii	"CYBLE_EVT_GATTC_READ_MULTI_RSP\000"
 3880      455F4556 
 3880      545F4741 
 3880      5454435F 
 3880      52454144 
 3881              	.LASF186:
 3882 0aaa 4359424C 		.ascii	"CYBLE_GAP_AUTH_INFO_T\000"
 3882      455F4741 
 3882      505F4155 
 3882      54485F49 
 3882      4E464F5F 
 3883              	.LASF154:
 3884 0ac0 4359424C 		.ascii	"CYBLE_GAP_IOCAP_KEYBOARD_ONLY\000"
 3884      455F4741 
 3884      505F494F 
 3884      4341505F 
 3884      4B455942 
 3885              	.LASF16:
 3886 0ade 4359424C 		.ascii	"CYBLE_EVT_HOST_INVALID\000"
 3886      455F4556 
 3886      545F484F 
 3886      53545F49 
 3886      4E56414C 
 3887              	.LASF253:
 3888 0af5 4359424C 		.ascii	"CYBLE_GATT_ERR_MISSING_CRC\000"
 3888      455F4741 
 3888      54545F45 
 3888      52525F4D 
 3888      49535349 
 3889              	.LASF243:
 3890 0b10 4359424C 		.ascii	"CYBLE_GATT_ERR_UNLIKELY_ERROR\000"
 3890      455F4741 
 3890      54545F45 
 3890      52525F55 
 3890      4E4C494B 
 3891              	.LASF41:
 3892 0b2e 4359424C 		.ascii	"CYBLE_EVT_GAPC_DIRECT_ADV_REPORT\000"
 3892      455F4556 
 3892      545F4741 
 3892      50435F44 
 3892      49524543 
 3893              	.LASF201:
ARM GAS  C:\Users\alvin\AppData\Local\Temp\cc0iGj3s.s 			page 113


 3894 0b4f 4359424C 		.ascii	"CYBLE_GATT_XCNHG_MTU_REQ\000"
 3894      455F4741 
 3894      54545F58 
 3894      434E4847 
 3894      5F4D5455 
 3895              	.LASF89:
 3896 0b68 4359424C 		.ascii	"CYBLE_ERROR_NO_DEVICE_ENTITY\000"
 3896      455F4552 
 3896      524F525F 
 3896      4E4F5F44 
 3896      45564943 
 3897              	.LASF53:
 3898 0b85 4359424C 		.ascii	"CYBLE_EVT_GATTC_READ_BLOB_RSP\000"
 3898      455F4556 
 3898      545F4741 
 3898      5454435F 
 3898      52454144 
 3899              	.LASF303:
 3900 0ba3 64657669 		.ascii	"deviceAddress\000"
 3900      63654164 
 3900      64726573 
 3900      7300
 3901              	.LASF315:
 3902 0bb1 6379426C 		.ascii	"cyBle_eventHandlerFlag\000"
 3902      655F6576 
 3902      656E7448 
 3902      616E646C 
 3902      6572466C 
 3903              	.LASF60:
 3904 0bc8 4359424C 		.ascii	"CYBLE_EVT_GATTC_EXEC_WRITE_RSP\000"
 3904      455F4556 
 3904      545F4741 
 3904      5454435F 
 3904      45584543 
 3905              	.LASF247:
 3906 0be7 4359424C 		.ascii	"CYBLE_GATT_ERR_HEART_RATE_CONTROL_POINT_NOT_SUPPORT"
 3906      455F4741 
 3906      54545F45 
 3906      52525F48 
 3906      45415254 
 3907 0c1a 454400   		.ascii	"ED\000"
 3908              	.LASF240:
 3909 0c1d 4359424C 		.ascii	"CYBLE_GATT_ERR_ATTRIBUTE_NOT_LONG\000"
 3909      455F4741 
 3909      54545F45 
 3909      52525F41 
 3909      54545249 
 3910              	.LASF151:
 3911 0c3f 4359424C 		.ascii	"CYBLE_GAP_SEC_LEVEL_MASK\000"
 3911      455F4741 
 3911      505F5345 
 3911      435F4C45 
 3911      56454C5F 
 3912              	.LASF339:
 3913 0c58 2E5C4765 		.ascii	".\\Generated_Source\\PSoC4\\ble_eventHandler.c\000"
 3913      6E657261 
 3913      7465645F 
ARM GAS  C:\Users\alvin\AppData\Local\Temp\cc0iGj3s.s 			page 114


 3913      536F7572 
 3913      63655C50 
 3914              	.LASF179:
 3915 0c84 4359424C 		.ascii	"CYBLE_GAP_RANDOM_IDENTITY_ADDR_TYPE\000"
 3915      455F4741 
 3915      505F5241 
 3915      4E444F4D 
 3915      5F494445 
 3916              	.LASF263:
 3917 0ca8 4359424C 		.ascii	"CYBLE_GATT_ERR_ANCS_ACTION_FAILED\000"
 3917      455F4741 
 3917      54545F45 
 3917      52525F41 
 3917      4E43535F 
 3918              	.LASF324:
 3919 0cca 6379426C 		.ascii	"cyBle_connHandle\000"
 3919      655F636F 
 3919      6E6E4861 
 3919      6E646C65 
 3919      00
 3920              	.LASF200:
 3921 0cdb 4359424C 		.ascii	"CYBLE_GATT_ERROR_RSP\000"
 3921      455F4741 
 3921      54545F45 
 3921      52524F52 
 3921      5F525350 
 3922              	.LASF108:
 3923 0cf0 4359424C 		.ascii	"CYBLE_ERROR_CONTROLLER_BUSY\000"
 3923      455F4552 
 3923      524F525F 
 3923      434F4E54 
 3923      524F4C4C 
 3924              	.LASF83:
 3925 0d0c 4359424C 		.ascii	"CYBLE_ERROR_INVALID_PARAMETER\000"
 3925      455F4552 
 3925      524F525F 
 3925      494E5641 
 3925      4C49445F 
 3926              	.LASF292:
 3927 0d2a 626F756E 		.ascii	"boundedDevCount\000"
 3927      64656444 
 3927      6576436F 
 3927      756E7400 
 3928              	.LASF171:
 3929 0d3a 4359424C 		.ascii	"CYBLE_GAP_AUTH_ERROR_BR_EDR_PAIRING_IN_PROGRESS\000"
 3929      455F4741 
 3929      505F4155 
 3929      54485F45 
 3929      52524F52 
 3930              	.LASF85:
 3931 0d6a 4359424C 		.ascii	"CYBLE_ERROR_MEMORY_ALLOCATION_FAILED\000"
 3931      455F4552 
 3931      524F525F 
 3931      4D454D4F 
 3931      52595F41 
 3932              	.LASF281:
 3933 0d8f 70726570 		.ascii	"prepareWriteQueueSize\000"
ARM GAS  C:\Users\alvin\AppData\Local\Temp\cc0iGj3s.s 			page 115


 3933      61726557 
 3933      72697465 
 3933      51756575 
 3933      6553697A 
 3934              	.LASF317:
 3935 0da5 6379426C 		.ascii	"cyBle_sflashDeviceAddress\000"
 3935      655F7366 
 3935      6C617368 
 3935      44657669 
 3935      63654164 
 3936              	.LASF290:
 3937 0dbf 61747456 		.ascii	"attValuesCCCDFlashMemory\000"
 3937      616C7565 
 3937      73434343 
 3937      44466C61 
 3937      73684D65 
 3938              	.LASF291:
 3939 0dd8 63636364 		.ascii	"cccdCount\000"
 3939      436F756E 
 3939      7400
 3940              	.LASF227:
 3941 0de2 4359424C 		.ascii	"CYBLE_GATT_SIGNED_WRITE_CMD\000"
 3941      455F4741 
 3941      54545F53 
 3941      49474E45 
 3941      445F5752 
 3942              	.LASF254:
 3943 0dfe 4359424C 		.ascii	"CYBLE_GATTS_ERR_CCCD_IMPROPERLY_CONFIGURED\000"
 3943      455F4741 
 3943      5454535F 
 3943      4552525F 
 3943      43434344 
 3944              	.LASF332:
 3945 0e29 4379426C 		.ascii	"CyBle_GattsExchangeMtuRsp\000"
 3945      655F4761 
 3945      74747345 
 3945      78636861 
 3945      6E67654D 
 3946              	.LASF223:
 3947 0e43 4359424C 		.ascii	"CYBLE_GATT_EXECUTE_WRITE_RSP\000"
 3947      455F4741 
 3947      54545F45 
 3947      58454355 
 3947      54455F57 
 3948              	.LASF109:
 3949 0e60 4359424C 		.ascii	"CYBLE_ERROR_MAX\000"
 3949      455F4552 
 3949      524F525F 
 3949      4D415800 
 3950              	.LASF69:
 3951 0e70 4359424C 		.ascii	"CYBLE_EVT_L2CAP_CONN_PARAM_UPDATE_RSP\000"
 3951      455F4556 
 3951      545F4C32 
 3951      4341505F 
 3951      434F4E4E 
 3952              	.LASF174:
 3953 0e96 4359424C 		.ascii	"CYBLE_GAP_AUTH_ERROR_LINK_DISCONNECTED\000"
ARM GAS  C:\Users\alvin\AppData\Local\Temp\cc0iGj3s.s 			page 116


 3953      455F4741 
 3953      505F4155 
 3953      54485F45 
 3953      52524F52 
 3954              	.LASF198:
 3955 0ebd 6D617374 		.ascii	"masterClockAccuracy\000"
 3955      6572436C 
 3955      6F636B41 
 3955      63637572 
 3955      61637900 
 3956              	.LASF289:
 3957 0ed1 73746163 		.ascii	"stackFlashptr\000"
 3957      6B466C61 
 3957      73687074 
 3957      7200
 3958              	.LASF248:
 3959 0edf 4359424C 		.ascii	"CYBLE_GATT_ERR_USER_DATA_ACCESS_NOT_PERMITTED\000"
 3959      455F4741 
 3959      54545F45 
 3959      52525F55 
 3959      5345525F 
 3960              	.LASF27:
 3961 0f0d 4359424C 		.ascii	"CYBLE_EVT_GAP_AUTH_COMPLETE\000"
 3961      455F4556 
 3961      545F4741 
 3961      505F4155 
 3961      54485F43 
 3962              	.LASF28:
 3963 0f29 4359424C 		.ascii	"CYBLE_EVT_GAP_AUTH_FAILED\000"
 3963      455F4556 
 3963      545F4741 
 3963      505F4155 
 3963      54485F46 
 3964              	.LASF136:
 3965 0f43 616C6C6F 		.ascii	"allocFree\000"
 3965      63467265 
 3965      6500
 3966              	.LASF216:
 3967 0f4d 4359424C 		.ascii	"CYBLE_GATT_READ_BY_GROUP_RSP\000"
 3967      455F4741 
 3967      54545F52 
 3967      4541445F 
 3967      42595F47 
 3968              	.LASF86:
 3969 0f6a 4359424C 		.ascii	"CYBLE_ERROR_INSUFFICIENT_RESOURCES\000"
 3969      455F4552 
 3969      524F525F 
 3969      494E5355 
 3969      46464943 
 3970              	.LASF252:
 3971 0f8d 4359424C 		.ascii	"CYBLE_GATT_ERR_OP_CODE_NOT_SUPPORTED\000"
 3971      455F4741 
 3971      54545F45 
 3971      52525F4F 
 3971      505F434F 
 3972              	.LASF122:
 3973 0fb2 4359424C 		.ascii	"CYBLE_LL_PWR_LVL_3_DBM\000"
ARM GAS  C:\Users\alvin\AppData\Local\Temp\cc0iGj3s.s 			page 117


 3973      455F4C4C 
 3973      5F505752 
 3973      5F4C564C 
 3973      5F335F44 
 3974              	.LASF5:
 3975 0fc9 6C6F6E67 		.ascii	"long unsigned int\000"
 3975      20756E73 
 3975      69676E65 
 3975      6420696E 
 3975      7400
 3976              	.LASF209:
 3977 0fdb 4359424C 		.ascii	"CYBLE_GATT_READ_REQ\000"
 3977      455F4741 
 3977      54545F52 
 3977      4541445F 
 3977      52455100 
 3978              	.LASF187:
 3979 0fef 73746174 		.ascii	"status\000"
 3979      757300
 3980              	.LASF120:
 3981 0ff6 4359424C 		.ascii	"CYBLE_LL_PWR_LVL_NEG_1_DBM\000"
 3981      455F4C4C 
 3981      5F505752 
 3981      5F4C564C 
 3981      5F4E4547 
 3982              	.LASF106:
 3983 1011 4359424C 		.ascii	"CYBLE_ERROR_UNSUPPORTED_FEATURE_OR_PARAMETER_VALUE\000"
 3983      455F4552 
 3983      524F525F 
 3983      554E5355 
 3983      50504F52 
 3984              	.LASF133:
 3985 1044 4359424C 		.ascii	"CYBLE_INVALID_REQUEST\000"
 3985      455F494E 
 3985      56414C49 
 3985      445F5245 
 3985      51554553 
 3986              	.LASF165:
 3987 105a 4359424C 		.ascii	"CYBLE_GAP_AUTH_ERROR_COMMAND_NOT_SUPPORTED\000"
 3987      455F4741 
 3987      505F4155 
 3987      54485F45 
 3987      52524F52 
 3988              	.LASF161:
 3989 1085 4359424C 		.ascii	"CYBLE_GAP_AUTH_ERROR_AUTHENTICATION_REQ_NOT_MET\000"
 3989      455F4741 
 3989      505F4155 
 3989      54485F45 
 3989      52524F52 
 3990              	.LASF224:
 3991 10b5 4359424C 		.ascii	"CYBLE_GATT_HANDLE_VALUE_NTF\000"
 3991      455F4741 
 3991      54545F48 
 3991      414E444C 
 3991      455F5641 
 3992              	.LASF96:
 3993 10d1 4359424C 		.ascii	"CYBLE_ERROR_L2CAP_PSM_ALREADY_REGISTERED\000"
ARM GAS  C:\Users\alvin\AppData\Local\Temp\cc0iGj3s.s 			page 118


 3993      455F4552 
 3993      524F525F 
 3993      4C324341 
 3993      505F5053 
 3994              	.LASF338:
 3995 10fa 474E5520 		.ascii	"GNU C 4.9.3 20150303 (release) [ARM/embedded-4_9-br"
 3995      4320342E 
 3995      392E3320 
 3995      32303135 
 3995      30333033 
 3996 112d 616E6368 		.ascii	"anch revision 221220] -mcpu=cortex-m0 -mthumb -g -O"
 3996      20726576 
 3996      6973696F 
 3996      6E203232 
 3996      31323230 
 3997 1160 67202D66 		.ascii	"g -ffunction-sections -ffat-lto-objects\000"
 3997      66756E63 
 3997      74696F6E 
 3997      2D736563 
 3997      74696F6E 
 3998              	.LASF260:
 3999 1188 4359424C 		.ascii	"CYBLE_GATT_ERR_ANCS_UNKNOWN_COMMAND\000"
 3999      455F4741 
 3999      54545F45 
 3999      52525F41 
 3999      4E43535F 
 4000              	.LASF282:
 4001 11ac 4359424C 		.ascii	"CYBLE_PREPARE_WRITE_REQUEST_MEMORY_T\000"
 4001      455F5052 
 4001      45504152 
 4001      455F5752 
 4001      4954455F 
 4002              	.LASF33:
 4003 11d1 4359424C 		.ascii	"CYBLE_EVT_GAP_CONNECTION_UPDATE_COMPLETE\000"
 4003      455F4556 
 4003      545F4741 
 4003      505F434F 
 4003      4E4E4543 
 4004              	.LASF325:
 4005 11fa 6379426C 		.ascii	"cyBle_busyStatus\000"
 4005      655F6275 
 4005      73795374 
 4005      61747573 
 4005      00
 4006              	.LASF335:
 4007 120b 4379426C 		.ascii	"CyBle_ChangeAdDeviceAddress\000"
 4007      655F4368 
 4007      616E6765 
 4007      41644465 
 4007      76696365 
 4008              	.LASF295:
 4009 1227 4359424C 		.ascii	"CYBLE_STATE_INITIALIZING\000"
 4009      455F5354 
 4009      4154455F 
 4009      494E4954 
 4009      49414C49 
 4010              	.LASF312:
ARM GAS  C:\Users\alvin\AppData\Local\Temp\cc0iGj3s.s 			page 119


 4011 1240 6379426C 		.ascii	"cyBle_mtuSize\000"
 4011      655F6D74 
 4011      7553697A 
 4011      6500
 4012              	.LASF167:
 4013 124e 4359424C 		.ascii	"CYBLE_GAP_AUTH_ERROR_REPEATED_ATTEMPTS\000"
 4013      455F4741 
 4013      505F4155 
 4013      54485F45 
 4013      52524F52 
 4014              	.LASF73:
 4015 1275 4359424C 		.ascii	"CYBLE_EVT_L2CAP_CBFC_DISCONN_IND\000"
 4015      455F4556 
 4015      545F4C32 
 4015      4341505F 
 4015      43424643 
 4016              	.LASF25:
 4017 1296 4359424C 		.ascii	"CYBLE_EVT_GAP_PASSKEY_ENTRY_REQUEST\000"
 4017      455F4556 
 4017      545F4741 
 4017      505F5041 
 4017      53534B45 
 4018              	.LASF169:
 4019 12ba 4359424C 		.ascii	"CYBLE_GAP_AUTH_ERROR_DHKEY_CHECK_FAILED\000"
 4019      455F4741 
 4019      505F4155 
 4019      54485F45 
 4019      52524F52 
 4020              	.LASF124:
 4021 12e2 4359424C 		.ascii	"CYBLE_BLESS_PWR_LVL_T\000"
 4021      455F424C 
 4021      4553535F 
 4021      5057525F 
 4021      4C564C5F 
 4022              	.LASF293:
 4023 12f8 43595F42 		.ascii	"CY_BLE_FLASH_STORAGE\000"
 4023      4C455F46 
 4023      4C415348 
 4023      5F53544F 
 4023      52414745 
 4024              	.LASF322:
 4025 130d 6379426C 		.ascii	"cyBle_flashStorage\000"
 4025      655F666C 
 4025      61736853 
 4025      746F7261 
 4025      676500
 4026              	.LASF176:
 4027 1320 4359424C 		.ascii	"CYBLE_GAP_PUBLIC_ADDR_TYPE\000"
 4027      455F4741 
 4027      505F5055 
 4027      424C4943 
 4027      5F414444 
 4028              	.LASF164:
 4029 133b 4359424C 		.ascii	"CYBLE_GAP_AUTH_ERROR_INSUFFICIENT_ENCRYPTION_KEY_SI"
 4029      455F4741 
 4029      505F4155 
 4029      54485F45 
ARM GAS  C:\Users\alvin\AppData\Local\Temp\cc0iGj3s.s 			page 120


 4029      52524F52 
 4030 136e 5A4500   		.ascii	"ZE\000"
 4031              	.LASF331:
 4032 1371 4379426C 		.ascii	"CyBle_GapSetLeEventMask\000"
 4032      655F4761 
 4032      70536574 
 4032      4C654576 
 4032      656E744D 
 4033              	.LASF6:
 4034 1389 6C6F6E67 		.ascii	"long long int\000"
 4034      206C6F6E 
 4034      6720696E 
 4034      7400
 4035              	.LASF330:
 4036 1397 4379426C 		.ascii	"CyBle_SetTxPowerLevel\000"
 4036      655F5365 
 4036      74547850 
 4036      6F776572 
 4036      4C657665 
 4037              	.LASF341:
 4038 13ad 4379426C 		.ascii	"CyBle_GattDisconnectEventHandler\000"
 4038      655F4761 
 4038      74744469 
 4038      73636F6E 
 4038      6E656374 
 4039              	.LASF138:
 4040 13ce 4359424C 		.ascii	"CYBLE_MEMORY_REQUEST_T\000"
 4040      455F4D45 
 4040      4D4F5259 
 4040      5F524551 
 4040      55455354 
 4041              	.LASF181:
 4042 13e5 73656375 		.ascii	"security\000"
 4042      72697479 
 4042      00
 4043              	.LASF238:
 4044 13ee 4359424C 		.ascii	"CYBLE_GATT_ERR_PREPARE_WRITE_QUEUE_FULL\000"
 4044      455F4741 
 4044      54545F45 
 4044      52525F50 
 4044      52455041 
 4045              	.LASF97:
 4046 1416 4359424C 		.ascii	"CYBLE_ERROR_L2CAP_PSM_NOT_REGISTERED\000"
 4046      455F4552 
 4046      524F525F 
 4046      4C324341 
 4046      505F5053 
 4047              	.LASF87:
 4048 143b 4359424C 		.ascii	"CYBLE_ERROR_OOB_NOT_AVAILABLE\000"
 4048      455F4552 
 4048      524F525F 
 4048      4F4F425F 
 4048      4E4F545F 
 4049              	.LASF13:
 4050 1459 646F7562 		.ascii	"double\000"
 4050      6C6500
 4051              	.LASF102:
ARM GAS  C:\Users\alvin\AppData\Local\Temp\cc0iGj3s.s 			page 121


 4052 1460 4359424C 		.ascii	"CYBLE_ERROR_DEVICE_ALREADY_EXISTS\000"
 4052      455F4552 
 4052      524F525F 
 4052      44455649 
 4052      43455F41 
 4053              	.LASF79:
 4054 1482 4359424C 		.ascii	"CYBLE_EVT_PENDING_FLASH_WRITE\000"
 4054      455F4556 
 4054      545F5045 
 4054      4E44494E 
 4054      475F464C 
 4055              	.LASF241:
 4056 14a0 4359424C 		.ascii	"CYBLE_GATT_ERR_INSUFFICIENT_ENC_KEY_SIZE\000"
 4056      455F4741 
 4056      54545F45 
 4056      52525F49 
 4056      4E535546 
 4057              	.LASF123:
 4058 14c9 4359424C 		.ascii	"CYBLE_LL_PWR_LVL_MAX\000"
 4058      455F4C4C 
 4058      5F505752 
 4058      5F4C564C 
 4058      5F4D4158 
 4059              	.LASF265:
 4060 14de 4359424C 		.ascii	"CYBLE_GATT_ERR_PROCEDURE_ALREADY_IN_PROGRESS\000"
 4060      455F4741 
 4060      54545F45 
 4060      52525F50 
 4060      524F4345 
 4061              	.LASF40:
 4062 150b 4359424C 		.ascii	"CYBLE_EVT_GAP_ENHANCE_CONN_COMPLETE\000"
 4062      455F4556 
 4062      545F4741 
 4062      505F454E 
 4062      48414E43 
 4063              	.LASF99:
 4064 152f 4359424C 		.ascii	"CYBLE_ERROR_L2CAP_CHANNEL_NOT_FOUND\000"
 4064      455F4552 
 4064      524F525F 
 4064      4C324341 
 4064      505F4348 
 4065              	.LASF90:
 4066 1553 4359424C 		.ascii	"CYBLE_ERROR_REPEATED_ATTEMPTS\000"
 4066      455F4552 
 4066      524F525F 
 4066      52455045 
 4066      41544544 
 4067              	.LASF12:
 4068 1571 666C6F61 		.ascii	"float\000"
 4068      7400
 4069              	.LASF103:
 4070 1577 4359424C 		.ascii	"CYBLE_ERROR_FLASH_WRITE_NOT_PERMITED\000"
 4070      455F4552 
 4070      524F525F 
 4070      464C4153 
 4070      485F5752 
 4071              	.LASF66:
ARM GAS  C:\Users\alvin\AppData\Local\Temp\cc0iGj3s.s 			page 122


 4072 159c 4359424C 		.ascii	"CYBLE_EVT_GATTS_READ_CHAR_VAL_ACCESS_REQ\000"
 4072      455F4556 
 4072      545F4741 
 4072      5454535F 
 4072      52454144 
 4073              	.LASF283:
 4074 15c5 6F70636F 		.ascii	"opcode\000"
 4074      646500
 4075              	.LASF237:
 4076 15cc 4359424C 		.ascii	"CYBLE_GATT_ERR_INSUFFICIENT_AUTHORIZATION\000"
 4076      455F4741 
 4076      54545F45 
 4076      52525F49 
 4076      4E535546 
 4077              	.LASF275:
 4078 15f6 61747472 		.ascii	"attrHandle\000"
 4078      48616E64 
 4078      6C6500
 4079              	.LASF182:
 4080 1601 626F6E64 		.ascii	"bonding\000"
 4080      696E6700 
 4081              	.LASF287:
 4082 1609 4359424C 		.ascii	"CYBLE_GATTS_WRITE_REQ_PARAM_T\000"
 4082      455F4741 
 4082      5454535F 
 4082      57524954 
 4082      455F5245 
 4083              	.LASF8:
 4084 1627 756E7369 		.ascii	"unsigned int\000"
 4084      676E6564 
 4084      20696E74 
 4084      00
 4085              	.LASF58:
 4086 1634 4359424C 		.ascii	"CYBLE_EVT_GATTS_PREP_WRITE_REQ\000"
 4086      455F4556 
 4086      545F4741 
 4086      5454535F 
 4086      50524550 
 4087              	.LASF234:
 4088 1653 4359424C 		.ascii	"CYBLE_GATT_ERR_INSUFFICIENT_AUTHENTICATION\000"
 4088      455F4741 
 4088      54545F45 
 4088      52525F49 
 4088      4E535546 
 4089              	.LASF278:
 4090 167e 4359424C 		.ascii	"CYBLE_GATT_XCHG_MTU_PARAM_T\000"
 4090      455F4741 
 4090      54545F58 
 4090      4348475F 
 4090      4D54555F 
 4091              	.LASF126:
 4092 169a 4359424C 		.ascii	"CYBLE_LL_CONN_CH_TYPE\000"
 4092      455F4C4C 
 4092      5F434F4E 
 4092      4E5F4348 
 4092      5F545950 
 4093              	.LASF328:
ARM GAS  C:\Users\alvin\AppData\Local\Temp\cc0iGj3s.s 			page 123


 4094 16b0 4379426C 		.ascii	"CyBle_GattsWriteEventHandler\000"
 4094      655F4761 
 4094      74747357 
 4094      72697465 
 4094      4576656E 
 4095              	.LASF251:
 4096 16cd 4359424C 		.ascii	"CYBLE_GATTS_ERR_PROCEDURE_ALREADY_IN_PROGRESS\000"
 4096      455F4741 
 4096      5454535F 
 4096      4552525F 
 4096      50524F43 
 4097              	.LASF194:
 4098 16fb 70656572 		.ascii	"peerBdAddrType\000"
 4098      42644164 
 4098      64725479 
 4098      706500
 4099              	.LASF301:
 4100 170a 6572725F 		.ascii	"err_param\000"
 4100      70617261 
 4100      6D00
 4101              	.LASF95:
 4102 1714 4359424C 		.ascii	"CYBLE_ERROR_L2CAP_PSM_WRONG_ENCODING\000"
 4102      455F4552 
 4102      524F525F 
 4102      4C324341 
 4102      505F5053 
 4103              	.LASF221:
 4104 1739 4359424C 		.ascii	"CYBLE_GATT_PREPARE_WRITE_RSP\000"
 4104      455F4741 
 4104      54545F50 
 4104      52455041 
 4104      52455F57 
 4105              	.LASF310:
 4106 1756 67507265 		.ascii	"gPrepWriteReqMem\000"
 4106      70577269 
 4106      74655265 
 4106      714D656D 
 4106      00
 4107              	.LASF239:
 4108 1767 4359424C 		.ascii	"CYBLE_GATT_ERR_ATTRIBUTE_NOT_FOUND\000"
 4108      455F4741 
 4108      54545F45 
 4108      52525F41 
 4108      54545249 
 4109              	.LASF81:
 4110 178a 4359424C 		.ascii	"CYBLE_EVT_MAX\000"
 4110      455F4556 
 4110      545F4D41 
 4110      5800
 4111              	.LASF34:
 4112 1798 4359424C 		.ascii	"CYBLE_EVT_GAPC_SCAN_START_STOP\000"
 4112      455F4556 
 4112      545F4741 
 4112      50435F53 
 4112      43414E5F 
 4113              	.LASF343:
 4114 17b7 4379426C 		.ascii	"CyBle_IsDeviceAddressValid\000"
ARM GAS  C:\Users\alvin\AppData\Local\Temp\cc0iGj3s.s 			page 124


 4114      655F4973 
 4114      44657669 
 4114      63654164 
 4114      64726573 
 4115              	.LASF175:
 4116 17d2 4359424C 		.ascii	"CYBLE_GAP_AUTH_FAILED_REASON_T\000"
 4116      455F4741 
 4116      505F4155 
 4116      54485F46 
 4116      41494C45 
 4117              	.LASF55:
 4118 17f1 4359424C 		.ascii	"CYBLE_EVT_GATTS_WRITE_REQ\000"
 4118      455F4556 
 4118      545F4741 
 4118      5454535F 
 4118      57524954 
 4119              	.LASF26:
 4120 180b 4359424C 		.ascii	"CYBLE_EVT_GAP_PASSKEY_DISPLAY_REQUEST\000"
 4120      455F4556 
 4120      545F4741 
 4120      505F5041 
 4120      53534B45 
 4121              	.LASF111:
 4122 1831 4359424C 		.ascii	"CYBLE_ERROR_IND_DISABLED\000"
 4122      455F4552 
 4122      524F525F 
 4122      494E445F 
 4122      44495341 
 4123              	.LASF110:
 4124 184a 4359424C 		.ascii	"CYBLE_ERROR_NTF_DISABLED\000"
 4124      455F4552 
 4124      524F525F 
 4124      4E54465F 
 4124      44495341 
 4125              	.LASF213:
 4126 1863 4359424C 		.ascii	"CYBLE_GATT_READ_MULTIPLE_REQ\000"
 4126      455F4741 
 4126      54545F52 
 4126      4541445F 
 4126      4D554C54 
 4127              	.LASF52:
 4128 1880 4359424C 		.ascii	"CYBLE_EVT_GATTC_READ_RSP\000"
 4128      455F4556 
 4128      545F4741 
 4128      5454435F 
 4128      52454144 
 4129              	.LASF236:
 4130 1899 4359424C 		.ascii	"CYBLE_GATT_ERR_INVALID_OFFSET\000"
 4130      455F4741 
 4130      54545F45 
 4130      52525F49 
 4130      4E56414C 
 4131              	.LASF207:
 4132 18b7 4359424C 		.ascii	"CYBLE_GATT_READ_BY_TYPE_REQ\000"
 4132      455F4741 
 4132      54545F52 
 4132      4541445F 
ARM GAS  C:\Users\alvin\AppData\Local\Temp\cc0iGj3s.s 			page 125


 4132      42595F54 
 4133              	.LASF72:
 4134 18d3 4359424C 		.ascii	"CYBLE_EVT_L2CAP_CBFC_CONN_CNF\000"
 4134      455F4556 
 4134      545F4C32 
 4134      4341505F 
 4134      43424643 
 4135              	.LASF266:
 4136 18f1 4359424C 		.ascii	"CYBLE_GATT_ERR_OUT_OF_RANGE\000"
 4136      455F4741 
 4136      54545F45 
 4136      52525F4F 
 4136      55545F4F 
 4137              	.LASF205:
 4138 190d 4359424C 		.ascii	"CYBLE_GATT_FIND_BY_TYPE_VALUE_REQ\000"
 4138      455F4741 
 4138      54545F46 
 4138      494E445F 
 4138      42595F54 
 4139              	.LASF117:
 4140 192f 4359424C 		.ascii	"CYBLE_LL_PWR_LVL_NEG_6_DBM\000"
 4140      455F4C4C 
 4140      5F505752 
 4140      5F4C564C 
 4140      5F4E4547 
 4141              	.LASF22:
 4142 194a 4359424C 		.ascii	"CYBLE_EVT_MEMORY_REQUEST\000"
 4142      455F4556 
 4142      545F4D45 
 4142      4D4F5259 
 4142      5F524551 
 4143              	.LASF158:
 4144 1963 4359424C 		.ascii	"CYBLE_GAP_AUTH_ERROR_NONE\000"
 4144      455F4741 
 4144      505F4155 
 4144      54485F45 
 4144      52524F52 
 4145              	.LASF32:
 4146 197d 4359424C 		.ascii	"CYBLE_EVT_GAP_ENCRYPT_CHANGE\000"
 4146      455F4556 
 4146      545F4741 
 4146      505F454E 
 4146      43525950 
 4147              	.LASF279:
 4148 199a 71756575 		.ascii	"queueBuffer\000"
 4148      65427566 
 4148      66657200 
 4149              	.LASF46:
 4150 19a6 4359424C 		.ascii	"CYBLE_EVT_GATTS_XCNHG_MTU_REQ\000"
 4150      455F4556 
 4150      545F4741 
 4150      5454535F 
 4150      58434E48 
 4151              	.LASF204:
 4152 19c4 4359424C 		.ascii	"CYBLE_GATT_FIND_INFO_RSP\000"
 4152      455F4741 
 4152      54545F46 
ARM GAS  C:\Users\alvin\AppData\Local\Temp\cc0iGj3s.s 			page 126


 4152      494E445F 
 4152      494E464F 
 4153              	.LASF160:
 4154 19dd 4359424C 		.ascii	"CYBLE_GAP_AUTH_ERROR_OOB_DATA_NOT_AVAILABLE\000"
 4154      455F4741 
 4154      505F4155 
 4154      54485F45 
 4154      52524F52 
 4155              	.LASF132:
 4156 1a09 4359424C 		.ascii	"CYBLE_PREPARED_WRITE_REQUEST\000"
 4156      455F5052 
 4156      45504152 
 4156      45445F57 
 4156      52495445 
 4157              	.LASF191:
 4158 1a26 4359424C 		.ascii	"CYBLE_GAP_CONN_PARAM_UPDATED_IN_CONTROLLER_T\000"
 4158      455F4741 
 4158      505F434F 
 4158      4E4E5F50 
 4158      4152414D 
 4159              	.LASF7:
 4160 1a53 6C6F6E67 		.ascii	"long long unsigned int\000"
 4160      206C6F6E 
 4160      6720756E 
 4160      7369676E 
 4160      65642069 
 4161              	.LASF230:
 4162 1a6a 4359424C 		.ascii	"CYBLE_GATT_ERR_INVALID_HANDLE\000"
 4162      455F4741 
 4162      54545F45 
 4162      52525F49 
 4162      4E56414C 
 4163              	.LASF18:
 4164 1a88 4359424C 		.ascii	"CYBLE_EVT_TIMEOUT\000"
 4164      455F4556 
 4164      545F5449 
 4164      4D454F55 
 4164      5400
 4165              	.LASF196:
 4166 1a9a 70656572 		.ascii	"peerResolvablePvtAddr\000"
 4166      5265736F 
 4166      6C766162 
 4166      6C655076 
 4166      74416464 
 4167              	.LASF228:
 4168 1ab0 4359424C 		.ascii	"CYBLE_GATT_UNKNOWN_PDU_IND\000"
 4168      455F4741 
 4168      54545F55 
 4168      4E4B4E4F 
 4168      574E5F50 
 4169              	.LASF113:
 4170 1acb 4359424C 		.ascii	"CYBLE_ERROR_INVALID_STATE\000"
 4170      455F4552 
 4170      524F525F 
 4170      494E5641 
 4170      4C49445F 
 4171              	.LASF268:
ARM GAS  C:\Users\alvin\AppData\Local\Temp\cc0iGj3s.s 			page 127


 4172 1ae5 4359424C 		.ascii	"CYBLE_GATT_DB_ATTR_HANDLE_T\000"
 4172      455F4741 
 4172      54545F44 
 4172      425F4154 
 4172      54525F48 
 4173              	.LASF306:
 4174 1b01 626C6553 		.ascii	"bleSsPowerLevel\000"
 4174      73506F77 
 4174      65724C65 
 4174      76656C00 
 4175              	.LASF75:
 4176 1b11 4359424C 		.ascii	"CYBLE_EVT_L2CAP_CBFC_DATA_READ\000"
 4176      455F4556 
 4176      545F4C32 
 4176      4341505F 
 4176      43424643 
 4177              	.LASF229:
 4178 1b30 4359424C 		.ascii	"CYBLE_GATT_ERR_NONE\000"
 4178      455F4741 
 4178      54545F45 
 4178      52525F4E 
 4178      4F4E4500 
 4179              	.LASF274:
 4180 1b44 76616C75 		.ascii	"value\000"
 4180      6500
 4181              	.LASF280:
 4182 1b4a 746F7461 		.ascii	"totalAttrValueLength\000"
 4182      6C417474 
 4182      7256616C 
 4182      75654C65 
 4182      6E677468 
 4183              	.LASF313:
 4184 1b5f 4379426C 		.ascii	"CyBle_ApplCallback\000"
 4184      655F4170 
 4184      706C4361 
 4184      6C6C6261 
 4184      636B00
 4185              	.LASF107:
 4186 1b72 4359424C 		.ascii	"CYBLE_ERROR_FLASH_WRITE\000"
 4186      455F4552 
 4186      524F525F 
 4186      464C4153 
 4186      485F5752 
 4187              	.LASF143:
 4188 1b8a 4359424C 		.ascii	"CYBLE_GAP_SCAN_TO\000"
 4188      455F4741 
 4188      505F5343 
 4188      414E5F54 
 4188      4F00
 4189              	.LASF250:
 4190 1b9c 4359424C 		.ascii	"CYBLE_GATT_ERR_HTS_OUT_OF_RANGE\000"
 4190      455F4741 
 4190      54545F45 
 4190      52525F48 
 4190      54535F4F 
 4191              	.LASF141:
 4192 1bbc 4359424C 		.ascii	"CYBLE_GAP_BD_ADDR_T\000"
ARM GAS  C:\Users\alvin\AppData\Local\Temp\cc0iGj3s.s 			page 128


 4192      455F4741 
 4192      505F4244 
 4192      5F414444 
 4192      525F5400 
 4193              	.LASF211:
 4194 1bd0 4359424C 		.ascii	"CYBLE_GATT_READ_BLOB_REQ\000"
 4194      455F4741 
 4194      54545F52 
 4194      4541445F 
 4194      424C4F42 
 4195              	.LASF142:
 4196 1be9 4359424C 		.ascii	"CYBLE_GAP_ADV_MODE_TO\000"
 4196      455F4741 
 4196      505F4144 
 4196      565F4D4F 
 4196      44455F54 
 4197              	.LASF286:
 4198 1bff 68616E64 		.ascii	"handleValPair\000"
 4198      6C655661 
 4198      6C506169 
 4198      7200
 4199              	.LASF277:
 4200 1c0d 636F6E6E 		.ascii	"connHandle\000"
 4200      48616E64 
 4200      6C6500
 4201              	.LASF163:
 4202 1c18 4359424C 		.ascii	"CYBLE_GAP_AUTH_ERROR_PAIRING_NOT_SUPPORTED\000"
 4202      455F4741 
 4202      505F4155 
 4202      54485F45 
 4202      52524F52 
 4203              	.LASF145:
 4204 1c43 4359424C 		.ascii	"CYBLE_GENERIC_TO\000"
 4204      455F4745 
 4204      4E455249 
 4204      435F544F 
 4204      00
 4205              	.LASF319:
 4206 1c54 6379426C 		.ascii	"cyBle_pendingFlashWrite\000"
 4206      655F7065 
 4206      6E64696E 
 4206      67466C61 
 4206      73685772 
 4207              	.LASF50:
 4208 1c6c 4359424C 		.ascii	"CYBLE_EVT_GATTC_FIND_INFO_RSP\000"
 4208      455F4556 
 4208      545F4741 
 4208      5454435F 
 4208      46494E44 
 4209              	.LASF49:
 4210 1c8a 4359424C 		.ascii	"CYBLE_EVT_GATTC_READ_BY_TYPE_RSP\000"
 4210      455F4556 
 4210      545F4741 
 4210      5454435F 
 4210      52454144 
 4211              	.LASF255:
 4212 1cab 4359424C 		.ascii	"CYBLE_GATTS_ERR_OPERATION_FAILED\000"
ARM GAS  C:\Users\alvin\AppData\Local\Temp\cc0iGj3s.s 			page 129


 4212      455F4741 
 4212      5454535F 
 4212      4552525F 
 4212      4F504552 
 4213              	.LASF323:
 4214 1ccc 6379426C 		.ascii	"cyBle_state\000"
 4214      655F7374 
 4214      61746500 
 4215              	.LASF185:
 4216 1cd8 70616972 		.ascii	"pairingProperties\000"
 4216      696E6750 
 4216      726F7065 
 4216      72746965 
 4216      7300
 4217              	.LASF56:
 4218 1cea 4359424C 		.ascii	"CYBLE_EVT_GATTC_WRITE_RSP\000"
 4218      455F4556 
 4218      545F4741 
 4218      5454435F 
 4218      57524954 
 4219              	.LASF298:
 4220 1d04 4359424C 		.ascii	"CYBLE_STATE_DISCONNECTED\000"
 4220      455F5354 
 4220      4154455F 
 4220      44495343 
 4220      4F4E4E45 
 4221              	.LASF308:
 4222 1d1d 6C654D61 		.ascii	"leMask\000"
 4222      736B00
 4223              	.LASF29:
 4224 1d24 4359424C 		.ascii	"CYBLE_EVT_GAPP_ADVERTISEMENT_START_STOP\000"
 4224      455F4556 
 4224      545F4741 
 4224      50505F41 
 4224      44564552 
 4225              	.LASF65:
 4226 1d4c 4359424C 		.ascii	"CYBLE_EVT_GATTC_STOP_CMD_COMPLETE\000"
 4226      455F4556 
 4226      545F4741 
 4226      5454435F 
 4226      53544F50 
 4227              	.LASF9:
 4228 1d6e 75696E74 		.ascii	"uint8\000"
 4228      3800
 4229              	.LASF318:
 4230 1d74 6379426C 		.ascii	"cyBle_authInfo\000"
 4230      655F6175 
 4230      7468496E 
 4230      666F00
 4231              	.LASF37:
 4232 1d83 4359424C 		.ascii	"CYBLE_EVT_GAP_KEYPRESS_NOTIFICATION\000"
 4232      455F4556 
 4232      545F4741 
 4232      505F4B45 
 4232      59505245 
 4233              	.LASF217:
 4234 1da7 4359424C 		.ascii	"CYBLE_GATT_WRITE_REQ\000"
ARM GAS  C:\Users\alvin\AppData\Local\Temp\cc0iGj3s.s 			page 130


 4234      455F4741 
 4234      54545F57 
 4234      52495445 
 4234      5F524551 
 4235              	.LASF2:
 4236 1dbc 73686F72 		.ascii	"short int\000"
 4236      7420696E 
 4236      7400
 4237              	.LASF184:
 4238 1dc6 61757468 		.ascii	"authErr\000"
 4238      45727200 
 4239              	.LASF105:
 4240 1dce 4359424C 		.ascii	"CYBLE_ERROR_HARDWARE_FAILURE\000"
 4240      455F4552 
 4240      524F525F 
 4240      48415244 
 4240      57415245 
 4241              	.LASF249:
 4242 1deb 4359424C 		.ascii	"CYBLE_GATT_ERR_CPS_INAPPROPRIATE_CONNECTION_PARAMET"
 4242      455F4741 
 4242      54545F45 
 4242      52525F43 
 4242      50535F49 
 4243 1e1e 45525300 		.ascii	"ERS\000"
 4244              	.LASF235:
 4245 1e22 4359424C 		.ascii	"CYBLE_GATT_ERR_REQUEST_NOT_SUPPORTED\000"
 4245      455F4741 
 4245      54545F45 
 4245      52525F52 
 4245      45515545 
 4246              	.LASF43:
 4247 1e47 4359424C 		.ascii	"CYBLE_EVT_GATTC_ERROR_RSP\000"
 4247      455F4556 
 4247      545F4741 
 4247      5454435F 
 4247      4552524F 
 4248              	.LASF156:
 4249 1e61 4359424C 		.ascii	"CYBLE_GAP_IOCAP_KEYBOARD_DISPLAY\000"
 4249      455F4741 
 4249      505F494F 
 4249      4341505F 
 4249      4B455942 
 4250              	.LASF299:
 4251 1e82 4359424C 		.ascii	"CYBLE_STATE_T\000"
 4251      455F5354 
 4251      4154455F 
 4251      5400
 4252              	.LASF71:
 4253 1e90 4359424C 		.ascii	"CYBLE_EVT_L2CAP_CBFC_CONN_IND\000"
 4253      455F4556 
 4253      545F4C32 
 4253      4341505F 
 4253      43424643 
 4254              	.LASF59:
 4255 1eae 4359424C 		.ascii	"CYBLE_EVT_GATTS_EXEC_WRITE_REQ\000"
 4255      455F4556 
 4255      545F4741 
ARM GAS  C:\Users\alvin\AppData\Local\Temp\cc0iGj3s.s 			page 131


 4255      5454535F 
 4255      45584543 
 4256              	.LASF23:
 4257 1ecd 4359424C 		.ascii	"CYBLE_EVT_GAPC_SCAN_PROGRESS_RESULT\000"
 4257      455F4556 
 4257      545F4741 
 4257      50435F53 
 4257      43414E5F 
 4258              	.LASF267:
 4259 1ef1 4359424C 		.ascii	"CYBLE_GATT_ERR_CODE_T\000"
 4259      455F4741 
 4259      54545F45 
 4259      52525F43 
 4259      4F44455F 
 4260              	.LASF340:
 4261 1f07 433A5C55 		.ascii	"C:\\Users\\alvin\\Desktop\\ece445\\deliverable\\rob"
 4261      73657273 
 4261      5C616C76 
 4261      696E5C44 
 4261      65736B74 
 4262 1f34 6F745F6B 		.ascii	"ot_kit_firmware.cydsn\000"
 4262      69745F66 
 4262      69726D77 
 4262      6172652E 
 4262      63796473 
 4263              	.LASF262:
 4264 1f4a 4359424C 		.ascii	"CYBLE_GATT_ERR_ANCS_INVALID_PARAMETER\000"
 4264      455F4741 
 4264      54545F45 
 4264      52525F41 
 4264      4E43535F 
 4265              	.LASF91:
 4266 1f70 4359424C 		.ascii	"CYBLE_ERROR_GAP_ROLE\000"
 4266      455F4552 
 4266      524F525F 
 4266      4741505F 
 4266      524F4C45 
 4267              	.LASF314:
 4268 1f85 6379426C 		.ascii	"cyBle_stackMemoryRam\000"
 4268      655F7374 
 4268      61636B4D 
 4268      656D6F72 
 4268      7952616D 
 4269              	.LASF326:
 4270 1f9a 6379426C 		.ascii	"cyBle_advertisingIntervalType\000"
 4270      655F6164 
 4270      76657274 
 4270      6973696E 
 4270      67496E74 
 4271              	.LASF139:
 4272 1fb8 62644164 		.ascii	"bdAddr\000"
 4272      647200
 4273              	.LASF259:
 4274 1fbf 4359424C 		.ascii	"CYBLE_GATT_ERR_ANS_COMMAND_NOT_SUPPORTED\000"
 4274      455F4741 
 4274      54545F45 
 4274      52525F41 
ARM GAS  C:\Users\alvin\AppData\Local\Temp\cc0iGj3s.s 			page 132


 4274      4E535F43 
 4275              	.LASF327:
 4276 1fe8 4379426C 		.ascii	"CyBle_GattsErrorRsp\000"
 4276      655F4761 
 4276      74747345 
 4276      72726F72 
 4276      52737000 
 4277              	.LASF345:
 4278 1ffc 636F6E6E 		.ascii	"connCParam\000"
 4278      43506172 
 4278      616D00
 4279              	.LASF210:
 4280 2007 4359424C 		.ascii	"CYBLE_GATT_READ_RSP\000"
 4280      455F4741 
 4280      54545F52 
 4280      4541445F 
 4280      52535000 
 4281              	.LASF307:
 4282 201b 62644164 		.ascii	"bdAddrLoc\000"
 4282      64724C6F 
 4282      6300
 4283              	.LASF88:
 4284 2025 4359424C 		.ascii	"CYBLE_ERROR_NO_CONNECTION\000"
 4284      455F4552 
 4284      524F525F 
 4284      4E4F5F43 
 4284      4F4E4E45 
 4285              	.LASF121:
 4286 203f 4359424C 		.ascii	"CYBLE_LL_PWR_LVL_0_DBM\000"
 4286      455F4C4C 
 4286      5F505752 
 4286      5F4C564C 
 4286      5F305F44 
 4287              	.LASF334:
 4288 2056 6D656D63 		.ascii	"memcpy\000"
 4288      707900
 4289              	.LASF125:
 4290 205d 4359424C 		.ascii	"CYBLE_LL_ADV_CH_TYPE\000"
 4290      455F4C4C 
 4290      5F414456 
 4290      5F43485F 
 4290      54595045 
 4291              	.LASF80:
 4292 2072 4359424C 		.ascii	"CYBLE_EVT_LE_PING_AUTH_TIMEOUT\000"
 4292      455F4556 
 4292      545F4C45 
 4292      5F50494E 
 4292      475F4155 
 4293              	.LASF114:
 4294 2091 4359424C 		.ascii	"CYBLE_API_RESULT_T\000"
 4294      455F4150 
 4294      495F5245 
 4294      53554C54 
 4294      5F5400
 4295              	.LASF321:
 4296 20a4 6379426C 		.ascii	"cyBle_attValuesCCCD\000"
 4296      655F6174 
ARM GAS  C:\Users\alvin\AppData\Local\Temp\cc0iGj3s.s 			page 133


 4296      7456616C 
 4296      75657343 
 4296      43434400 
 4297              	.LASF337:
 4298 20b8 4379426C 		.ascii	"CyBle_GappAuthReqReply\000"
 4298      655F4761 
 4298      70704175 
 4298      74685265 
 4298      71526570 
 4299              	.LASF62:
 4300 20cf 4359424C 		.ascii	"CYBLE_EVT_GATTC_HANDLE_VALUE_IND\000"
 4300      455F4556 
 4300      545F4741 
 4300      5454435F 
 4300      48414E44 
 4301              	.LASF305:
 4302 20f0 6576656E 		.ascii	"eventCode\000"
 4302      74436F64 
 4302      6500
 4303              	.LASF94:
 4304 20fa 4359424C 		.ascii	"CYBLE_ERROR_SEC_FAILED\000"
 4304      455F4552 
 4304      524F525F 
 4304      5345435F 
 4304      4641494C 
 4305              	.LASF21:
 4306 2111 4359424C 		.ascii	"CYBLE_EVT_STACK_BUSY_STATUS\000"
 4306      455F4556 
 4306      545F5354 
 4306      41434B5F 
 4306      42555359 
 4307              	.LASF189:
 4308 212d 636F6E6E 		.ascii	"connLatency\000"
 4308      4C617465 
 4308      6E637900 
 4309              	.LASF170:
 4310 2139 4359424C 		.ascii	"CYBLE_GAP_AUTH_ERROR_NUMERIC_COMPARISON_FAILED\000"
 4310      455F4741 
 4310      505F4155 
 4310      54485F45 
 4310      52524F52 
 4311              	.LASF153:
 4312 2168 4359424C 		.ascii	"CYBLE_GAP_IOCAP_DISPLAY_YESNO\000"
 4312      455F4741 
 4312      505F494F 
 4312      4341505F 
 4312      44495350 
 4313              	.LASF35:
 4314 2186 4359424C 		.ascii	"CYBLE_EVT_GAP_KEYINFO_EXCHNGE_CMPLT\000"
 4314      455F4556 
 4314      545F4741 
 4314      505F4B45 
 4314      59494E46 
 4315              	.LASF222:
 4316 21aa 4359424C 		.ascii	"CYBLE_GATT_EXECUTE_WRITE_REQ\000"
 4316      455F4741 
 4316      54545F45 
ARM GAS  C:\Users\alvin\AppData\Local\Temp\cc0iGj3s.s 			page 134


 4316      58454355 
 4316      54455F57 
 4317              	.LASF131:
 4318 21c7 4359424C 		.ascii	"CYBLE_BLESS_PWR_IN_DB_T\000"
 4318      455F424C 
 4318      4553535F 
 4318      5057525F 
 4318      494E5F44 
 4319              	.LASF127:
 4320 21df 4359424C 		.ascii	"CYBLE_LL_MAX_CH_TYPE\000"
 4320      455F4C4C 
 4320      5F4D4158 
 4320      5F43485F 
 4320      54595045 
 4321              	.LASF68:
 4322 21f4 4359424C 		.ascii	"CYBLE_EVT_L2CAP_CONN_PARAM_UPDATE_REQ\000"
 4322      455F4556 
 4322      545F4C32 
 4322      4341505F 
 4322      434F4E4E 
 4323              	.LASF134:
 4324 221a 4359424C 		.ascii	"CYBLE_PROTOCOL_REQ_T\000"
 4324      455F5052 
 4324      4F544F43 
 4324      4F4C5F52 
 4324      45515F54 
 4325              	.LASF300:
 4326 222f 67617474 		.ascii	"gattErr\000"
 4326      45727200 
 4327              	.LASF232:
 4328 2237 4359424C 		.ascii	"CYBLE_GATT_ERR_WRITE_NOT_PERMITTED\000"
 4328      455F4741 
 4328      54545F45 
 4328      52525F57 
 4328      52495445 
 4329              	.LASF188:
 4330 225a 636F6E6E 		.ascii	"connIntv\000"
 4330      496E7476 
 4330      00
 4331              	.LASF3:
 4332 2263 73686F72 		.ascii	"short unsigned int\000"
 4332      7420756E 
 4332      7369676E 
 4332      65642069 
 4332      6E7400
 4333              	.LASF244:
 4334 2276 4359424C 		.ascii	"CYBLE_GATT_ERR_INSUFFICIENT_ENCRYPTION\000"
 4334      455F4741 
 4334      54545F45 
 4334      52525F49 
 4334      4E535546 
 4335              	.LASF197:
 4336 229d 726F6C65 		.ascii	"role\000"
 4336      00
 4337              	.LASF180:
 4338 22a2 4359424C 		.ascii	"CYBLE_GAP_ADV_ADDR_TYPE_T\000"
 4338      455F4741 
ARM GAS  C:\Users\alvin\AppData\Local\Temp\cc0iGj3s.s 			page 135


 4338      505F4144 
 4338      565F4144 
 4338      44525F54 
 4339              	.LASF296:
 4340 22bc 4359424C 		.ascii	"CYBLE_STATE_CONNECTED\000"
 4340      455F5354 
 4340      4154455F 
 4340      434F4E4E 
 4340      45435445 
 4341              	.LASF272:
 4342 22d2 61637475 		.ascii	"actualLen\000"
 4342      616C4C65 
 4342      6E00
 4343              	.LASF311:
 4344 22dc 636F6E6E 		.ascii	"connEnhanceParam\000"
 4344      456E6861 
 4344      6E636550 
 4344      6172616D 
 4344      00
 4345              	.LASF215:
 4346 22ed 4359424C 		.ascii	"CYBLE_GATT_READ_BY_GROUP_REQ\000"
 4346      455F4741 
 4346      54545F52 
 4346      4541445F 
 4346      42595F47 
 4347              	.LASF270:
 4348 230a 61747449 		.ascii	"attId\000"
 4348      6400
 4349              	.LASF84:
 4350 2310 4359424C 		.ascii	"CYBLE_ERROR_INVALID_OPERATION\000"
 4350      455F4552 
 4350      524F525F 
 4350      494E5641 
 4350      4C49445F 
 4351              	.LASF20:
 4352 232e 4359424C 		.ascii	"CYBLE_EVT_HCI_STATUS\000"
 4352      455F4556 
 4352      545F4843 
 4352      495F5354 
 4352      41545553 
 4353              	.LASF45:
 4354 2343 4359424C 		.ascii	"CYBLE_EVT_GATT_DISCONNECT_IND\000"
 4354      455F4556 
 4354      545F4741 
 4354      54545F44 
 4354      4953434F 
 4355              	.LASF190:
 4356 2361 73757065 		.ascii	"supervisionTO\000"
 4356      72766973 
 4356      696F6E54 
 4356      4F00
 4357              	.LASF144:
 4358 236f 4359424C 		.ascii	"CYBLE_GATT_RSP_TO\000"
 4358      455F4741 
 4358      54545F52 
 4358      53505F54 
 4358      4F00
ARM GAS  C:\Users\alvin\AppData\Local\Temp\cc0iGj3s.s 			page 136


 4359              	.LASF78:
 4360 2381 4359424C 		.ascii	"CYBLE_EVT_L2CAP_CBFC_DATA_WRITE_IND\000"
 4360      455F4556 
 4360      545F4C32 
 4360      4341505F 
 4360      43424643 
 4361              	.LASF67:
 4362 23a5 4359424C 		.ascii	"CYBLE_EVT_GATTC_LONG_PROCEDURE_END\000"
 4362      455F4556 
 4362      545F4741 
 4362      5454435F 
 4362      4C4F4E47 
 4363              	.LASF192:
 4364 23c8 73757065 		.ascii	"supervisionTo\000"
 4364      72766973 
 4364      696F6E54 
 4364      6F00
 4365              	.LASF31:
 4366 23d6 4359424C 		.ascii	"CYBLE_EVT_GAP_DEVICE_DISCONNECTED\000"
 4366      455F4556 
 4366      545F4741 
 4366      505F4445 
 4366      56494345 
 4367              	.LASF63:
 4368 23f8 4359424C 		.ascii	"CYBLE_EVT_GATTS_HANDLE_VALUE_CNF\000"
 4368      455F4556 
 4368      545F4741 
 4368      5454535F 
 4368      48414E44 
 4369              	.LASF10:
 4370 2419 75696E74 		.ascii	"uint16\000"
 4370      313600
 4371              	.LASF92:
 4372 2420 4359424C 		.ascii	"CYBLE_ERROR_TX_POWER_READ\000"
 4372      455F4552 
 4372      524F525F 
 4372      54585F50 
 4372      4F574552 
 4373              		.ident	"GCC: (GNU Tools for ARM Embedded Processors) 4.9.3 20150303 (release) [ARM/embedded-4_9-br
