ARM GAS  C:\Users\alvin\AppData\Local\Temp\ccnbMvhm.s 			page 1


   1              		.cpu cortex-m0
   2              		.fpu softvfp
   3              		.eabi_attribute 20, 1
   4              		.eabi_attribute 21, 1
   5              		.eabi_attribute 23, 3
   6              		.eabi_attribute 24, 1
   7              		.eabi_attribute 25, 1
   8              		.eabi_attribute 26, 1
   9              		.eabi_attribute 30, 1
  10              		.eabi_attribute 34, 0
  11              		.eabi_attribute 18, 4
  12              		.code	16
  13              		.file	"cyfitter_cfg.c"
  14              		.text
  15              	.Ltext0:
  16              		.cfi_sections	.debug_frame
  17              		.section	.text.cfg_write_bytes32,"ax",%progbits
  18              		.align	2
  19              		.code	16
  20              		.thumb_func
  21              		.type	cfg_write_bytes32, %function
  22              	cfg_write_bytes32:
  23              	.LFB5:
  24              		.file 1 ".\\Generated_Source\\PSoC4\\cyfitter_cfg.c"
   1:.\Generated_Source\PSoC4/cyfitter_cfg.c **** /*******************************************************************************
   2:.\Generated_Source\PSoC4/cyfitter_cfg.c **** * File Name: cyfitter_cfg.c
   3:.\Generated_Source\PSoC4/cyfitter_cfg.c **** * 
   4:.\Generated_Source\PSoC4/cyfitter_cfg.c **** * PSoC Creator  3.3 CP3
   5:.\Generated_Source\PSoC4/cyfitter_cfg.c **** *
   6:.\Generated_Source\PSoC4/cyfitter_cfg.c **** * Description:
   7:.\Generated_Source\PSoC4/cyfitter_cfg.c **** * This file contains device initialization code.
   8:.\Generated_Source\PSoC4/cyfitter_cfg.c **** * Except for the user defined sections in CyClockStartupError(), this file should not be modified.
   9:.\Generated_Source\PSoC4/cyfitter_cfg.c **** * This file is automatically generated by PSoC Creator.
  10:.\Generated_Source\PSoC4/cyfitter_cfg.c **** *
  11:.\Generated_Source\PSoC4/cyfitter_cfg.c **** ********************************************************************************
  12:.\Generated_Source\PSoC4/cyfitter_cfg.c **** * Copyright (c) 2007-2016 Cypress Semiconductor.  All rights reserved.
  13:.\Generated_Source\PSoC4/cyfitter_cfg.c **** * You may use this file only in accordance with the license, terms, conditions, 
  14:.\Generated_Source\PSoC4/cyfitter_cfg.c **** * disclaimers, and limitations in the end user license agreement accompanying 
  15:.\Generated_Source\PSoC4/cyfitter_cfg.c **** * the software package with which this file was provided.
  16:.\Generated_Source\PSoC4/cyfitter_cfg.c **** ********************************************************************************/
  17:.\Generated_Source\PSoC4/cyfitter_cfg.c **** 
  18:.\Generated_Source\PSoC4/cyfitter_cfg.c **** #include <string.h>
  19:.\Generated_Source\PSoC4/cyfitter_cfg.c **** #include "cytypes.h"
  20:.\Generated_Source\PSoC4/cyfitter_cfg.c **** #include "cydevice_trm.h"
  21:.\Generated_Source\PSoC4/cyfitter_cfg.c **** #include "cyfitter.h"
  22:.\Generated_Source\PSoC4/cyfitter_cfg.c **** #include "CyLib.h"
  23:.\Generated_Source\PSoC4/cyfitter_cfg.c **** #include "CyLFClk.h"
  24:.\Generated_Source\PSoC4/cyfitter_cfg.c **** #include "cyfitter_cfg.h"
  25:.\Generated_Source\PSoC4/cyfitter_cfg.c **** 
  26:.\Generated_Source\PSoC4/cyfitter_cfg.c **** 
  27:.\Generated_Source\PSoC4/cyfitter_cfg.c **** #if defined(__GNUC__) || defined(__ARMCC_VERSION)
  28:.\Generated_Source\PSoC4/cyfitter_cfg.c ****     #define CYPACKED 
  29:.\Generated_Source\PSoC4/cyfitter_cfg.c ****     #define CYPACKED_ATTR __attribute__ ((packed))
  30:.\Generated_Source\PSoC4/cyfitter_cfg.c ****     #define CYALIGNED __attribute__ ((aligned))
  31:.\Generated_Source\PSoC4/cyfitter_cfg.c ****     #define CY_CFG_UNUSED __attribute__ ((unused))
  32:.\Generated_Source\PSoC4/cyfitter_cfg.c ****     #ifndef CY_CFG_SECTION
  33:.\Generated_Source\PSoC4/cyfitter_cfg.c ****         #define CY_CFG_SECTION __attribute__ ((section(".psocinit")))
ARM GAS  C:\Users\alvin\AppData\Local\Temp\ccnbMvhm.s 			page 2


  34:.\Generated_Source\PSoC4/cyfitter_cfg.c ****     #endif
  35:.\Generated_Source\PSoC4/cyfitter_cfg.c ****     
  36:.\Generated_Source\PSoC4/cyfitter_cfg.c ****     #if defined(__ARMCC_VERSION)
  37:.\Generated_Source\PSoC4/cyfitter_cfg.c ****         #define CY_CFG_MEMORY_BARRIER() __memory_changed()
  38:.\Generated_Source\PSoC4/cyfitter_cfg.c ****     #else
  39:.\Generated_Source\PSoC4/cyfitter_cfg.c ****         #define CY_CFG_MEMORY_BARRIER() __sync_synchronize()
  40:.\Generated_Source\PSoC4/cyfitter_cfg.c ****     #endif
  41:.\Generated_Source\PSoC4/cyfitter_cfg.c ****     
  42:.\Generated_Source\PSoC4/cyfitter_cfg.c **** #elif defined(__ICCARM__)
  43:.\Generated_Source\PSoC4/cyfitter_cfg.c ****     #include <intrinsics.h>
  44:.\Generated_Source\PSoC4/cyfitter_cfg.c **** 
  45:.\Generated_Source\PSoC4/cyfitter_cfg.c ****     #define CYPACKED __packed
  46:.\Generated_Source\PSoC4/cyfitter_cfg.c ****     #define CYPACKED_ATTR 
  47:.\Generated_Source\PSoC4/cyfitter_cfg.c ****     #define CYALIGNED _Pragma("data_alignment=4")
  48:.\Generated_Source\PSoC4/cyfitter_cfg.c ****     #define CY_CFG_UNUSED _Pragma("diag_suppress=Pe177")
  49:.\Generated_Source\PSoC4/cyfitter_cfg.c ****     #define CY_CFG_SECTION _Pragma("location=\".psocinit\"")
  50:.\Generated_Source\PSoC4/cyfitter_cfg.c ****     
  51:.\Generated_Source\PSoC4/cyfitter_cfg.c ****     #define CY_CFG_MEMORY_BARRIER() __DMB()
  52:.\Generated_Source\PSoC4/cyfitter_cfg.c ****     
  53:.\Generated_Source\PSoC4/cyfitter_cfg.c **** #else
  54:.\Generated_Source\PSoC4/cyfitter_cfg.c ****     #error Unsupported toolchain
  55:.\Generated_Source\PSoC4/cyfitter_cfg.c **** #endif
  56:.\Generated_Source\PSoC4/cyfitter_cfg.c **** 
  57:.\Generated_Source\PSoC4/cyfitter_cfg.c **** 
  58:.\Generated_Source\PSoC4/cyfitter_cfg.c **** CY_CFG_UNUSED
  59:.\Generated_Source\PSoC4/cyfitter_cfg.c **** static void CYMEMZERO(void *s, size_t n);
  60:.\Generated_Source\PSoC4/cyfitter_cfg.c **** CY_CFG_UNUSED
  61:.\Generated_Source\PSoC4/cyfitter_cfg.c **** static void CYMEMZERO(void *s, size_t n)
  62:.\Generated_Source\PSoC4/cyfitter_cfg.c **** {
  63:.\Generated_Source\PSoC4/cyfitter_cfg.c **** 	(void)memset(s, 0, n);
  64:.\Generated_Source\PSoC4/cyfitter_cfg.c **** }
  65:.\Generated_Source\PSoC4/cyfitter_cfg.c **** CY_CFG_UNUSED
  66:.\Generated_Source\PSoC4/cyfitter_cfg.c **** static void CYCONFIGCPY(void *dest, const void *src, size_t n);
  67:.\Generated_Source\PSoC4/cyfitter_cfg.c **** CY_CFG_UNUSED
  68:.\Generated_Source\PSoC4/cyfitter_cfg.c **** static void CYCONFIGCPY(void *dest, const void *src, size_t n)
  69:.\Generated_Source\PSoC4/cyfitter_cfg.c **** {
  70:.\Generated_Source\PSoC4/cyfitter_cfg.c **** 	(void)memcpy(dest, src, n);
  71:.\Generated_Source\PSoC4/cyfitter_cfg.c **** }
  72:.\Generated_Source\PSoC4/cyfitter_cfg.c **** CY_CFG_UNUSED
  73:.\Generated_Source\PSoC4/cyfitter_cfg.c **** static void CYCONFIGCPYCODE(void *dest, const void *src, size_t n);
  74:.\Generated_Source\PSoC4/cyfitter_cfg.c **** CY_CFG_UNUSED
  75:.\Generated_Source\PSoC4/cyfitter_cfg.c **** static void CYCONFIGCPYCODE(void *dest, const void *src, size_t n)
  76:.\Generated_Source\PSoC4/cyfitter_cfg.c **** {
  77:.\Generated_Source\PSoC4/cyfitter_cfg.c **** 	(void)memcpy(dest, src, n);
  78:.\Generated_Source\PSoC4/cyfitter_cfg.c **** }
  79:.\Generated_Source\PSoC4/cyfitter_cfg.c **** 
  80:.\Generated_Source\PSoC4/cyfitter_cfg.c **** 
  81:.\Generated_Source\PSoC4/cyfitter_cfg.c **** 
  82:.\Generated_Source\PSoC4/cyfitter_cfg.c **** /* Clock startup error codes                                                   */
  83:.\Generated_Source\PSoC4/cyfitter_cfg.c **** #define CYCLOCKSTART_NO_ERROR    0u
  84:.\Generated_Source\PSoC4/cyfitter_cfg.c **** #define CYCLOCKSTART_XTAL_ERROR  1u
  85:.\Generated_Source\PSoC4/cyfitter_cfg.c **** #define CYCLOCKSTART_32KHZ_ERROR 2u
  86:.\Generated_Source\PSoC4/cyfitter_cfg.c **** #define CYCLOCKSTART_PLL_ERROR   3u
  87:.\Generated_Source\PSoC4/cyfitter_cfg.c **** 
  88:.\Generated_Source\PSoC4/cyfitter_cfg.c **** #ifdef CY_NEED_CYCLOCKSTARTUPERROR
  89:.\Generated_Source\PSoC4/cyfitter_cfg.c **** /*******************************************************************************
  90:.\Generated_Source\PSoC4/cyfitter_cfg.c **** * Function Name: CyClockStartupError
ARM GAS  C:\Users\alvin\AppData\Local\Temp\ccnbMvhm.s 			page 3


  91:.\Generated_Source\PSoC4/cyfitter_cfg.c **** ********************************************************************************
  92:.\Generated_Source\PSoC4/cyfitter_cfg.c **** * Summary:
  93:.\Generated_Source\PSoC4/cyfitter_cfg.c **** *  If an error is encountered during clock configuration (crystal startup error,
  94:.\Generated_Source\PSoC4/cyfitter_cfg.c **** *  PLL lock error, etc.), the system will end up here.  Unless reimplemented by
  95:.\Generated_Source\PSoC4/cyfitter_cfg.c **** *  the customer, this function will stop in an infinite loop.
  96:.\Generated_Source\PSoC4/cyfitter_cfg.c **** *
  97:.\Generated_Source\PSoC4/cyfitter_cfg.c **** * Parameters:
  98:.\Generated_Source\PSoC4/cyfitter_cfg.c **** *   void
  99:.\Generated_Source\PSoC4/cyfitter_cfg.c **** *
 100:.\Generated_Source\PSoC4/cyfitter_cfg.c **** * Return:
 101:.\Generated_Source\PSoC4/cyfitter_cfg.c **** *   void
 102:.\Generated_Source\PSoC4/cyfitter_cfg.c **** *
 103:.\Generated_Source\PSoC4/cyfitter_cfg.c **** *******************************************************************************/
 104:.\Generated_Source\PSoC4/cyfitter_cfg.c **** CY_CFG_UNUSED
 105:.\Generated_Source\PSoC4/cyfitter_cfg.c **** static void CyClockStartupError(uint8 errorCode);
 106:.\Generated_Source\PSoC4/cyfitter_cfg.c **** CY_CFG_UNUSED
 107:.\Generated_Source\PSoC4/cyfitter_cfg.c **** static void CyClockStartupError(uint8 errorCode)
 108:.\Generated_Source\PSoC4/cyfitter_cfg.c **** {
 109:.\Generated_Source\PSoC4/cyfitter_cfg.c ****     /* To remove the compiler warning if errorCode not used.                */
 110:.\Generated_Source\PSoC4/cyfitter_cfg.c ****     errorCode = errorCode;
 111:.\Generated_Source\PSoC4/cyfitter_cfg.c **** 
 112:.\Generated_Source\PSoC4/cyfitter_cfg.c ****     /* `#START CyClockStartupError` */
 113:.\Generated_Source\PSoC4/cyfitter_cfg.c **** 
 114:.\Generated_Source\PSoC4/cyfitter_cfg.c ****     /* If we have a clock startup error (bad MHz crystal, PLL lock, etc.),  */
 115:.\Generated_Source\PSoC4/cyfitter_cfg.c ****     /* we will end up here to allow the customer to implement something to  */
 116:.\Generated_Source\PSoC4/cyfitter_cfg.c ****     /* deal with the clock condition.                                       */
 117:.\Generated_Source\PSoC4/cyfitter_cfg.c **** 
 118:.\Generated_Source\PSoC4/cyfitter_cfg.c ****     /* `#END` */
 119:.\Generated_Source\PSoC4/cyfitter_cfg.c **** 
 120:.\Generated_Source\PSoC4/cyfitter_cfg.c ****     /* If nothing else, stop here since the clocks have not started         */
 121:.\Generated_Source\PSoC4/cyfitter_cfg.c ****     /* correctly.                                                           */
 122:.\Generated_Source\PSoC4/cyfitter_cfg.c ****     while(1) {}
 123:.\Generated_Source\PSoC4/cyfitter_cfg.c **** }
 124:.\Generated_Source\PSoC4/cyfitter_cfg.c **** #endif
 125:.\Generated_Source\PSoC4/cyfitter_cfg.c **** 
 126:.\Generated_Source\PSoC4/cyfitter_cfg.c **** #define CY_CFG_BASE_ADDR_COUNT 10u
 127:.\Generated_Source\PSoC4/cyfitter_cfg.c **** CYPACKED typedef struct
 128:.\Generated_Source\PSoC4/cyfitter_cfg.c **** {
 129:.\Generated_Source\PSoC4/cyfitter_cfg.c **** 	uint8 offset;
 130:.\Generated_Source\PSoC4/cyfitter_cfg.c **** 	uint8 value;
 131:.\Generated_Source\PSoC4/cyfitter_cfg.c **** } CYPACKED_ATTR cy_cfg_addrvalue_t;
 132:.\Generated_Source\PSoC4/cyfitter_cfg.c **** 
 133:.\Generated_Source\PSoC4/cyfitter_cfg.c **** 
 134:.\Generated_Source\PSoC4/cyfitter_cfg.c **** 
 135:.\Generated_Source\PSoC4/cyfitter_cfg.c **** /*******************************************************************************
 136:.\Generated_Source\PSoC4/cyfitter_cfg.c **** * Function Name: cfg_write_bytes32
 137:.\Generated_Source\PSoC4/cyfitter_cfg.c **** ********************************************************************************
 138:.\Generated_Source\PSoC4/cyfitter_cfg.c **** * Summary:
 139:.\Generated_Source\PSoC4/cyfitter_cfg.c **** *  This function is used for setting up the chip configuration areas that
 140:.\Generated_Source\PSoC4/cyfitter_cfg.c **** *  contain relatively sparse data.
 141:.\Generated_Source\PSoC4/cyfitter_cfg.c **** *
 142:.\Generated_Source\PSoC4/cyfitter_cfg.c **** * Parameters:
 143:.\Generated_Source\PSoC4/cyfitter_cfg.c **** *   void
 144:.\Generated_Source\PSoC4/cyfitter_cfg.c **** *
 145:.\Generated_Source\PSoC4/cyfitter_cfg.c **** * Return:
 146:.\Generated_Source\PSoC4/cyfitter_cfg.c **** *   void
 147:.\Generated_Source\PSoC4/cyfitter_cfg.c **** *
ARM GAS  C:\Users\alvin\AppData\Local\Temp\ccnbMvhm.s 			page 4


 148:.\Generated_Source\PSoC4/cyfitter_cfg.c **** *******************************************************************************/
 149:.\Generated_Source\PSoC4/cyfitter_cfg.c **** static void cfg_write_bytes32(const uint32 addr_table[], const cy_cfg_addrvalue_t data_table[]);
 150:.\Generated_Source\PSoC4/cyfitter_cfg.c **** static void cfg_write_bytes32(const uint32 addr_table[], const cy_cfg_addrvalue_t data_table[])
 151:.\Generated_Source\PSoC4/cyfitter_cfg.c **** {
  25              		.loc 1 151 0
  26              		.cfi_startproc
  27              	.LVL0:
  28 0000 F0B5     		push	{r4, r5, r6, r7, lr}
  29              		.cfi_def_cfa_offset 20
  30              		.cfi_offset 4, -20
  31              		.cfi_offset 5, -16
  32              		.cfi_offset 6, -12
  33              		.cfi_offset 7, -8
  34              		.cfi_offset 14, -4
  35              	.LVL1:
 152:.\Generated_Source\PSoC4/cyfitter_cfg.c **** 	/* For 32-bit little-endian architectures */
 153:.\Generated_Source\PSoC4/cyfitter_cfg.c **** 	uint32 i, j = 0u;
  36              		.loc 1 153 0
  37 0002 0025     		mov	r5, #0
 154:.\Generated_Source\PSoC4/cyfitter_cfg.c **** 	for (i = 0u; i < CY_CFG_BASE_ADDR_COUNT; i++)
  38              		.loc 1 154 0
  39 0004 0027     		mov	r7, #0
  40 0006 11E0     		b	.L2
  41              	.LVL2:
  42              	.L5:
  43              	.LBB2:
 155:.\Generated_Source\PSoC4/cyfitter_cfg.c **** 	{
 156:.\Generated_Source\PSoC4/cyfitter_cfg.c **** 		uint32 baseAddr = addr_table[i];
  44              		.loc 1 156 0
  45 0008 BB00     		lsl	r3, r7, #2
  46 000a C658     		ldr	r6, [r0, r3]
  47              	.LVL3:
 157:.\Generated_Source\PSoC4/cyfitter_cfg.c **** 		uint8 count = (uint8)baseAddr;
  48              		.loc 1 157 0
  49 000c F3B2     		uxtb	r3, r6
  50              	.LVL4:
 158:.\Generated_Source\PSoC4/cyfitter_cfg.c **** 		baseAddr &= 0xFFFFFF00u;
  51              		.loc 1 158 0
  52 000e FF22     		mov	r2, #255
  53 0010 9643     		bic	r6, r2
  54              	.LVL5:
 159:.\Generated_Source\PSoC4/cyfitter_cfg.c **** 		while (count != 0u)
  55              		.loc 1 159 0
  56 0012 08E0     		b	.L3
  57              	.L4:
 160:.\Generated_Source\PSoC4/cyfitter_cfg.c **** 		{
 161:.\Generated_Source\PSoC4/cyfitter_cfg.c **** 			CY_SET_XTND_REG8((void CYFAR *)(baseAddr + data_table[j].offset), data_table[j].value);
  58              		.loc 1 161 0
  59 0014 6A00     		lsl	r2, r5, #1
  60 0016 8A18     		add	r2, r1, r2
  61 0018 1478     		ldrb	r4, [r2]
  62 001a A419     		add	r4, r4, r6
  63 001c 5278     		ldrb	r2, [r2, #1]
  64 001e 2270     		strb	r2, [r4]
 162:.\Generated_Source\PSoC4/cyfitter_cfg.c **** 			j++;
  65              		.loc 1 162 0
  66 0020 0135     		add	r5, r5, #1
ARM GAS  C:\Users\alvin\AppData\Local\Temp\ccnbMvhm.s 			page 5


  67              	.LVL6:
 163:.\Generated_Source\PSoC4/cyfitter_cfg.c **** 			count--;
  68              		.loc 1 163 0
  69 0022 013B     		sub	r3, r3, #1
  70              	.LVL7:
  71 0024 DBB2     		uxtb	r3, r3
  72              	.LVL8:
  73              	.L3:
 159:.\Generated_Source\PSoC4/cyfitter_cfg.c **** 		{
  74              		.loc 1 159 0
  75 0026 002B     		cmp	r3, #0
  76 0028 F4D1     		bne	.L4
  77              	.LBE2:
 154:.\Generated_Source\PSoC4/cyfitter_cfg.c **** 	{
  78              		.loc 1 154 0 discriminator 2
  79 002a 0137     		add	r7, r7, #1
  80              	.LVL9:
  81              	.L2:
 154:.\Generated_Source\PSoC4/cyfitter_cfg.c **** 	{
  82              		.loc 1 154 0 is_stmt 0 discriminator 1
  83 002c 092F     		cmp	r7, #9
  84 002e EBD9     		bls	.L5
 164:.\Generated_Source\PSoC4/cyfitter_cfg.c **** 		}
 165:.\Generated_Source\PSoC4/cyfitter_cfg.c **** 	}
 166:.\Generated_Source\PSoC4/cyfitter_cfg.c **** }
  85              		.loc 1 166 0 is_stmt 1
  86              		@ sp needed
  87              	.LVL10:
  88              	.LVL11:
  89 0030 F0BD     		pop	{r4, r5, r6, r7, pc}
  90              		.cfi_endproc
  91              	.LFE5:
  92              		.size	cfg_write_bytes32, .-cfg_write_bytes32
  93 0032 C046     		.section	.text.CYMEMZERO,"ax",%progbits
  94              		.align	2
  95              		.code	16
  96              		.thumb_func
  97              		.type	CYMEMZERO, %function
  98              	CYMEMZERO:
  99              	.LFB2:
  62:.\Generated_Source\PSoC4/cyfitter_cfg.c **** 	(void)memset(s, 0, n);
 100              		.loc 1 62 0
 101              		.cfi_startproc
 102              	.LVL12:
 103 0000 08B5     		push	{r3, lr}
 104              		.cfi_def_cfa_offset 8
 105              		.cfi_offset 3, -8
 106              		.cfi_offset 14, -4
 107 0002 0A1C     		mov	r2, r1
  63:.\Generated_Source\PSoC4/cyfitter_cfg.c **** }
 108              		.loc 1 63 0
 109 0004 0021     		mov	r1, #0
 110              	.LVL13:
 111 0006 FFF7FEFF 		bl	memset
 112              	.LVL14:
  64:.\Generated_Source\PSoC4/cyfitter_cfg.c **** CY_CFG_UNUSED
 113              		.loc 1 64 0
ARM GAS  C:\Users\alvin\AppData\Local\Temp\ccnbMvhm.s 			page 6


 114              		@ sp needed
 115 000a 08BD     		pop	{r3, pc}
 116              		.cfi_endproc
 117              	.LFE2:
 118              		.size	CYMEMZERO, .-CYMEMZERO
 119              		.section	.psocinit,"ax",%progbits
 120              		.align	2
 121              		.code	16
 122              		.thumb_func
 123              		.type	ClockSetup, %function
 124              	ClockSetup:
 125              	.LFB6:
 167:.\Generated_Source\PSoC4/cyfitter_cfg.c **** 
 168:.\Generated_Source\PSoC4/cyfitter_cfg.c **** 
 169:.\Generated_Source\PSoC4/cyfitter_cfg.c **** /*******************************************************************************
 170:.\Generated_Source\PSoC4/cyfitter_cfg.c **** * Function Name: ClockSetup
 171:.\Generated_Source\PSoC4/cyfitter_cfg.c **** ********************************************************************************
 172:.\Generated_Source\PSoC4/cyfitter_cfg.c **** *
 173:.\Generated_Source\PSoC4/cyfitter_cfg.c **** * Summary:
 174:.\Generated_Source\PSoC4/cyfitter_cfg.c **** *   Performs the initialization of all of the clocks in the device based on the
 175:.\Generated_Source\PSoC4/cyfitter_cfg.c **** *   settings in the Clock tab of the DWR.  This includes enabling the requested
 176:.\Generated_Source\PSoC4/cyfitter_cfg.c **** *   clocks and setting the necessary dividers to produce the desired frequency. 
 177:.\Generated_Source\PSoC4/cyfitter_cfg.c **** *
 178:.\Generated_Source\PSoC4/cyfitter_cfg.c **** * Parameters:
 179:.\Generated_Source\PSoC4/cyfitter_cfg.c **** *   void
 180:.\Generated_Source\PSoC4/cyfitter_cfg.c **** *
 181:.\Generated_Source\PSoC4/cyfitter_cfg.c **** * Return:
 182:.\Generated_Source\PSoC4/cyfitter_cfg.c **** *   void
 183:.\Generated_Source\PSoC4/cyfitter_cfg.c **** *
 184:.\Generated_Source\PSoC4/cyfitter_cfg.c **** *******************************************************************************/
 185:.\Generated_Source\PSoC4/cyfitter_cfg.c **** static void ClockSetup(void);
 186:.\Generated_Source\PSoC4/cyfitter_cfg.c **** CY_CFG_SECTION
 187:.\Generated_Source\PSoC4/cyfitter_cfg.c **** static void ClockSetup(void)
 188:.\Generated_Source\PSoC4/cyfitter_cfg.c **** {
 126              		.loc 1 188 0
 127              		.cfi_startproc
 128 0000 38B5     		push	{r3, r4, r5, lr}
 129              		.cfi_def_cfa_offset 16
 130              		.cfi_offset 3, -16
 131              		.cfi_offset 4, -12
 132              		.cfi_offset 5, -8
 133              		.cfi_offset 14, -4
 189:.\Generated_Source\PSoC4/cyfitter_cfg.c **** 
 190:.\Generated_Source\PSoC4/cyfitter_cfg.c **** 	/* Set Flash Cycles based on max possible frequency in case a glitch occurs during ClockSetup(). *
 191:.\Generated_Source\PSoC4/cyfitter_cfg.c **** 	CY_SET_REG32((void CYXDATA *)(CYREG_CPUSS_FLASH_CTL), (0x0012u));
 134              		.loc 1 191 0
 135 0002 1222     		mov	r2, #18
 136 0004 304B     		ldr	r3, .L8
 137 0006 1A60     		str	r2, [r3]
 192:.\Generated_Source\PSoC4/cyfitter_cfg.c **** 
 193:.\Generated_Source\PSoC4/cyfitter_cfg.c **** 	/* Start the WCO */
 194:.\Generated_Source\PSoC4/cyfitter_cfg.c **** 	CySysClkWcoStart();
 138              		.loc 1 194 0
 139 0008 FFF7FEFF 		bl	CySysClkWcoStart
 140              	.LVL15:
 195:.\Generated_Source\PSoC4/cyfitter_cfg.c **** 	CyDelayCycles(12000000u); /* WCO may take up to 500ms to start */
 141              		.loc 1 195 0
ARM GAS  C:\Users\alvin\AppData\Local\Temp\ccnbMvhm.s 			page 7


 142 000c 2F48     		ldr	r0, .L8+4
 143 000e FFF7FEFF 		bl	CyDelayCycles
 144              	.LVL16:
 196:.\Generated_Source\PSoC4/cyfitter_cfg.c **** 	(void)CySysClkWcoSetPowerMode(CY_SYS_CLK_WCO_LPM);    /* Switch to the low power mode */
 145              		.loc 1 196 0
 146 0012 0120     		mov	r0, #1
 147 0014 FFF7FEFF 		bl	CySysClkWcoSetPowerMode
 148              	.LVL17:
 197:.\Generated_Source\PSoC4/cyfitter_cfg.c **** 
 198:.\Generated_Source\PSoC4/cyfitter_cfg.c **** 	/* Setup and trim IMO based on desired frequency. */
 199:.\Generated_Source\PSoC4/cyfitter_cfg.c **** 	CySysClkWriteImoFreq(48u);
 149              		.loc 1 199 0
 150 0018 3020     		mov	r0, #48
 151 001a FFF7FEFF 		bl	CySysClkWriteImoFreq
 152              	.LVL18:
 200:.\Generated_Source\PSoC4/cyfitter_cfg.c **** 	/* CYDEV_CLK_ILO_CONFIG Starting address: CYDEV_CLK_ILO_CONFIG */
 201:.\Generated_Source\PSoC4/cyfitter_cfg.c **** 	CY_SET_XTND_REG32((void CYFAR *)(CYREG_CLK_ILO_CONFIG), 0x80000006u);
 153              		.loc 1 201 0
 154 001e 2C4A     		ldr	r2, .L8+8
 155 0020 2C4B     		ldr	r3, .L8+12
 156 0022 1A60     		str	r2, [r3]
 202:.\Generated_Source\PSoC4/cyfitter_cfg.c **** 
 203:.\Generated_Source\PSoC4/cyfitter_cfg.c **** 	/* CYDEV_WDT_CONFIG Starting address: CYDEV_WDT_CONFIG */
 204:.\Generated_Source\PSoC4/cyfitter_cfg.c **** 	CY_SET_XTND_REG32((void CYFAR *)(CYREG_WDT_CONFIG), 0x40000000u);
 157              		.loc 1 204 0
 158 0024 2C4C     		ldr	r4, .L8+16
 159 0026 8025     		mov	r5, #128
 160 0028 ED05     		lsl	r5, r5, #23
 161 002a 2560     		str	r5, [r4]
 205:.\Generated_Source\PSoC4/cyfitter_cfg.c **** 
 206:.\Generated_Source\PSoC4/cyfitter_cfg.c **** 
 207:.\Generated_Source\PSoC4/cyfitter_cfg.c **** 	/* Enable fast start mode for XO */
 208:.\Generated_Source\PSoC4/cyfitter_cfg.c **** 	CY_SET_REG32((void*)CYREG_BLE_BLERD_BB_XO, CY_GET_REG32((void*)CYREG_BLE_BLERD_BB_XO) | (uint32)0x
 162              		.loc 1 208 0
 163 002c 2B4A     		ldr	r2, .L8+20
 164 002e 1168     		ldr	r1, [r2]
 165 0030 0223     		mov	r3, #2
 166 0032 0B43     		orr	r3, r1
 167 0034 1360     		str	r3, [r2]
 209:.\Generated_Source\PSoC4/cyfitter_cfg.c **** 	CY_SET_XTND_REG32((void CYFAR *)(CYREG_BLE_BLERD_BB_XO_CAPTRIM), 0x00003E2Du);
 168              		.loc 1 209 0
 169 0036 2A4A     		ldr	r2, .L8+24
 170 0038 2A4B     		ldr	r3, .L8+28
 171 003a 1A60     		str	r2, [r3]
 210:.\Generated_Source\PSoC4/cyfitter_cfg.c **** 	/* Disable Crystal Stable Interrupt before enabling ECO */
 211:.\Generated_Source\PSoC4/cyfitter_cfg.c **** 	CY_SET_REG32((void*)CYREG_BLE_BLESS_LL_DSM_CTRL, CY_GET_REG32((void*)CYREG_BLE_BLESS_LL_DSM_CTRL) 
 172              		.loc 1 211 0
 173 003c 2A4A     		ldr	r2, .L8+32
 174 003e 1368     		ldr	r3, [r2]
 175 0040 0821     		mov	r1, #8
 176 0042 8B43     		bic	r3, r1
 177 0044 1360     		str	r3, [r2]
 212:.\Generated_Source\PSoC4/cyfitter_cfg.c **** 	/* Start the ECO and do not check status since it is not needed for HFCLK */
 213:.\Generated_Source\PSoC4/cyfitter_cfg.c **** 	(void)CySysClkEcoStart(2000u);
 178              		.loc 1 213 0
 179 0046 FA20     		mov	r0, #250
 180 0048 C000     		lsl	r0, r0, #3
ARM GAS  C:\Users\alvin\AppData\Local\Temp\ccnbMvhm.s 			page 8


 181 004a FFF7FEFF 		bl	CySysClkEcoStart
 182              	.LVL19:
 214:.\Generated_Source\PSoC4/cyfitter_cfg.c **** 	CyDelayUs(1500u); /* Wait to stabalize */
 183              		.loc 1 214 0
 184 004e 2748     		ldr	r0, .L8+36
 185 0050 FFF7FEFF 		bl	CyDelayUs
 186              	.LVL20:
 215:.\Generated_Source\PSoC4/cyfitter_cfg.c **** 
 216:.\Generated_Source\PSoC4/cyfitter_cfg.c **** 	/* Setup phase aligned clocks */
 217:.\Generated_Source\PSoC4/cyfitter_cfg.c **** 	CY_SET_REG32((void *)CYREG_PERI_DIV_16_CTL3, 0x00BB7F00u);
 187              		.loc 1 217 0
 188 0054 264A     		ldr	r2, .L8+40
 189 0056 274B     		ldr	r3, .L8+44
 190 0058 1A60     		str	r2, [r3]
 218:.\Generated_Source\PSoC4/cyfitter_cfg.c **** 	CY_SET_REG32((void *)CYREG_PERI_DIV_CMD, 0x8000FF43u);
 191              		.loc 1 218 0
 192 005a 274B     		ldr	r3, .L8+48
 193 005c 274A     		ldr	r2, .L8+52
 194 005e 1A60     		str	r2, [r3]
 219:.\Generated_Source\PSoC4/cyfitter_cfg.c **** 	CY_SET_REG32((void *)CYREG_PERI_DIV_16_CTL1, 0x00002F00u);
 195              		.loc 1 219 0
 196 0060 BC21     		mov	r1, #188
 197 0062 8901     		lsl	r1, r1, #6
 198 0064 264A     		ldr	r2, .L8+56
 199 0066 1160     		str	r1, [r2]
 220:.\Generated_Source\PSoC4/cyfitter_cfg.c **** 	CY_SET_REG32((void *)CYREG_PERI_DIV_CMD, 0x8000FF41u);
 200              		.loc 1 220 0
 201 0068 264A     		ldr	r2, .L8+60
 202 006a 1A60     		str	r2, [r3]
 221:.\Generated_Source\PSoC4/cyfitter_cfg.c **** 	CY_SET_REG32((void *)CYREG_PERI_DIV_16_CTL2, 0x00003400u);
 203              		.loc 1 221 0
 204 006c D021     		mov	r1, #208
 205 006e 8901     		lsl	r1, r1, #6
 206 0070 254A     		ldr	r2, .L8+64
 207 0072 1160     		str	r1, [r2]
 222:.\Generated_Source\PSoC4/cyfitter_cfg.c **** 	CY_SET_REG32((void *)CYREG_PERI_DIV_CMD, 0x8000FF42u);
 208              		.loc 1 222 0
 209 0074 254A     		ldr	r2, .L8+68
 210 0076 1A60     		str	r2, [r3]
 223:.\Generated_Source\PSoC4/cyfitter_cfg.c **** 	CY_SET_REG32((void *)CYREG_PERI_DIV_16_CTL0, 0x00000700u);
 211              		.loc 1 223 0
 212 0078 E021     		mov	r1, #224
 213 007a C900     		lsl	r1, r1, #3
 214 007c 244A     		ldr	r2, .L8+72
 215 007e 1160     		str	r1, [r2]
 224:.\Generated_Source\PSoC4/cyfitter_cfg.c **** 	CY_SET_REG32((void *)CYREG_PERI_DIV_CMD, 0x8000FF40u);
 216              		.loc 1 224 0
 217 0080 244A     		ldr	r2, .L8+76
 218 0082 1A60     		str	r2, [r3]
 225:.\Generated_Source\PSoC4/cyfitter_cfg.c **** 
 226:.\Generated_Source\PSoC4/cyfitter_cfg.c **** 	/* CYDEV_CLK_IMO_CONFIG Starting address: CYDEV_CLK_IMO_CONFIG */
 227:.\Generated_Source\PSoC4/cyfitter_cfg.c **** 	CY_SET_XTND_REG32((void CYFAR *)(CYREG_CLK_IMO_CONFIG), 0x82000000u);
 219              		.loc 1 227 0
 220 0084 8222     		mov	r2, #130
 221 0086 1206     		lsl	r2, r2, #24
 222 0088 234B     		ldr	r3, .L8+80
 223 008a 1A60     		str	r2, [r3]
ARM GAS  C:\Users\alvin\AppData\Local\Temp\ccnbMvhm.s 			page 9


 228:.\Generated_Source\PSoC4/cyfitter_cfg.c **** 
 229:.\Generated_Source\PSoC4/cyfitter_cfg.c **** 	/* CYDEV_CLK_SELECT Starting address: CYDEV_CLK_SELECT */
 230:.\Generated_Source\PSoC4/cyfitter_cfg.c **** 	CY_SET_XTND_REG32((void CYFAR *)(CYREG_CLK_SELECT), 0x00040000u);
 224              		.loc 1 230 0
 225 008c 8022     		mov	r2, #128
 226 008e D202     		lsl	r2, r2, #11
 227 0090 224B     		ldr	r3, .L8+84
 228 0092 1A60     		str	r2, [r3]
 231:.\Generated_Source\PSoC4/cyfitter_cfg.c **** 
 232:.\Generated_Source\PSoC4/cyfitter_cfg.c **** 	/* CYDEV_PERI_PCLK_CTL14 Starting address: CYDEV_PERI_PCLK_CTL14 */
 233:.\Generated_Source\PSoC4/cyfitter_cfg.c **** 	CY_SET_XTND_REG32((void CYFAR *)(CYREG_PERI_PCLK_CTL14), 0x00000043u);
 229              		.loc 1 233 0
 230 0094 4322     		mov	r2, #67
 231 0096 224B     		ldr	r3, .L8+88
 232 0098 1A60     		str	r2, [r3]
 234:.\Generated_Source\PSoC4/cyfitter_cfg.c **** 
 235:.\Generated_Source\PSoC4/cyfitter_cfg.c **** 	/* CYDEV_PERI_PCLK_CTL12 Starting address: CYDEV_PERI_PCLK_CTL12 */
 236:.\Generated_Source\PSoC4/cyfitter_cfg.c **** 	CY_SET_XTND_REG32((void CYFAR *)(CYREG_PERI_PCLK_CTL12), 0x00000041u);
 233              		.loc 1 236 0
 234 009a 023A     		sub	r2, r2, #2
 235 009c 214B     		ldr	r3, .L8+92
 236 009e 1A60     		str	r2, [r3]
 237:.\Generated_Source\PSoC4/cyfitter_cfg.c **** 
 238:.\Generated_Source\PSoC4/cyfitter_cfg.c **** 	/* CYDEV_PERI_PCLK_CTL9 Starting address: CYDEV_PERI_PCLK_CTL9 */
 239:.\Generated_Source\PSoC4/cyfitter_cfg.c **** 	CY_SET_XTND_REG32((void CYFAR *)(CYREG_PERI_PCLK_CTL9), 0x00000042u);
 237              		.loc 1 239 0
 238 00a0 4223     		mov	r3, #66
 239 00a2 2149     		ldr	r1, .L8+96
 240 00a4 0B60     		str	r3, [r1]
 240:.\Generated_Source\PSoC4/cyfitter_cfg.c **** 
 241:.\Generated_Source\PSoC4/cyfitter_cfg.c **** 	/* CYDEV_PERI_PCLK_CTL8 Starting address: CYDEV_PERI_PCLK_CTL8 */
 242:.\Generated_Source\PSoC4/cyfitter_cfg.c **** 	CY_SET_XTND_REG32((void CYFAR *)(CYREG_PERI_PCLK_CTL8), 0x00000041u);
 241              		.loc 1 242 0
 242 00a6 2149     		ldr	r1, .L8+100
 243 00a8 0A60     		str	r2, [r1]
 243:.\Generated_Source\PSoC4/cyfitter_cfg.c **** 
 244:.\Generated_Source\PSoC4/cyfitter_cfg.c **** 	/* CYDEV_PERI_PCLK_CTL7 Starting address: CYDEV_PERI_PCLK_CTL7 */
 245:.\Generated_Source\PSoC4/cyfitter_cfg.c **** 	CY_SET_XTND_REG32((void CYFAR *)(CYREG_PERI_PCLK_CTL7), 0x00000042u);
 244              		.loc 1 245 0
 245 00aa 214A     		ldr	r2, .L8+104
 246 00ac 1360     		str	r3, [r2]
 246:.\Generated_Source\PSoC4/cyfitter_cfg.c **** 
 247:.\Generated_Source\PSoC4/cyfitter_cfg.c **** 	/* CYDEV_PERI_PCLK_CTL6 Starting address: CYDEV_PERI_PCLK_CTL6 */
 248:.\Generated_Source\PSoC4/cyfitter_cfg.c **** 	CY_SET_XTND_REG32((void CYFAR *)(CYREG_PERI_PCLK_CTL6), 0x00000040u);
 247              		.loc 1 248 0
 248 00ae 4022     		mov	r2, #64
 249 00b0 204B     		ldr	r3, .L8+108
 250 00b2 1A60     		str	r2, [r3]
 249:.\Generated_Source\PSoC4/cyfitter_cfg.c **** 
 250:.\Generated_Source\PSoC4/cyfitter_cfg.c **** 	(void)CyIntSetVector(8u, &CySysWdtIsr);
 251              		.loc 1 250 0
 252 00b4 0820     		mov	r0, #8
 253 00b6 2049     		ldr	r1, .L8+112
 254 00b8 FFF7FEFF 		bl	CyIntSetVector
 255              	.LVL21:
 251:.\Generated_Source\PSoC4/cyfitter_cfg.c **** 	CyIntEnable(8u);
 256              		.loc 1 251 0
ARM GAS  C:\Users\alvin\AppData\Local\Temp\ccnbMvhm.s 			page 10


 257 00bc 0820     		mov	r0, #8
 258 00be FFF7FEFF 		bl	CyIntEnable
 259              	.LVL22:
 252:.\Generated_Source\PSoC4/cyfitter_cfg.c **** 	CY_SET_XTND_REG32((void CYFAR *)(CYREG_WDT_CONFIG), 0x40000000u);
 260              		.loc 1 252 0
 261 00c2 2560     		str	r5, [r4]
 253:.\Generated_Source\PSoC4/cyfitter_cfg.c **** }
 262              		.loc 1 253 0
 263              		@ sp needed
 264 00c4 38BD     		pop	{r3, r4, r5, pc}
 265              	.L9:
 266 00c6 C046     		.align	2
 267              	.L8:
 268 00c8 30001040 		.word	1074790448
 269 00cc 001BB700 		.word	12000000
 270 00d0 06000080 		.word	-2147483642
 271 00d4 04010B40 		.word	1074462980
 272 00d8 0C020B40 		.word	1074463244
 273 00dc 78002E40 		.word	1076756600
 274 00e0 2D3E0000 		.word	15917
 275 00e4 7C002E40 		.word	1076756604
 276 00e8 6CF02E40 		.word	1076818028
 277 00ec DC050000 		.word	1500
 278 00f0 007FBB00 		.word	12287744
 279 00f4 0C030140 		.word	1073808140
 280 00f8 00000140 		.word	1073807360
 281 00fc 43FF0080 		.word	-2147418301
 282 0100 04030140 		.word	1073808132
 283 0104 41FF0080 		.word	-2147418303
 284 0108 08030140 		.word	1073808136
 285 010c 42FF0080 		.word	-2147418302
 286 0110 00030140 		.word	1073808128
 287 0114 40FF0080 		.word	-2147418304
 288 0118 08010B40 		.word	1074462984
 289 011c 00010B40 		.word	1074462976
 290 0120 38010140 		.word	1073807672
 291 0124 30010140 		.word	1073807664
 292 0128 24010140 		.word	1073807652
 293 012c 20010140 		.word	1073807648
 294 0130 1C010140 		.word	1073807644
 295 0134 18010140 		.word	1073807640
 296 0138 00000000 		.word	CySysWdtIsr
 297              		.cfi_endproc
 298              	.LFE6:
 299              		.size	ClockSetup, .-ClockSetup
 300              		.section	.text.SetAnalogRoutingPumps,"ax",%progbits
 301              		.align	2
 302              		.global	SetAnalogRoutingPumps
 303              		.code	16
 304              		.thumb_func
 305              		.type	SetAnalogRoutingPumps, %function
 306              	SetAnalogRoutingPumps:
 307              	.LFB8:
 254:.\Generated_Source\PSoC4/cyfitter_cfg.c **** 
 255:.\Generated_Source\PSoC4/cyfitter_cfg.c **** 
 256:.\Generated_Source\PSoC4/cyfitter_cfg.c **** /* Analog API Functions */
 257:.\Generated_Source\PSoC4/cyfitter_cfg.c **** 
ARM GAS  C:\Users\alvin\AppData\Local\Temp\ccnbMvhm.s 			page 11


 258:.\Generated_Source\PSoC4/cyfitter_cfg.c **** 
 259:.\Generated_Source\PSoC4/cyfitter_cfg.c **** /*******************************************************************************
 260:.\Generated_Source\PSoC4/cyfitter_cfg.c **** * Function Name: AnalogSetDefault
 261:.\Generated_Source\PSoC4/cyfitter_cfg.c **** ********************************************************************************
 262:.\Generated_Source\PSoC4/cyfitter_cfg.c **** *
 263:.\Generated_Source\PSoC4/cyfitter_cfg.c **** * Summary:
 264:.\Generated_Source\PSoC4/cyfitter_cfg.c **** *  Sets up the analog portions of the chip to default values based on chip
 265:.\Generated_Source\PSoC4/cyfitter_cfg.c **** *  configuration options from the project.
 266:.\Generated_Source\PSoC4/cyfitter_cfg.c **** *
 267:.\Generated_Source\PSoC4/cyfitter_cfg.c **** * Parameters:
 268:.\Generated_Source\PSoC4/cyfitter_cfg.c **** *  void
 269:.\Generated_Source\PSoC4/cyfitter_cfg.c **** *
 270:.\Generated_Source\PSoC4/cyfitter_cfg.c **** * Return:
 271:.\Generated_Source\PSoC4/cyfitter_cfg.c **** *  void
 272:.\Generated_Source\PSoC4/cyfitter_cfg.c **** *
 273:.\Generated_Source\PSoC4/cyfitter_cfg.c **** *******************************************************************************/
 274:.\Generated_Source\PSoC4/cyfitter_cfg.c **** static void AnalogSetDefault(void);
 275:.\Generated_Source\PSoC4/cyfitter_cfg.c **** static void AnalogSetDefault(void)
 276:.\Generated_Source\PSoC4/cyfitter_cfg.c **** {
 277:.\Generated_Source\PSoC4/cyfitter_cfg.c **** 	CY_SET_XTND_REG32((void CYFAR *)CYREG_CTBM0_DFT_CTRL, 0x00000003u);
 278:.\Generated_Source\PSoC4/cyfitter_cfg.c **** 	CY_SET_XTND_REG32((void CYFAR *)CYREG_CTBM1_DFT_CTRL, 0x00000003u);
 279:.\Generated_Source\PSoC4/cyfitter_cfg.c **** 	CY_SET_XTND_REG32((void CYFAR *)CYREG_SAR_CTRL, 0x80000000u);
 280:.\Generated_Source\PSoC4/cyfitter_cfg.c **** 	CY_SET_XTND_REG32((void CYFAR *)CYREG_SAR_MUX_SWITCH0, 0x00000022u);
 281:.\Generated_Source\PSoC4/cyfitter_cfg.c **** 	CY_SET_XTND_REG32((void CYFAR *)CYREG_SAR_MUX_SWITCH_HW_CTRL, 0x00000022u);
 282:.\Generated_Source\PSoC4/cyfitter_cfg.c **** 	CY_SET_XTND_REG32((void CYFAR *)CYREG_PASS_DSAB_DSAB_CTRL, 0x00000000u);
 283:.\Generated_Source\PSoC4/cyfitter_cfg.c **** 	SetAnalogRoutingPumps(1);
 284:.\Generated_Source\PSoC4/cyfitter_cfg.c **** }
 285:.\Generated_Source\PSoC4/cyfitter_cfg.c **** 
 286:.\Generated_Source\PSoC4/cyfitter_cfg.c **** 
 287:.\Generated_Source\PSoC4/cyfitter_cfg.c **** /*******************************************************************************
 288:.\Generated_Source\PSoC4/cyfitter_cfg.c **** * Function Name: SetAnalogRoutingPumps
 289:.\Generated_Source\PSoC4/cyfitter_cfg.c **** ********************************************************************************
 290:.\Generated_Source\PSoC4/cyfitter_cfg.c **** *
 291:.\Generated_Source\PSoC4/cyfitter_cfg.c **** * Summary:
 292:.\Generated_Source\PSoC4/cyfitter_cfg.c **** * Enables or disables the analog pumps feeding analog routing switches.
 293:.\Generated_Source\PSoC4/cyfitter_cfg.c **** * Intended to be called at startup, based on the Vdda system configuration;
 294:.\Generated_Source\PSoC4/cyfitter_cfg.c **** * may be called during operation when the user informs us that the Vdda voltage crossed the pump th
 295:.\Generated_Source\PSoC4/cyfitter_cfg.c **** *
 296:.\Generated_Source\PSoC4/cyfitter_cfg.c **** * Parameters:
 297:.\Generated_Source\PSoC4/cyfitter_cfg.c **** *  enabled - 1 to enable the pumps, 0 to disable the pumps
 298:.\Generated_Source\PSoC4/cyfitter_cfg.c **** *
 299:.\Generated_Source\PSoC4/cyfitter_cfg.c **** * Return:
 300:.\Generated_Source\PSoC4/cyfitter_cfg.c **** *  void
 301:.\Generated_Source\PSoC4/cyfitter_cfg.c **** *
 302:.\Generated_Source\PSoC4/cyfitter_cfg.c **** *******************************************************************************/
 303:.\Generated_Source\PSoC4/cyfitter_cfg.c **** void SetAnalogRoutingPumps(uint8 enabled)
 304:.\Generated_Source\PSoC4/cyfitter_cfg.c **** {
 308              		.loc 1 304 0
 309              		.cfi_startproc
 310              	.LVL23:
 305:.\Generated_Source\PSoC4/cyfitter_cfg.c **** 	uint32 regValue = CY_GET_XTND_REG32((void *)(CYREG_SAR_PUMP_CTRL));
 311              		.loc 1 305 0
 312 0000 064B     		ldr	r3, .L13
 313 0002 1B68     		ldr	r3, [r3]
 314              	.LVL24:
 306:.\Generated_Source\PSoC4/cyfitter_cfg.c **** 	if (enabled != 0u)
 315              		.loc 1 306 0
ARM GAS  C:\Users\alvin\AppData\Local\Temp\ccnbMvhm.s 			page 12


 316 0004 0028     		cmp	r0, #0
 317 0006 03D0     		beq	.L11
 307:.\Generated_Source\PSoC4/cyfitter_cfg.c **** 	{
 308:.\Generated_Source\PSoC4/cyfitter_cfg.c **** 		regValue |= 0x80000000u;
 318              		.loc 1 308 0
 319 0008 8022     		mov	r2, #128
 320 000a 1206     		lsl	r2, r2, #24
 321 000c 1343     		orr	r3, r2
 322              	.LVL25:
 323 000e 01E0     		b	.L12
 324              	.L11:
 309:.\Generated_Source\PSoC4/cyfitter_cfg.c **** 	}
 310:.\Generated_Source\PSoC4/cyfitter_cfg.c **** 	else
 311:.\Generated_Source\PSoC4/cyfitter_cfg.c **** 	{
 312:.\Generated_Source\PSoC4/cyfitter_cfg.c **** 		regValue &= ~0x80000000u;
 325              		.loc 1 312 0
 326 0010 5B00     		lsl	r3, r3, #1
 327              	.LVL26:
 328 0012 5B08     		lsr	r3, r3, #1
 329              	.LVL27:
 330              	.L12:
 313:.\Generated_Source\PSoC4/cyfitter_cfg.c **** 	}
 314:.\Generated_Source\PSoC4/cyfitter_cfg.c **** 	CY_SET_XTND_REG32((void *)(CYREG_SAR_PUMP_CTRL), regValue);
 331              		.loc 1 314 0
 332 0014 014A     		ldr	r2, .L13
 333 0016 1360     		str	r3, [r2]
 315:.\Generated_Source\PSoC4/cyfitter_cfg.c **** }
 334              		.loc 1 315 0
 335              		@ sp needed
 336 0018 7047     		bx	lr
 337              	.L14:
 338 001a C046     		.align	2
 339              	.L13:
 340 001c 80033A40 		.word	1077543808
 341              		.cfi_endproc
 342              	.LFE8:
 343              		.size	SetAnalogRoutingPumps, .-SetAnalogRoutingPumps
 344              		.section	.text.AnalogSetDefault,"ax",%progbits
 345              		.align	2
 346              		.code	16
 347              		.thumb_func
 348              		.type	AnalogSetDefault, %function
 349              	AnalogSetDefault:
 350              	.LFB7:
 276:.\Generated_Source\PSoC4/cyfitter_cfg.c **** 	CY_SET_XTND_REG32((void CYFAR *)CYREG_CTBM0_DFT_CTRL, 0x00000003u);
 351              		.loc 1 276 0
 352              		.cfi_startproc
 353 0000 08B5     		push	{r3, lr}
 354              		.cfi_def_cfa_offset 8
 355              		.cfi_offset 3, -8
 356              		.cfi_offset 14, -4
 277:.\Generated_Source\PSoC4/cyfitter_cfg.c **** 	CY_SET_XTND_REG32((void CYFAR *)CYREG_CTBM1_DFT_CTRL, 0x00000003u);
 357              		.loc 1 277 0
 358 0002 0323     		mov	r3, #3
 359 0004 094A     		ldr	r2, .L16
 360 0006 1360     		str	r3, [r2]
 278:.\Generated_Source\PSoC4/cyfitter_cfg.c **** 	CY_SET_XTND_REG32((void CYFAR *)CYREG_SAR_CTRL, 0x80000000u);
ARM GAS  C:\Users\alvin\AppData\Local\Temp\ccnbMvhm.s 			page 13


 361              		.loc 1 278 0
 362 0008 094A     		ldr	r2, .L16+4
 363 000a 1360     		str	r3, [r2]
 279:.\Generated_Source\PSoC4/cyfitter_cfg.c **** 	CY_SET_XTND_REG32((void CYFAR *)CYREG_SAR_MUX_SWITCH0, 0x00000022u);
 364              		.loc 1 279 0
 365 000c 8022     		mov	r2, #128
 366 000e 1206     		lsl	r2, r2, #24
 367 0010 084B     		ldr	r3, .L16+8
 368 0012 1A60     		str	r2, [r3]
 280:.\Generated_Source\PSoC4/cyfitter_cfg.c **** 	CY_SET_XTND_REG32((void CYFAR *)CYREG_SAR_MUX_SWITCH_HW_CTRL, 0x00000022u);
 369              		.loc 1 280 0
 370 0014 2223     		mov	r3, #34
 371 0016 084A     		ldr	r2, .L16+12
 372 0018 1360     		str	r3, [r2]
 281:.\Generated_Source\PSoC4/cyfitter_cfg.c **** 	CY_SET_XTND_REG32((void CYFAR *)CYREG_PASS_DSAB_DSAB_CTRL, 0x00000000u);
 373              		.loc 1 281 0
 374 001a 084A     		ldr	r2, .L16+16
 375 001c 1360     		str	r3, [r2]
 282:.\Generated_Source\PSoC4/cyfitter_cfg.c **** 	SetAnalogRoutingPumps(1);
 376              		.loc 1 282 0
 377 001e 0022     		mov	r2, #0
 378 0020 074B     		ldr	r3, .L16+20
 379 0022 1A60     		str	r2, [r3]
 283:.\Generated_Source\PSoC4/cyfitter_cfg.c **** }
 380              		.loc 1 283 0
 381 0024 0120     		mov	r0, #1
 382 0026 FFF7FEFF 		bl	SetAnalogRoutingPumps
 383              	.LVL28:
 284:.\Generated_Source\PSoC4/cyfitter_cfg.c **** 
 384              		.loc 1 284 0
 385              		@ sp needed
 386 002a 08BD     		pop	{r3, pc}
 387              	.L17:
 388              		.align	2
 389              	.L16:
 390 002c 30003040 		.word	1076887600
 391 0030 30003140 		.word	1076953136
 392 0034 00003A40 		.word	1077542912
 393 0038 00033A40 		.word	1077543680
 394 003c 40033A40 		.word	1077543744
 395 0040 000E3F40 		.word	1077874176
 396              		.cfi_endproc
 397              	.LFE7:
 398              		.size	AnalogSetDefault, .-AnalogSetDefault
 399              		.section	.psocinit
 400              		.align	2
 401              		.global	cyfitter_cfg
 402              		.code	16
 403              		.thumb_func
 404              		.type	cyfitter_cfg, %function
 405              	cyfitter_cfg:
 406              	.LFB9:
 316:.\Generated_Source\PSoC4/cyfitter_cfg.c **** 
 317:.\Generated_Source\PSoC4/cyfitter_cfg.c **** #define CY_AMUX_UNUSED CYREG_CM0_ROM_DWT
 318:.\Generated_Source\PSoC4/cyfitter_cfg.c **** 
 319:.\Generated_Source\PSoC4/cyfitter_cfg.c **** 
 320:.\Generated_Source\PSoC4/cyfitter_cfg.c **** /*******************************************************************************
ARM GAS  C:\Users\alvin\AppData\Local\Temp\ccnbMvhm.s 			page 14


 321:.\Generated_Source\PSoC4/cyfitter_cfg.c **** * Function Name: cyfitter_cfg
 322:.\Generated_Source\PSoC4/cyfitter_cfg.c **** ********************************************************************************
 323:.\Generated_Source\PSoC4/cyfitter_cfg.c **** * Summary:
 324:.\Generated_Source\PSoC4/cyfitter_cfg.c **** *  This function is called by the start-up code for the selected device. It
 325:.\Generated_Source\PSoC4/cyfitter_cfg.c **** *  performs all of the necessary device configuration based on the design
 326:.\Generated_Source\PSoC4/cyfitter_cfg.c **** *  settings.  This includes settings from the Design Wide Resources (DWR) such
 327:.\Generated_Source\PSoC4/cyfitter_cfg.c **** *  as Clocks and Pins as well as any component configuration that is necessary.
 328:.\Generated_Source\PSoC4/cyfitter_cfg.c **** *
 329:.\Generated_Source\PSoC4/cyfitter_cfg.c **** * Parameters:  
 330:.\Generated_Source\PSoC4/cyfitter_cfg.c **** *   void
 331:.\Generated_Source\PSoC4/cyfitter_cfg.c **** *
 332:.\Generated_Source\PSoC4/cyfitter_cfg.c **** * Return:
 333:.\Generated_Source\PSoC4/cyfitter_cfg.c **** *   void
 334:.\Generated_Source\PSoC4/cyfitter_cfg.c **** *
 335:.\Generated_Source\PSoC4/cyfitter_cfg.c **** *******************************************************************************/
 336:.\Generated_Source\PSoC4/cyfitter_cfg.c **** CY_CFG_SECTION
 337:.\Generated_Source\PSoC4/cyfitter_cfg.c **** void cyfitter_cfg(void)
 338:.\Generated_Source\PSoC4/cyfitter_cfg.c **** {
 407              		.loc 1 338 0
 408              		.cfi_startproc
 409 013c 10B5     		push	{r4, lr}
 410              		.cfi_def_cfa_offset 8
 411              		.cfi_offset 4, -8
 412              		.cfi_offset 14, -4
 339:.\Generated_Source\PSoC4/cyfitter_cfg.c **** 	/* Disable interrupts by default. Let user enable if/when they want. */
 340:.\Generated_Source\PSoC4/cyfitter_cfg.c **** 	CyGlobalIntDisable;
 413              		.loc 1 340 0
 414              	@ 340 ".\Generated_Source\PSoC4\cyfitter_cfg.c" 1
 415 013e 72B6     		CPSID   i
 416              	@ 0 "" 2
 341:.\Generated_Source\PSoC4/cyfitter_cfg.c **** 
 342:.\Generated_Source\PSoC4/cyfitter_cfg.c **** 	CY_SET_XTND_REG32((void CYFAR *)(CYREG_BLE_BLESS_LL_DSM_CTRL), 0x00000000u);
 417              		.loc 1 342 0
 418              		.code	16
 419 0140 0022     		mov	r2, #0
 420 0142 374B     		ldr	r3, .L21
 421 0144 1A60     		str	r2, [r3]
 343:.\Generated_Source\PSoC4/cyfitter_cfg.c **** 
 344:.\Generated_Source\PSoC4/cyfitter_cfg.c **** 	/* Enable the clock in the interrupt controller for the routed interrupts */
 345:.\Generated_Source\PSoC4/cyfitter_cfg.c **** 	CY_SET_REG8((void *)CYREG_UDB_UDBIF_INT_CLK_CTL, 0x01u);
 422              		.loc 1 345 0
 423 0146 0132     		add	r2, r2, #1
 424 0148 364B     		ldr	r3, .L21+4
 425 014a 1A70     		strb	r2, [r3]
 426              	.LVL29:
 427              	.LBB3:
 346:.\Generated_Source\PSoC4/cyfitter_cfg.c **** 	{
 347:.\Generated_Source\PSoC4/cyfitter_cfg.c **** 		static const uint32 CYCODE cy_cfg_addr_table[] = {
 348:.\Generated_Source\PSoC4/cyfitter_cfg.c **** 			0x400F0002u, /* Base address: 0x400F0000 Count: 2 */
 349:.\Generated_Source\PSoC4/cyfitter_cfg.c **** 			0x400F303Eu, /* Base address: 0x400F3000 Count: 62 */
 350:.\Generated_Source\PSoC4/cyfitter_cfg.c **** 			0x400F3122u, /* Base address: 0x400F3100 Count: 34 */
 351:.\Generated_Source\PSoC4/cyfitter_cfg.c **** 			0x400F324Du, /* Base address: 0x400F3200 Count: 77 */
 352:.\Generated_Source\PSoC4/cyfitter_cfg.c **** 			0x400F3332u, /* Base address: 0x400F3300 Count: 50 */
 353:.\Generated_Source\PSoC4/cyfitter_cfg.c **** 			0x400F400Au, /* Base address: 0x400F4000 Count: 10 */
 354:.\Generated_Source\PSoC4/cyfitter_cfg.c **** 			0x400F4109u, /* Base address: 0x400F4100 Count: 9 */
 355:.\Generated_Source\PSoC4/cyfitter_cfg.c **** 			0x400F4206u, /* Base address: 0x400F4200 Count: 6 */
 356:.\Generated_Source\PSoC4/cyfitter_cfg.c **** 			0x400F4308u, /* Base address: 0x400F4300 Count: 8 */
ARM GAS  C:\Users\alvin\AppData\Local\Temp\ccnbMvhm.s 			page 15


 357:.\Generated_Source\PSoC4/cyfitter_cfg.c **** 			0x400F6002u, /* Base address: 0x400F6000 Count: 2 */
 358:.\Generated_Source\PSoC4/cyfitter_cfg.c **** 		};
 359:.\Generated_Source\PSoC4/cyfitter_cfg.c **** 
 360:.\Generated_Source\PSoC4/cyfitter_cfg.c **** 		static const cy_cfg_addrvalue_t CYCODE cy_cfg_data_table[] = {
 361:.\Generated_Source\PSoC4/cyfitter_cfg.c **** 			{0x81u, 0x0Du},
 362:.\Generated_Source\PSoC4/cyfitter_cfg.c **** 			{0x83u, 0x0Du},
 363:.\Generated_Source\PSoC4/cyfitter_cfg.c **** 			{0x13u, 0x01u},
 364:.\Generated_Source\PSoC4/cyfitter_cfg.c **** 			{0x27u, 0x01u},
 365:.\Generated_Source\PSoC4/cyfitter_cfg.c **** 			{0x31u, 0x01u},
 366:.\Generated_Source\PSoC4/cyfitter_cfg.c **** 			{0x3Fu, 0x01u},
 367:.\Generated_Source\PSoC4/cyfitter_cfg.c **** 			{0x40u, 0x43u},
 368:.\Generated_Source\PSoC4/cyfitter_cfg.c **** 			{0x49u, 0xFFu},
 369:.\Generated_Source\PSoC4/cyfitter_cfg.c **** 			{0x4Au, 0xFFu},
 370:.\Generated_Source\PSoC4/cyfitter_cfg.c **** 			{0x4Bu, 0xFFu},
 371:.\Generated_Source\PSoC4/cyfitter_cfg.c **** 			{0x4Fu, 0x01u},
 372:.\Generated_Source\PSoC4/cyfitter_cfg.c **** 			{0x50u, 0x18u},
 373:.\Generated_Source\PSoC4/cyfitter_cfg.c **** 			{0x52u, 0x80u},
 374:.\Generated_Source\PSoC4/cyfitter_cfg.c **** 			{0x59u, 0x04u},
 375:.\Generated_Source\PSoC4/cyfitter_cfg.c **** 			{0x5Au, 0x04u},
 376:.\Generated_Source\PSoC4/cyfitter_cfg.c **** 			{0x5Bu, 0x04u},
 377:.\Generated_Source\PSoC4/cyfitter_cfg.c **** 			{0x5Du, 0x33u},
 378:.\Generated_Source\PSoC4/cyfitter_cfg.c **** 			{0x5Fu, 0x01u},
 379:.\Generated_Source\PSoC4/cyfitter_cfg.c **** 			{0x60u, 0x40u},
 380:.\Generated_Source\PSoC4/cyfitter_cfg.c **** 			{0x62u, 0x40u},
 381:.\Generated_Source\PSoC4/cyfitter_cfg.c **** 			{0x64u, 0x40u},
 382:.\Generated_Source\PSoC4/cyfitter_cfg.c **** 			{0x65u, 0x40u},
 383:.\Generated_Source\PSoC4/cyfitter_cfg.c **** 			{0x66u, 0x80u},
 384:.\Generated_Source\PSoC4/cyfitter_cfg.c **** 			{0x68u, 0x80u},
 385:.\Generated_Source\PSoC4/cyfitter_cfg.c **** 			{0x6Au, 0x80u},
 386:.\Generated_Source\PSoC4/cyfitter_cfg.c **** 			{0x6Cu, 0x80u},
 387:.\Generated_Source\PSoC4/cyfitter_cfg.c **** 			{0x6Eu, 0x80u},
 388:.\Generated_Source\PSoC4/cyfitter_cfg.c **** 			{0x82u, 0x06u},
 389:.\Generated_Source\PSoC4/cyfitter_cfg.c **** 			{0x8Eu, 0x06u},
 390:.\Generated_Source\PSoC4/cyfitter_cfg.c **** 			{0x92u, 0x01u},
 391:.\Generated_Source\PSoC4/cyfitter_cfg.c **** 			{0xA4u, 0x02u},
 392:.\Generated_Source\PSoC4/cyfitter_cfg.c **** 			{0xA6u, 0x04u},
 393:.\Generated_Source\PSoC4/cyfitter_cfg.c **** 			{0xAAu, 0x01u},
 394:.\Generated_Source\PSoC4/cyfitter_cfg.c **** 			{0xB0u, 0x04u},
 395:.\Generated_Source\PSoC4/cyfitter_cfg.c **** 			{0xB2u, 0x02u},
 396:.\Generated_Source\PSoC4/cyfitter_cfg.c **** 			{0xB4u, 0x01u},
 397:.\Generated_Source\PSoC4/cyfitter_cfg.c **** 			{0xBEu, 0x05u},
 398:.\Generated_Source\PSoC4/cyfitter_cfg.c **** 			{0xC0u, 0x42u},
 399:.\Generated_Source\PSoC4/cyfitter_cfg.c **** 			{0xC5u, 0xECu},
 400:.\Generated_Source\PSoC4/cyfitter_cfg.c **** 			{0xC7u, 0x02u},
 401:.\Generated_Source\PSoC4/cyfitter_cfg.c **** 			{0xC8u, 0x13u},
 402:.\Generated_Source\PSoC4/cyfitter_cfg.c **** 			{0xC9u, 0xFFu},
 403:.\Generated_Source\PSoC4/cyfitter_cfg.c **** 			{0xCAu, 0xFFu},
 404:.\Generated_Source\PSoC4/cyfitter_cfg.c **** 			{0xCBu, 0xFFu},
 405:.\Generated_Source\PSoC4/cyfitter_cfg.c **** 			{0xCDu, 0x83u},
 406:.\Generated_Source\PSoC4/cyfitter_cfg.c **** 			{0xCEu, 0x03u},
 407:.\Generated_Source\PSoC4/cyfitter_cfg.c **** 			{0xCFu, 0x01u},
 408:.\Generated_Source\PSoC4/cyfitter_cfg.c **** 			{0xD0u, 0x18u},
 409:.\Generated_Source\PSoC4/cyfitter_cfg.c **** 			{0xD4u, 0x01u},
 410:.\Generated_Source\PSoC4/cyfitter_cfg.c **** 			{0xD8u, 0x04u},
 411:.\Generated_Source\PSoC4/cyfitter_cfg.c **** 			{0xDAu, 0x04u},
 412:.\Generated_Source\PSoC4/cyfitter_cfg.c **** 			{0xDBu, 0x04u},
 413:.\Generated_Source\PSoC4/cyfitter_cfg.c **** 			{0xDCu, 0x03u},
ARM GAS  C:\Users\alvin\AppData\Local\Temp\ccnbMvhm.s 			page 16


 414:.\Generated_Source\PSoC4/cyfitter_cfg.c **** 			{0xDDu, 0x33u},
 415:.\Generated_Source\PSoC4/cyfitter_cfg.c **** 			{0xDFu, 0x01u},
 416:.\Generated_Source\PSoC4/cyfitter_cfg.c **** 			{0xE0u, 0x40u},
 417:.\Generated_Source\PSoC4/cyfitter_cfg.c **** 			{0xE2u, 0x40u},
 418:.\Generated_Source\PSoC4/cyfitter_cfg.c **** 			{0xE4u, 0x40u},
 419:.\Generated_Source\PSoC4/cyfitter_cfg.c **** 			{0xE5u, 0x40u},
 420:.\Generated_Source\PSoC4/cyfitter_cfg.c **** 			{0xE6u, 0x80u},
 421:.\Generated_Source\PSoC4/cyfitter_cfg.c **** 			{0xE8u, 0x80u},
 422:.\Generated_Source\PSoC4/cyfitter_cfg.c **** 			{0xEAu, 0x80u},
 423:.\Generated_Source\PSoC4/cyfitter_cfg.c **** 			{0xECu, 0x80u},
 424:.\Generated_Source\PSoC4/cyfitter_cfg.c **** 			{0xEEu, 0x80u},
 425:.\Generated_Source\PSoC4/cyfitter_cfg.c **** 			{0x04u, 0x01u},
 426:.\Generated_Source\PSoC4/cyfitter_cfg.c **** 			{0x07u, 0x01u},
 427:.\Generated_Source\PSoC4/cyfitter_cfg.c **** 			{0x0Du, 0x02u},
 428:.\Generated_Source\PSoC4/cyfitter_cfg.c **** 			{0x16u, 0x04u},
 429:.\Generated_Source\PSoC4/cyfitter_cfg.c **** 			{0x17u, 0x04u},
 430:.\Generated_Source\PSoC4/cyfitter_cfg.c **** 			{0x1Cu, 0x04u},
 431:.\Generated_Source\PSoC4/cyfitter_cfg.c **** 			{0x1Du, 0x04u},
 432:.\Generated_Source\PSoC4/cyfitter_cfg.c **** 			{0x1Eu, 0x40u},
 433:.\Generated_Source\PSoC4/cyfitter_cfg.c **** 			{0x20u, 0x40u},
 434:.\Generated_Source\PSoC4/cyfitter_cfg.c **** 			{0x2Au, 0x04u},
 435:.\Generated_Source\PSoC4/cyfitter_cfg.c **** 			{0x31u, 0x02u},
 436:.\Generated_Source\PSoC4/cyfitter_cfg.c **** 			{0x41u, 0x02u},
 437:.\Generated_Source\PSoC4/cyfitter_cfg.c **** 			{0x43u, 0x08u},
 438:.\Generated_Source\PSoC4/cyfitter_cfg.c **** 			{0x45u, 0x02u},
 439:.\Generated_Source\PSoC4/cyfitter_cfg.c **** 			{0x46u, 0x04u},
 440:.\Generated_Source\PSoC4/cyfitter_cfg.c **** 			{0x4Du, 0x04u},
 441:.\Generated_Source\PSoC4/cyfitter_cfg.c **** 			{0x4Fu, 0x01u},
 442:.\Generated_Source\PSoC4/cyfitter_cfg.c **** 			{0x56u, 0x04u},
 443:.\Generated_Source\PSoC4/cyfitter_cfg.c **** 			{0x57u, 0x08u},
 444:.\Generated_Source\PSoC4/cyfitter_cfg.c **** 			{0x5Cu, 0x40u},
 445:.\Generated_Source\PSoC4/cyfitter_cfg.c **** 			{0x5Du, 0x04u},
 446:.\Generated_Source\PSoC4/cyfitter_cfg.c **** 			{0x5Fu, 0x01u},
 447:.\Generated_Source\PSoC4/cyfitter_cfg.c **** 			{0x6Fu, 0x05u},
 448:.\Generated_Source\PSoC4/cyfitter_cfg.c **** 			{0x71u, 0x02u},
 449:.\Generated_Source\PSoC4/cyfitter_cfg.c **** 			{0x80u, 0x04u},
 450:.\Generated_Source\PSoC4/cyfitter_cfg.c **** 			{0x81u, 0x0Cu},
 451:.\Generated_Source\PSoC4/cyfitter_cfg.c **** 			{0xC0u, 0x90u},
 452:.\Generated_Source\PSoC4/cyfitter_cfg.c **** 			{0xC2u, 0x10u},
 453:.\Generated_Source\PSoC4/cyfitter_cfg.c **** 			{0xC4u, 0x60u},
 454:.\Generated_Source\PSoC4/cyfitter_cfg.c **** 			{0xCAu, 0x02u},
 455:.\Generated_Source\PSoC4/cyfitter_cfg.c **** 			{0xCCu, 0x01u},
 456:.\Generated_Source\PSoC4/cyfitter_cfg.c **** 			{0xD0u, 0xA3u},
 457:.\Generated_Source\PSoC4/cyfitter_cfg.c **** 			{0xD6u, 0xD0u},
 458:.\Generated_Source\PSoC4/cyfitter_cfg.c **** 			{0xE2u, 0x01u},
 459:.\Generated_Source\PSoC4/cyfitter_cfg.c **** 			{0x0Bu, 0x01u},
 460:.\Generated_Source\PSoC4/cyfitter_cfg.c **** 			{0x13u, 0x01u},
 461:.\Generated_Source\PSoC4/cyfitter_cfg.c **** 			{0x16u, 0x01u},
 462:.\Generated_Source\PSoC4/cyfitter_cfg.c **** 			{0x1Bu, 0x01u},
 463:.\Generated_Source\PSoC4/cyfitter_cfg.c **** 			{0x22u, 0x01u},
 464:.\Generated_Source\PSoC4/cyfitter_cfg.c **** 			{0x28u, 0x01u},
 465:.\Generated_Source\PSoC4/cyfitter_cfg.c **** 			{0x30u, 0x01u},
 466:.\Generated_Source\PSoC4/cyfitter_cfg.c **** 			{0x33u, 0x01u},
 467:.\Generated_Source\PSoC4/cyfitter_cfg.c **** 			{0x3Eu, 0x01u},
 468:.\Generated_Source\PSoC4/cyfitter_cfg.c **** 			{0x3Fu, 0x04u},
 469:.\Generated_Source\PSoC4/cyfitter_cfg.c **** 			{0x40u, 0x60u},
 470:.\Generated_Source\PSoC4/cyfitter_cfg.c **** 			{0x41u, 0x05u},
ARM GAS  C:\Users\alvin\AppData\Local\Temp\ccnbMvhm.s 			page 17


 471:.\Generated_Source\PSoC4/cyfitter_cfg.c **** 			{0x49u, 0xFFu},
 472:.\Generated_Source\PSoC4/cyfitter_cfg.c **** 			{0x4Au, 0xFFu},
 473:.\Generated_Source\PSoC4/cyfitter_cfg.c **** 			{0x4Bu, 0xFFu},
 474:.\Generated_Source\PSoC4/cyfitter_cfg.c **** 			{0x4Du, 0xA0u},
 475:.\Generated_Source\PSoC4/cyfitter_cfg.c **** 			{0x4Fu, 0x04u},
 476:.\Generated_Source\PSoC4/cyfitter_cfg.c **** 			{0x50u, 0x18u},
 477:.\Generated_Source\PSoC4/cyfitter_cfg.c **** 			{0x58u, 0x04u},
 478:.\Generated_Source\PSoC4/cyfitter_cfg.c **** 			{0x59u, 0x04u},
 479:.\Generated_Source\PSoC4/cyfitter_cfg.c **** 			{0x5Au, 0x04u},
 480:.\Generated_Source\PSoC4/cyfitter_cfg.c **** 			{0x5Bu, 0x04u},
 481:.\Generated_Source\PSoC4/cyfitter_cfg.c **** 			{0x5Du, 0x01u},
 482:.\Generated_Source\PSoC4/cyfitter_cfg.c **** 			{0x5Fu, 0x01u},
 483:.\Generated_Source\PSoC4/cyfitter_cfg.c **** 			{0x60u, 0x40u},
 484:.\Generated_Source\PSoC4/cyfitter_cfg.c **** 			{0x62u, 0xC0u},
 485:.\Generated_Source\PSoC4/cyfitter_cfg.c **** 			{0x64u, 0x40u},
 486:.\Generated_Source\PSoC4/cyfitter_cfg.c **** 			{0x65u, 0x40u},
 487:.\Generated_Source\PSoC4/cyfitter_cfg.c **** 			{0x66u, 0xC0u},
 488:.\Generated_Source\PSoC4/cyfitter_cfg.c **** 			{0x68u, 0xC0u},
 489:.\Generated_Source\PSoC4/cyfitter_cfg.c **** 			{0x6Au, 0xC0u},
 490:.\Generated_Source\PSoC4/cyfitter_cfg.c **** 			{0x6Cu, 0xC0u},
 491:.\Generated_Source\PSoC4/cyfitter_cfg.c **** 			{0x6Eu, 0xC0u},
 492:.\Generated_Source\PSoC4/cyfitter_cfg.c **** 			{0x80u, 0x08u},
 493:.\Generated_Source\PSoC4/cyfitter_cfg.c **** 			{0x86u, 0x06u},
 494:.\Generated_Source\PSoC4/cyfitter_cfg.c **** 			{0x8Eu, 0x02u},
 495:.\Generated_Source\PSoC4/cyfitter_cfg.c **** 			{0x91u, 0x02u},
 496:.\Generated_Source\PSoC4/cyfitter_cfg.c **** 			{0x92u, 0x01u},
 497:.\Generated_Source\PSoC4/cyfitter_cfg.c **** 			{0x9Bu, 0x03u},
 498:.\Generated_Source\PSoC4/cyfitter_cfg.c **** 			{0xA6u, 0x04u},
 499:.\Generated_Source\PSoC4/cyfitter_cfg.c **** 			{0xB0u, 0x04u},
 500:.\Generated_Source\PSoC4/cyfitter_cfg.c **** 			{0xB1u, 0x01u},
 501:.\Generated_Source\PSoC4/cyfitter_cfg.c **** 			{0xB2u, 0x02u},
 502:.\Generated_Source\PSoC4/cyfitter_cfg.c **** 			{0xB4u, 0x01u},
 503:.\Generated_Source\PSoC4/cyfitter_cfg.c **** 			{0xB6u, 0x08u},
 504:.\Generated_Source\PSoC4/cyfitter_cfg.c **** 			{0xB7u, 0x02u},
 505:.\Generated_Source\PSoC4/cyfitter_cfg.c **** 			{0xBEu, 0x44u},
 506:.\Generated_Source\PSoC4/cyfitter_cfg.c **** 			{0xC0u, 0x20u},
 507:.\Generated_Source\PSoC4/cyfitter_cfg.c **** 			{0xC1u, 0x05u},
 508:.\Generated_Source\PSoC4/cyfitter_cfg.c **** 			{0xC5u, 0xD1u},
 509:.\Generated_Source\PSoC4/cyfitter_cfg.c **** 			{0xC7u, 0x20u},
 510:.\Generated_Source\PSoC4/cyfitter_cfg.c **** 			{0xC8u, 0x23u},
 511:.\Generated_Source\PSoC4/cyfitter_cfg.c **** 			{0xC9u, 0xFFu},
 512:.\Generated_Source\PSoC4/cyfitter_cfg.c **** 			{0xCAu, 0xFFu},
 513:.\Generated_Source\PSoC4/cyfitter_cfg.c **** 			{0xCBu, 0xFFu},
 514:.\Generated_Source\PSoC4/cyfitter_cfg.c **** 			{0xCDu, 0xAFu},
 515:.\Generated_Source\PSoC4/cyfitter_cfg.c **** 			{0xCEu, 0x0Fu},
 516:.\Generated_Source\PSoC4/cyfitter_cfg.c **** 			{0xCFu, 0x04u},
 517:.\Generated_Source\PSoC4/cyfitter_cfg.c **** 			{0xD0u, 0x18u},
 518:.\Generated_Source\PSoC4/cyfitter_cfg.c **** 			{0xD2u, 0x80u},
 519:.\Generated_Source\PSoC4/cyfitter_cfg.c **** 			{0xD4u, 0x05u},
 520:.\Generated_Source\PSoC4/cyfitter_cfg.c **** 			{0xD8u, 0x04u},
 521:.\Generated_Source\PSoC4/cyfitter_cfg.c **** 			{0xD9u, 0x04u},
 522:.\Generated_Source\PSoC4/cyfitter_cfg.c **** 			{0xDAu, 0x04u},
 523:.\Generated_Source\PSoC4/cyfitter_cfg.c **** 			{0xDBu, 0x04u},
 524:.\Generated_Source\PSoC4/cyfitter_cfg.c **** 			{0xDCu, 0x11u},
 525:.\Generated_Source\PSoC4/cyfitter_cfg.c **** 			{0xDDu, 0x11u},
 526:.\Generated_Source\PSoC4/cyfitter_cfg.c **** 			{0xDFu, 0x01u},
 527:.\Generated_Source\PSoC4/cyfitter_cfg.c **** 			{0xE0u, 0x40u},
ARM GAS  C:\Users\alvin\AppData\Local\Temp\ccnbMvhm.s 			page 18


 528:.\Generated_Source\PSoC4/cyfitter_cfg.c **** 			{0xE2u, 0xC0u},
 529:.\Generated_Source\PSoC4/cyfitter_cfg.c **** 			{0xE4u, 0x40u},
 530:.\Generated_Source\PSoC4/cyfitter_cfg.c **** 			{0xE5u, 0x40u},
 531:.\Generated_Source\PSoC4/cyfitter_cfg.c **** 			{0xE6u, 0xC0u},
 532:.\Generated_Source\PSoC4/cyfitter_cfg.c **** 			{0xE8u, 0xC0u},
 533:.\Generated_Source\PSoC4/cyfitter_cfg.c **** 			{0xEAu, 0xC0u},
 534:.\Generated_Source\PSoC4/cyfitter_cfg.c **** 			{0xECu, 0xC0u},
 535:.\Generated_Source\PSoC4/cyfitter_cfg.c **** 			{0xEEu, 0xC0u},
 536:.\Generated_Source\PSoC4/cyfitter_cfg.c **** 			{0x00u, 0x04u},
 537:.\Generated_Source\PSoC4/cyfitter_cfg.c **** 			{0x01u, 0x02u},
 538:.\Generated_Source\PSoC4/cyfitter_cfg.c **** 			{0x02u, 0x02u},
 539:.\Generated_Source\PSoC4/cyfitter_cfg.c **** 			{0x0Au, 0x40u},
 540:.\Generated_Source\PSoC4/cyfitter_cfg.c **** 			{0x0Du, 0x08u},
 541:.\Generated_Source\PSoC4/cyfitter_cfg.c **** 			{0x0Eu, 0x20u},
 542:.\Generated_Source\PSoC4/cyfitter_cfg.c **** 			{0x10u, 0x20u},
 543:.\Generated_Source\PSoC4/cyfitter_cfg.c **** 			{0x15u, 0x10u},
 544:.\Generated_Source\PSoC4/cyfitter_cfg.c **** 			{0x17u, 0x01u},
 545:.\Generated_Source\PSoC4/cyfitter_cfg.c **** 			{0x18u, 0x04u},
 546:.\Generated_Source\PSoC4/cyfitter_cfg.c **** 			{0x19u, 0x06u},
 547:.\Generated_Source\PSoC4/cyfitter_cfg.c **** 			{0x1Bu, 0x90u},
 548:.\Generated_Source\PSoC4/cyfitter_cfg.c **** 			{0x1Eu, 0x80u},
 549:.\Generated_Source\PSoC4/cyfitter_cfg.c **** 			{0x21u, 0x02u},
 550:.\Generated_Source\PSoC4/cyfitter_cfg.c **** 			{0x22u, 0x40u},
 551:.\Generated_Source\PSoC4/cyfitter_cfg.c **** 			{0x27u, 0x20u},
 552:.\Generated_Source\PSoC4/cyfitter_cfg.c **** 			{0x30u, 0x20u},
 553:.\Generated_Source\PSoC4/cyfitter_cfg.c **** 			{0x31u, 0x02u},
 554:.\Generated_Source\PSoC4/cyfitter_cfg.c **** 			{0x36u, 0x10u},
 555:.\Generated_Source\PSoC4/cyfitter_cfg.c **** 			{0x37u, 0x01u},
 556:.\Generated_Source\PSoC4/cyfitter_cfg.c **** 			{0x3Eu, 0x10u},
 557:.\Generated_Source\PSoC4/cyfitter_cfg.c **** 			{0x40u, 0x04u},
 558:.\Generated_Source\PSoC4/cyfitter_cfg.c **** 			{0x48u, 0x20u},
 559:.\Generated_Source\PSoC4/cyfitter_cfg.c **** 			{0x49u, 0x01u},
 560:.\Generated_Source\PSoC4/cyfitter_cfg.c **** 			{0x4Au, 0x02u},
 561:.\Generated_Source\PSoC4/cyfitter_cfg.c **** 			{0x4Eu, 0x02u},
 562:.\Generated_Source\PSoC4/cyfitter_cfg.c **** 			{0x4Fu, 0x20u},
 563:.\Generated_Source\PSoC4/cyfitter_cfg.c **** 			{0x52u, 0x02u},
 564:.\Generated_Source\PSoC4/cyfitter_cfg.c **** 			{0x59u, 0x05u},
 565:.\Generated_Source\PSoC4/cyfitter_cfg.c **** 			{0x5Au, 0x80u},
 566:.\Generated_Source\PSoC4/cyfitter_cfg.c **** 			{0x6Du, 0x10u},
 567:.\Generated_Source\PSoC4/cyfitter_cfg.c **** 			{0x6Eu, 0x10u},
 568:.\Generated_Source\PSoC4/cyfitter_cfg.c **** 			{0x6Fu, 0x01u},
 569:.\Generated_Source\PSoC4/cyfitter_cfg.c **** 			{0x72u, 0x40u},
 570:.\Generated_Source\PSoC4/cyfitter_cfg.c **** 			{0x83u, 0xA0u},
 571:.\Generated_Source\PSoC4/cyfitter_cfg.c **** 			{0xA1u, 0x08u},
 572:.\Generated_Source\PSoC4/cyfitter_cfg.c **** 			{0xA6u, 0x40u},
 573:.\Generated_Source\PSoC4/cyfitter_cfg.c **** 			{0xAEu, 0x40u},
 574:.\Generated_Source\PSoC4/cyfitter_cfg.c **** 			{0xB4u, 0x01u},
 575:.\Generated_Source\PSoC4/cyfitter_cfg.c **** 			{0xB6u, 0x40u},
 576:.\Generated_Source\PSoC4/cyfitter_cfg.c **** 			{0xC0u, 0x0Du},
 577:.\Generated_Source\PSoC4/cyfitter_cfg.c **** 			{0xC2u, 0x28u},
 578:.\Generated_Source\PSoC4/cyfitter_cfg.c **** 			{0xC4u, 0x54u},
 579:.\Generated_Source\PSoC4/cyfitter_cfg.c **** 			{0xCCu, 0xA5u},
 580:.\Generated_Source\PSoC4/cyfitter_cfg.c **** 			{0xCEu, 0x20u},
 581:.\Generated_Source\PSoC4/cyfitter_cfg.c **** 			{0xD0u, 0x04u},
 582:.\Generated_Source\PSoC4/cyfitter_cfg.c **** 			{0xD2u, 0x38u},
 583:.\Generated_Source\PSoC4/cyfitter_cfg.c **** 			{0xD6u, 0x0Bu},
 584:.\Generated_Source\PSoC4/cyfitter_cfg.c **** 			{0xE4u, 0x04u},
ARM GAS  C:\Users\alvin\AppData\Local\Temp\ccnbMvhm.s 			page 19


 585:.\Generated_Source\PSoC4/cyfitter_cfg.c **** 			{0xEEu, 0x40u},
 586:.\Generated_Source\PSoC4/cyfitter_cfg.c **** 			{0x52u, 0x20u},
 587:.\Generated_Source\PSoC4/cyfitter_cfg.c **** 			{0x5Au, 0x80u},
 588:.\Generated_Source\PSoC4/cyfitter_cfg.c **** 			{0x5Bu, 0x04u},
 589:.\Generated_Source\PSoC4/cyfitter_cfg.c **** 			{0x5Du, 0x80u},
 590:.\Generated_Source\PSoC4/cyfitter_cfg.c **** 			{0x81u, 0x04u},
 591:.\Generated_Source\PSoC4/cyfitter_cfg.c **** 			{0x82u, 0x40u},
 592:.\Generated_Source\PSoC4/cyfitter_cfg.c **** 			{0xD4u, 0xA0u},
 593:.\Generated_Source\PSoC4/cyfitter_cfg.c **** 			{0xD6u, 0x60u},
 594:.\Generated_Source\PSoC4/cyfitter_cfg.c **** 			{0xE2u, 0x20u},
 595:.\Generated_Source\PSoC4/cyfitter_cfg.c **** 			{0xE6u, 0x80u},
 596:.\Generated_Source\PSoC4/cyfitter_cfg.c **** 			{0x6Du, 0x08u},
 597:.\Generated_Source\PSoC4/cyfitter_cfg.c **** 			{0x83u, 0x04u},
 598:.\Generated_Source\PSoC4/cyfitter_cfg.c **** 			{0x9Fu, 0x04u},
 599:.\Generated_Source\PSoC4/cyfitter_cfg.c **** 			{0xA1u, 0x04u},
 600:.\Generated_Source\PSoC4/cyfitter_cfg.c **** 			{0xAEu, 0x20u},
 601:.\Generated_Source\PSoC4/cyfitter_cfg.c **** 			{0xB5u, 0x80u},
 602:.\Generated_Source\PSoC4/cyfitter_cfg.c **** 			{0xDAu, 0x80u},
 603:.\Generated_Source\PSoC4/cyfitter_cfg.c **** 			{0xE2u, 0x80u},
 604:.\Generated_Source\PSoC4/cyfitter_cfg.c **** 			{0xEEu, 0x40u},
 605:.\Generated_Source\PSoC4/cyfitter_cfg.c **** 			{0x10u, 0x08u},
 606:.\Generated_Source\PSoC4/cyfitter_cfg.c **** 			{0x13u, 0x01u},
 607:.\Generated_Source\PSoC4/cyfitter_cfg.c **** 			{0x40u, 0x10u},
 608:.\Generated_Source\PSoC4/cyfitter_cfg.c **** 			{0x83u, 0x01u},
 609:.\Generated_Source\PSoC4/cyfitter_cfg.c **** 			{0xC4u, 0x0Au},
 610:.\Generated_Source\PSoC4/cyfitter_cfg.c **** 			{0xD0u, 0x02u},
 611:.\Generated_Source\PSoC4/cyfitter_cfg.c **** 			{0x00u, 0x10u},
 612:.\Generated_Source\PSoC4/cyfitter_cfg.c **** 			{0x67u, 0x02u},
 613:.\Generated_Source\PSoC4/cyfitter_cfg.c **** 			{0x83u, 0x01u},
 614:.\Generated_Source\PSoC4/cyfitter_cfg.c **** 			{0x94u, 0x10u},
 615:.\Generated_Source\PSoC4/cyfitter_cfg.c **** 			{0xB4u, 0x08u},
 616:.\Generated_Source\PSoC4/cyfitter_cfg.c **** 			{0xC0u, 0x02u},
 617:.\Generated_Source\PSoC4/cyfitter_cfg.c **** 			{0xD6u, 0x01u},
 618:.\Generated_Source\PSoC4/cyfitter_cfg.c **** 			{0xEEu, 0x08u},
 619:.\Generated_Source\PSoC4/cyfitter_cfg.c **** 			{0x01u, 0x0Au},
 620:.\Generated_Source\PSoC4/cyfitter_cfg.c **** 			{0x10u, 0x0Au},
 621:.\Generated_Source\PSoC4/cyfitter_cfg.c **** 		};
 622:.\Generated_Source\PSoC4/cyfitter_cfg.c **** 
 623:.\Generated_Source\PSoC4/cyfitter_cfg.c **** 
 624:.\Generated_Source\PSoC4/cyfitter_cfg.c **** 
 625:.\Generated_Source\PSoC4/cyfitter_cfg.c **** 		CYPACKED typedef struct {
 626:.\Generated_Source\PSoC4/cyfitter_cfg.c **** 			void CYFAR *address;
 627:.\Generated_Source\PSoC4/cyfitter_cfg.c **** 			uint16 size;
 628:.\Generated_Source\PSoC4/cyfitter_cfg.c **** 		} CYPACKED_ATTR cfg_memset_t;
 629:.\Generated_Source\PSoC4/cyfitter_cfg.c **** 
 630:.\Generated_Source\PSoC4/cyfitter_cfg.c **** 		static const cfg_memset_t CYCODE cfg_memset_list [] = {
 631:.\Generated_Source\PSoC4/cyfitter_cfg.c **** 			/* address, size */
 632:.\Generated_Source\PSoC4/cyfitter_cfg.c **** 			{(void CYFAR *)(CYDEV_UDB_P0_U0_BASE), 1024u},
 633:.\Generated_Source\PSoC4/cyfitter_cfg.c **** 			{(void CYFAR *)(CYDEV_UDB_DSI0_BASE), 1024u},
 634:.\Generated_Source\PSoC4/cyfitter_cfg.c **** 		};
 635:.\Generated_Source\PSoC4/cyfitter_cfg.c **** 
 636:.\Generated_Source\PSoC4/cyfitter_cfg.c **** 		uint8 CYDATA i;
 637:.\Generated_Source\PSoC4/cyfitter_cfg.c **** 
 638:.\Generated_Source\PSoC4/cyfitter_cfg.c **** 		/* Zero out critical memory blocks before beginning configuration */
 639:.\Generated_Source\PSoC4/cyfitter_cfg.c **** 		for (i = 0u; i < (sizeof(cfg_memset_list)/sizeof(cfg_memset_list[0])); i++)
 428              		.loc 1 639 0
 429 014c 0024     		mov	r4, #0
ARM GAS  C:\Users\alvin\AppData\Local\Temp\ccnbMvhm.s 			page 20


 430 014e 10E0     		b	.L19
 431              	.LVL30:
 432              	.L20:
 433              	.LBB4:
 640:.\Generated_Source\PSoC4/cyfitter_cfg.c **** 		{
 641:.\Generated_Source\PSoC4/cyfitter_cfg.c **** 			const cfg_memset_t CYCODE * CYDATA ms = &cfg_memset_list[i];
 642:.\Generated_Source\PSoC4/cyfitter_cfg.c **** 			CYMEMZERO(ms->address, (size_t)(uint32)(ms->size));
 434              		.loc 1 642 0 discriminator 3
 435 0150 3548     		ldr	r0, .L21+8
 436 0152 6300     		lsl	r3, r4, #1
 437 0154 1A19     		add	r2, r3, r4
 438 0156 5200     		lsl	r2, r2, #1
 439 0158 8218     		add	r2, r0, r2
 440 015a 9188     		ldrh	r1, [r2, #4]
 441 015c 1B19     		add	r3, r3, r4
 442 015e 5B00     		lsl	r3, r3, #1
 443 0160 1A5A     		ldrh	r2, [r3, r0]
 444 0162 C318     		add	r3, r0, r3
 445 0164 5888     		ldrh	r0, [r3, #2]
 446 0166 0004     		lsl	r0, r0, #16
 447 0168 1043     		orr	r0, r2
 448 016a FFF7FEFF 		bl	CYMEMZERO
 449              	.LVL31:
 450              	.LBE4:
 639:.\Generated_Source\PSoC4/cyfitter_cfg.c **** 		{
 451              		.loc 1 639 0 discriminator 3
 452 016e 0134     		add	r4, r4, #1
 453              	.LVL32:
 454 0170 E4B2     		uxtb	r4, r4
 455              	.LVL33:
 456              	.L19:
 639:.\Generated_Source\PSoC4/cyfitter_cfg.c **** 		{
 457              		.loc 1 639 0 is_stmt 0 discriminator 1
 458 0172 012C     		cmp	r4, #1
 459 0174 ECD9     		bls	.L20
 643:.\Generated_Source\PSoC4/cyfitter_cfg.c **** 		}
 644:.\Generated_Source\PSoC4/cyfitter_cfg.c **** 
 645:.\Generated_Source\PSoC4/cyfitter_cfg.c **** 		cfg_write_bytes32(cy_cfg_addr_table, cy_cfg_data_table);
 460              		.loc 1 645 0 is_stmt 1
 461 0176 2C49     		ldr	r1, .L21+8
 462 0178 081C     		mov	r0, r1
 463 017a 0C30     		add	r0, r0, #12
 464 017c 3431     		add	r1, r1, #52
 465 017e FFF7FEFF 		bl	cfg_write_bytes32
 466              	.LVL34:
 646:.\Generated_Source\PSoC4/cyfitter_cfg.c **** 
 647:.\Generated_Source\PSoC4/cyfitter_cfg.c **** 		/* HSIOM Starting address: CYDEV_HSIOM_BASE */
 648:.\Generated_Source\PSoC4/cyfitter_cfg.c **** 		CY_SET_XTND_REG32((void CYFAR *)(CYDEV_HSIOM_BASE), 0xEE033330u);
 467              		.loc 1 648 0
 468 0182 2A4A     		ldr	r2, .L21+12
 469 0184 2A4B     		ldr	r3, .L21+16
 470 0186 1A60     		str	r2, [r3]
 649:.\Generated_Source\PSoC4/cyfitter_cfg.c **** 		CY_SET_XTND_REG32((void CYFAR *)(CYREG_HSIOM_PORT_SEL3), 0x30000000u);
 471              		.loc 1 649 0
 472 0188 C022     		mov	r2, #192
 473 018a 9205     		lsl	r2, r2, #22
 474 018c 294B     		ldr	r3, .L21+20
ARM GAS  C:\Users\alvin\AppData\Local\Temp\ccnbMvhm.s 			page 21


 475 018e 1A60     		str	r2, [r3]
 650:.\Generated_Source\PSoC4/cyfitter_cfg.c **** 
 651:.\Generated_Source\PSoC4/cyfitter_cfg.c **** 		/* UDB_PA_0 Starting address: CYDEV_UDB_PA0_BASE */
 652:.\Generated_Source\PSoC4/cyfitter_cfg.c **** 		CY_SET_XTND_REG32((void CYFAR *)(CYDEV_UDB_PA0_BASE), 0x00990000u);
 476              		.loc 1 652 0
 477 0190 9923     		mov	r3, #153
 478 0192 1B04     		lsl	r3, r3, #16
 479 0194 284A     		ldr	r2, .L21+24
 480 0196 1360     		str	r3, [r2]
 653:.\Generated_Source\PSoC4/cyfitter_cfg.c **** 		CY_SET_XTND_REG32((void CYFAR *)(CYREG_UDB_PA0_CFG8), 0x542D0000u);
 481              		.loc 1 653 0
 482 0198 2849     		ldr	r1, .L21+28
 483 019a 294A     		ldr	r2, .L21+32
 484 019c 1160     		str	r1, [r2]
 654:.\Generated_Source\PSoC4/cyfitter_cfg.c **** 
 655:.\Generated_Source\PSoC4/cyfitter_cfg.c **** 		/* UDB_PA_1 Starting address: CYDEV_UDB_PA1_BASE */
 656:.\Generated_Source\PSoC4/cyfitter_cfg.c **** 		CY_SET_XTND_REG32((void CYFAR *)(CYDEV_UDB_PA1_BASE), 0x00990000u);
 485              		.loc 1 656 0
 486 019e 294A     		ldr	r2, .L21+36
 487 01a0 1360     		str	r3, [r2]
 657:.\Generated_Source\PSoC4/cyfitter_cfg.c **** 
 658:.\Generated_Source\PSoC4/cyfitter_cfg.c **** 		/* UDB_PA_2 Starting address: CYDEV_UDB_PA2_BASE */
 659:.\Generated_Source\PSoC4/cyfitter_cfg.c **** 		CY_SET_XTND_REG32((void CYFAR *)(CYDEV_UDB_PA2_BASE), 0x00990000u);
 488              		.loc 1 659 0
 489 01a2 294A     		ldr	r2, .L21+40
 490 01a4 1360     		str	r3, [r2]
 660:.\Generated_Source\PSoC4/cyfitter_cfg.c **** 
 661:.\Generated_Source\PSoC4/cyfitter_cfg.c **** 		/* UDB_PA_3 Starting address: CYDEV_UDB_PA3_BASE */
 662:.\Generated_Source\PSoC4/cyfitter_cfg.c **** 		CY_SET_XTND_REG32((void CYFAR *)(CYDEV_UDB_PA3_BASE), 0x00990000u);
 491              		.loc 1 662 0
 492 01a6 294A     		ldr	r2, .L21+44
 493 01a8 1360     		str	r3, [r2]
 663:.\Generated_Source\PSoC4/cyfitter_cfg.c **** 		CY_SET_XTND_REG32((void CYFAR *)(CYREG_UDB_PA3_CFG8), 0x40000000u);
 494              		.loc 1 663 0
 495 01aa 8022     		mov	r2, #128
 496 01ac D205     		lsl	r2, r2, #23
 497 01ae 284B     		ldr	r3, .L21+48
 498 01b0 1A60     		str	r2, [r3]
 664:.\Generated_Source\PSoC4/cyfitter_cfg.c **** 
 665:.\Generated_Source\PSoC4/cyfitter_cfg.c **** 		/* TCPWM_CNT1 Starting address: CYDEV_TCPWM_CNT1_TR_CTRL0 */
 666:.\Generated_Source\PSoC4/cyfitter_cfg.c **** 		CY_SET_XTND_REG32((void CYFAR *)(CYREG_TCPWM_CNT1_TR_CTRL0), 0x00088818u);
 499              		.loc 1 666 0
 500 01b2 284A     		ldr	r2, .L21+52
 501 01b4 284B     		ldr	r3, .L21+56
 502 01b6 1A60     		str	r2, [r3]
 667:.\Generated_Source\PSoC4/cyfitter_cfg.c **** 
 668:.\Generated_Source\PSoC4/cyfitter_cfg.c **** 		/* INT_SELECT Starting address: CYDEV_CPUSS_INT_SEL */
 669:.\Generated_Source\PSoC4/cyfitter_cfg.c **** 		CY_SET_XTND_REG32((void CYFAR *)(CYREG_CPUSS_INT_SEL), 0x00000002u);
 503              		.loc 1 669 0
 504 01b8 0223     		mov	r3, #2
 505 01ba 284A     		ldr	r2, .L21+60
 506 01bc 1360     		str	r3, [r2]
 670:.\Generated_Source\PSoC4/cyfitter_cfg.c **** 
 671:.\Generated_Source\PSoC4/cyfitter_cfg.c **** 		/* INT_CONFIG Starting address: CYDEV_UDB_INT_CFG */
 672:.\Generated_Source\PSoC4/cyfitter_cfg.c **** 		CY_SET_XTND_REG32((void CYFAR *)(CYREG_UDB_INT_CFG), 0x00000002u);
 507              		.loc 1 672 0
 508 01be 284A     		ldr	r2, .L21+64
ARM GAS  C:\Users\alvin\AppData\Local\Temp\ccnbMvhm.s 			page 22


 509 01c0 1360     		str	r3, [r2]
 673:.\Generated_Source\PSoC4/cyfitter_cfg.c **** 
 674:.\Generated_Source\PSoC4/cyfitter_cfg.c **** 		/* Enable digital routing */
 675:.\Generated_Source\PSoC4/cyfitter_cfg.c **** 		CY_SET_XTND_REG8((void *)CYREG_UDB_UDBIF_BANK_CTL, CY_GET_XTND_REG8((void *)CYREG_UDB_UDBIF_BANK_
 510              		.loc 1 675 0
 511 01c2 284B     		ldr	r3, .L21+68
 512 01c4 1978     		ldrb	r1, [r3]
 513 01c6 0222     		mov	r2, #2
 514 01c8 0A43     		orr	r2, r1
 515 01ca 1A70     		strb	r2, [r3]
 676:.\Generated_Source\PSoC4/cyfitter_cfg.c **** 
 677:.\Generated_Source\PSoC4/cyfitter_cfg.c **** 		/* Enable UDB array */
 678:.\Generated_Source\PSoC4/cyfitter_cfg.c **** 		CY_SET_XTND_REG8((void *)CYREG_UDB_UDBIF_WAIT_CFG, (uint8)((CY_GET_XTND_REG8((void *)CYREG_UDB_UD
 516              		.loc 1 678 0
 517 01cc 2648     		ldr	r0, .L21+72
 518 01ce 0278     		ldrb	r2, [r0]
 519 01d0 3C21     		mov	r1, #60
 520 01d2 8A43     		bic	r2, r1
 521 01d4 2839     		sub	r1, r1, #40
 522 01d6 0A43     		orr	r2, r1
 523 01d8 0270     		strb	r2, [r0]
 679:.\Generated_Source\PSoC4/cyfitter_cfg.c **** 		CY_SET_XTND_REG8((void *)CYREG_UDB_UDBIF_BANK_CTL, (uint8)(CY_GET_XTND_REG8((void *)CYREG_UDB_UDB
 524              		.loc 1 679 0
 525 01da 1978     		ldrb	r1, [r3]
 526 01dc 1622     		mov	r2, #22
 527 01de 0A43     		orr	r2, r1
 528 01e0 1A70     		strb	r2, [r3]
 529              	.LBE3:
 680:.\Generated_Source\PSoC4/cyfitter_cfg.c **** 	}
 681:.\Generated_Source\PSoC4/cyfitter_cfg.c **** 
 682:.\Generated_Source\PSoC4/cyfitter_cfg.c **** 	/* Perform second pass device configuration. These items must be configured in specific order afte
 683:.\Generated_Source\PSoC4/cyfitter_cfg.c **** 	/* IOPINS0_0 Starting address: CYDEV_GPIO_PRT0_BASE */
 684:.\Generated_Source\PSoC4/cyfitter_cfg.c **** 	CY_SET_XTND_REG32((void CYFAR *)(CYDEV_GPIO_PRT0_BASE), 0x0000001Eu);
 530              		.loc 1 684 0
 531 01e2 1E22     		mov	r2, #30
 532 01e4 214B     		ldr	r3, .L21+76
 533 01e6 1A60     		str	r2, [r3]
 685:.\Generated_Source\PSoC4/cyfitter_cfg.c **** 	CY_SET_XTND_REG32((void CYFAR *)(CYREG_GPIO_PRT0_PC), 0x00D86DB0u);
 534              		.loc 1 685 0
 535 01e8 214A     		ldr	r2, .L21+80
 536 01ea 224B     		ldr	r3, .L21+84
 537 01ec 1A60     		str	r2, [r3]
 686:.\Generated_Source\PSoC4/cyfitter_cfg.c **** 
 687:.\Generated_Source\PSoC4/cyfitter_cfg.c **** 	/* IOPINS0_1 Starting address: CYDEV_GPIO_PRT1_BASE */
 688:.\Generated_Source\PSoC4/cyfitter_cfg.c **** 	CY_SET_XTND_REG32((void CYFAR *)(CYREG_GPIO_PRT1_PC), 0x001B6DB6u);
 538              		.loc 1 688 0
 539 01ee 224A     		ldr	r2, .L21+88
 540 01f0 224B     		ldr	r3, .L21+92
 541 01f2 1A60     		str	r2, [r3]
 689:.\Generated_Source\PSoC4/cyfitter_cfg.c **** 
 690:.\Generated_Source\PSoC4/cyfitter_cfg.c **** 	/* IOPINS0_2 Starting address: CYDEV_GPIO_PRT2_BASE */
 691:.\Generated_Source\PSoC4/cyfitter_cfg.c **** 	CY_SET_XTND_REG32((void CYFAR *)(CYDEV_GPIO_PRT2_BASE), 0x00000040u);
 542              		.loc 1 691 0
 543 01f4 4022     		mov	r2, #64
 544 01f6 224B     		ldr	r3, .L21+96
 545 01f8 1A60     		str	r2, [r3]
 692:.\Generated_Source\PSoC4/cyfitter_cfg.c **** 	CY_SET_XTND_REG32((void CYFAR *)(CYREG_GPIO_PRT2_PC), 0x00180000u);
ARM GAS  C:\Users\alvin\AppData\Local\Temp\ccnbMvhm.s 			page 23


 546              		.loc 1 692 0
 547 01fa C022     		mov	r2, #192
 548 01fc 5203     		lsl	r2, r2, #13
 549 01fe 214B     		ldr	r3, .L21+100
 550 0200 1A60     		str	r2, [r3]
 693:.\Generated_Source\PSoC4/cyfitter_cfg.c **** 
 694:.\Generated_Source\PSoC4/cyfitter_cfg.c **** 	/* IOPINS0_3 Starting address: CYDEV_GPIO_PRT3_BASE */
 695:.\Generated_Source\PSoC4/cyfitter_cfg.c **** 	CY_SET_XTND_REG32((void CYFAR *)(CYDEV_GPIO_PRT3_BASE), 0x000000E2u);
 551              		.loc 1 695 0
 552 0202 E222     		mov	r2, #226
 553 0204 204B     		ldr	r3, .L21+104
 554 0206 1A60     		str	r2, [r3]
 696:.\Generated_Source\PSoC4/cyfitter_cfg.c **** 	CY_SET_XTND_REG32((void CYFAR *)(CYREG_GPIO_PRT3_PC), 0x00D80C40u);
 555              		.loc 1 696 0
 556 0208 204A     		ldr	r2, .L21+108
 557 020a 214B     		ldr	r3, .L21+112
 558 020c 1A60     		str	r2, [r3]
 697:.\Generated_Source\PSoC4/cyfitter_cfg.c **** 	CY_SET_XTND_REG32((void CYFAR *)(CYREG_GPIO_PRT3_PC2), 0x00000022u);
 559              		.loc 1 697 0
 560 020e 2222     		mov	r2, #34
 561 0210 204B     		ldr	r3, .L21+116
 562 0212 1A60     		str	r2, [r3]
 698:.\Generated_Source\PSoC4/cyfitter_cfg.c **** 
 699:.\Generated_Source\PSoC4/cyfitter_cfg.c **** 
 700:.\Generated_Source\PSoC4/cyfitter_cfg.c **** 	/* Setup clocks based on selections from Clock DWR */
 701:.\Generated_Source\PSoC4/cyfitter_cfg.c **** 	ClockSetup();
 563              		.loc 1 701 0
 564 0214 FFF7F4FE 		bl	ClockSetup
 565              	.LVL35:
 702:.\Generated_Source\PSoC4/cyfitter_cfg.c **** 
 703:.\Generated_Source\PSoC4/cyfitter_cfg.c **** 	/* Perform basic analog initialization to defaults */
 704:.\Generated_Source\PSoC4/cyfitter_cfg.c **** 	AnalogSetDefault();
 566              		.loc 1 704 0
 567 0218 FFF7FEFF 		bl	AnalogSetDefault
 568              	.LVL36:
 705:.\Generated_Source\PSoC4/cyfitter_cfg.c **** 
 706:.\Generated_Source\PSoC4/cyfitter_cfg.c **** }
 569              		.loc 1 706 0
 570              		@ sp needed
 571              	.LVL37:
 572 021c 10BD     		pop	{r4, pc}
 573              	.L22:
 574 021e C046     		.align	2
 575              	.L21:
 576 0220 6CF02E40 		.word	1076818028
 577 0224 1C700F40 		.word	1074753564
 578 0228 00000000 		.word	.LANCHOR0
 579 022c 303303EE 		.word	-301780176
 580 0230 00000240 		.word	1073872896
 581 0234 00030240 		.word	1073873664
 582 0238 00500F40 		.word	1074745344
 583 023c 00002D54 		.word	1412235264
 584 0240 08500F40 		.word	1074745352
 585 0244 10500F40 		.word	1074745360
 586 0248 20500F40 		.word	1074745376
 587 024c 30500F40 		.word	1074745392
 588 0250 38500F40 		.word	1074745400
ARM GAS  C:\Users\alvin\AppData\Local\Temp\ccnbMvhm.s 			page 24


 589 0254 18880800 		.word	559128
 590 0258 60012040 		.word	1075839328
 591 025c 20001040 		.word	1074790432
 592 0260 00800F40 		.word	1074757632
 593 0264 00700F40 		.word	1074753536
 594 0268 01700F40 		.word	1074753537
 595 026c 00000440 		.word	1074003968
 596 0270 B06DD800 		.word	14183856
 597 0274 08000440 		.word	1074003976
 598 0278 B66D1B00 		.word	1797558
 599 027c 08010440 		.word	1074004232
 600 0280 00020440 		.word	1074004480
 601 0284 08020440 		.word	1074004488
 602 0288 00030440 		.word	1074004736
 603 028c 400CD800 		.word	14158912
 604 0290 08030440 		.word	1074004744
 605 0294 18030440 		.word	1074004760
 606              		.cfi_endproc
 607              	.LFE9:
 608              		.size	cyfitter_cfg, .-cyfitter_cfg
 609              		.section	.rodata
 610              		.align	2
 611              		.set	.LANCHOR0,. + 0
 612              		.type	cfg_memset_list.4796, %object
 613              		.size	cfg_memset_list.4796, 12
 614              	cfg_memset_list.4796:
 615 0000 00300F40 		.word	1074737152
 616 0004 0004     		.short	1024
 617 0006 00400F40 		.4byte	1074741248
 618 000a 0004     		.short	1024
 619              		.type	cy_cfg_addr_table.4790, %object
 620              		.size	cy_cfg_addr_table.4790, 40
 621              	cy_cfg_addr_table.4790:
 622 000c 02000F40 		.word	1074724866
 623 0010 3E300F40 		.word	1074737214
 624 0014 22310F40 		.word	1074737442
 625 0018 4D320F40 		.word	1074737741
 626 001c 32330F40 		.word	1074737970
 627 0020 0A400F40 		.word	1074741258
 628 0024 09410F40 		.word	1074741513
 629 0028 06420F40 		.word	1074741766
 630 002c 08430F40 		.word	1074742024
 631 0030 02600F40 		.word	1074749442
 632              		.type	cy_cfg_data_table.4791, %object
 633              		.size	cy_cfg_data_table.4791, 520
 634              	cy_cfg_data_table.4791:
 635 0034 81       		.byte	-127
 636 0035 0D       		.byte	13
 637 0036 83       		.byte	-125
 638 0037 0D       		.byte	13
 639 0038 13       		.byte	19
 640 0039 01       		.byte	1
 641 003a 27       		.byte	39
 642 003b 01       		.byte	1
 643 003c 31       		.byte	49
 644 003d 01       		.byte	1
 645 003e 3F       		.byte	63
ARM GAS  C:\Users\alvin\AppData\Local\Temp\ccnbMvhm.s 			page 25


 646 003f 01       		.byte	1
 647 0040 40       		.byte	64
 648 0041 43       		.byte	67
 649 0042 49       		.byte	73
 650 0043 FF       		.byte	-1
 651 0044 4A       		.byte	74
 652 0045 FF       		.byte	-1
 653 0046 4B       		.byte	75
 654 0047 FF       		.byte	-1
 655 0048 4F       		.byte	79
 656 0049 01       		.byte	1
 657 004a 50       		.byte	80
 658 004b 18       		.byte	24
 659 004c 52       		.byte	82
 660 004d 80       		.byte	-128
 661 004e 59       		.byte	89
 662 004f 04       		.byte	4
 663 0050 5A       		.byte	90
 664 0051 04       		.byte	4
 665 0052 5B       		.byte	91
 666 0053 04       		.byte	4
 667 0054 5D       		.byte	93
 668 0055 33       		.byte	51
 669 0056 5F       		.byte	95
 670 0057 01       		.byte	1
 671 0058 60       		.byte	96
 672 0059 40       		.byte	64
 673 005a 62       		.byte	98
 674 005b 40       		.byte	64
 675 005c 64       		.byte	100
 676 005d 40       		.byte	64
 677 005e 65       		.byte	101
 678 005f 40       		.byte	64
 679 0060 66       		.byte	102
 680 0061 80       		.byte	-128
 681 0062 68       		.byte	104
 682 0063 80       		.byte	-128
 683 0064 6A       		.byte	106
 684 0065 80       		.byte	-128
 685 0066 6C       		.byte	108
 686 0067 80       		.byte	-128
 687 0068 6E       		.byte	110
 688 0069 80       		.byte	-128
 689 006a 82       		.byte	-126
 690 006b 06       		.byte	6
 691 006c 8E       		.byte	-114
 692 006d 06       		.byte	6
 693 006e 92       		.byte	-110
 694 006f 01       		.byte	1
 695 0070 A4       		.byte	-92
 696 0071 02       		.byte	2
 697 0072 A6       		.byte	-90
 698 0073 04       		.byte	4
 699 0074 AA       		.byte	-86
 700 0075 01       		.byte	1
 701 0076 B0       		.byte	-80
 702 0077 04       		.byte	4
ARM GAS  C:\Users\alvin\AppData\Local\Temp\ccnbMvhm.s 			page 26


 703 0078 B2       		.byte	-78
 704 0079 02       		.byte	2
 705 007a B4       		.byte	-76
 706 007b 01       		.byte	1
 707 007c BE       		.byte	-66
 708 007d 05       		.byte	5
 709 007e C0       		.byte	-64
 710 007f 42       		.byte	66
 711 0080 C5       		.byte	-59
 712 0081 EC       		.byte	-20
 713 0082 C7       		.byte	-57
 714 0083 02       		.byte	2
 715 0084 C8       		.byte	-56
 716 0085 13       		.byte	19
 717 0086 C9       		.byte	-55
 718 0087 FF       		.byte	-1
 719 0088 CA       		.byte	-54
 720 0089 FF       		.byte	-1
 721 008a CB       		.byte	-53
 722 008b FF       		.byte	-1
 723 008c CD       		.byte	-51
 724 008d 83       		.byte	-125
 725 008e CE       		.byte	-50
 726 008f 03       		.byte	3
 727 0090 CF       		.byte	-49
 728 0091 01       		.byte	1
 729 0092 D0       		.byte	-48
 730 0093 18       		.byte	24
 731 0094 D4       		.byte	-44
 732 0095 01       		.byte	1
 733 0096 D8       		.byte	-40
 734 0097 04       		.byte	4
 735 0098 DA       		.byte	-38
 736 0099 04       		.byte	4
 737 009a DB       		.byte	-37
 738 009b 04       		.byte	4
 739 009c DC       		.byte	-36
 740 009d 03       		.byte	3
 741 009e DD       		.byte	-35
 742 009f 33       		.byte	51
 743 00a0 DF       		.byte	-33
 744 00a1 01       		.byte	1
 745 00a2 E0       		.byte	-32
 746 00a3 40       		.byte	64
 747 00a4 E2       		.byte	-30
 748 00a5 40       		.byte	64
 749 00a6 E4       		.byte	-28
 750 00a7 40       		.byte	64
 751 00a8 E5       		.byte	-27
 752 00a9 40       		.byte	64
 753 00aa E6       		.byte	-26
 754 00ab 80       		.byte	-128
 755 00ac E8       		.byte	-24
 756 00ad 80       		.byte	-128
 757 00ae EA       		.byte	-22
 758 00af 80       		.byte	-128
 759 00b0 EC       		.byte	-20
ARM GAS  C:\Users\alvin\AppData\Local\Temp\ccnbMvhm.s 			page 27


 760 00b1 80       		.byte	-128
 761 00b2 EE       		.byte	-18
 762 00b3 80       		.byte	-128
 763 00b4 04       		.byte	4
 764 00b5 01       		.byte	1
 765 00b6 07       		.byte	7
 766 00b7 01       		.byte	1
 767 00b8 0D       		.byte	13
 768 00b9 02       		.byte	2
 769 00ba 16       		.byte	22
 770 00bb 04       		.byte	4
 771 00bc 17       		.byte	23
 772 00bd 04       		.byte	4
 773 00be 1C       		.byte	28
 774 00bf 04       		.byte	4
 775 00c0 1D       		.byte	29
 776 00c1 04       		.byte	4
 777 00c2 1E       		.byte	30
 778 00c3 40       		.byte	64
 779 00c4 20       		.byte	32
 780 00c5 40       		.byte	64
 781 00c6 2A       		.byte	42
 782 00c7 04       		.byte	4
 783 00c8 31       		.byte	49
 784 00c9 02       		.byte	2
 785 00ca 41       		.byte	65
 786 00cb 02       		.byte	2
 787 00cc 43       		.byte	67
 788 00cd 08       		.byte	8
 789 00ce 45       		.byte	69
 790 00cf 02       		.byte	2
 791 00d0 46       		.byte	70
 792 00d1 04       		.byte	4
 793 00d2 4D       		.byte	77
 794 00d3 04       		.byte	4
 795 00d4 4F       		.byte	79
 796 00d5 01       		.byte	1
 797 00d6 56       		.byte	86
 798 00d7 04       		.byte	4
 799 00d8 57       		.byte	87
 800 00d9 08       		.byte	8
 801 00da 5C       		.byte	92
 802 00db 40       		.byte	64
 803 00dc 5D       		.byte	93
 804 00dd 04       		.byte	4
 805 00de 5F       		.byte	95
 806 00df 01       		.byte	1
 807 00e0 6F       		.byte	111
 808 00e1 05       		.byte	5
 809 00e2 71       		.byte	113
 810 00e3 02       		.byte	2
 811 00e4 80       		.byte	-128
 812 00e5 04       		.byte	4
 813 00e6 81       		.byte	-127
 814 00e7 0C       		.byte	12
 815 00e8 C0       		.byte	-64
 816 00e9 90       		.byte	-112
ARM GAS  C:\Users\alvin\AppData\Local\Temp\ccnbMvhm.s 			page 28


 817 00ea C2       		.byte	-62
 818 00eb 10       		.byte	16
 819 00ec C4       		.byte	-60
 820 00ed 60       		.byte	96
 821 00ee CA       		.byte	-54
 822 00ef 02       		.byte	2
 823 00f0 CC       		.byte	-52
 824 00f1 01       		.byte	1
 825 00f2 D0       		.byte	-48
 826 00f3 A3       		.byte	-93
 827 00f4 D6       		.byte	-42
 828 00f5 D0       		.byte	-48
 829 00f6 E2       		.byte	-30
 830 00f7 01       		.byte	1
 831 00f8 0B       		.byte	11
 832 00f9 01       		.byte	1
 833 00fa 13       		.byte	19
 834 00fb 01       		.byte	1
 835 00fc 16       		.byte	22
 836 00fd 01       		.byte	1
 837 00fe 1B       		.byte	27
 838 00ff 01       		.byte	1
 839 0100 22       		.byte	34
 840 0101 01       		.byte	1
 841 0102 28       		.byte	40
 842 0103 01       		.byte	1
 843 0104 30       		.byte	48
 844 0105 01       		.byte	1
 845 0106 33       		.byte	51
 846 0107 01       		.byte	1
 847 0108 3E       		.byte	62
 848 0109 01       		.byte	1
 849 010a 3F       		.byte	63
 850 010b 04       		.byte	4
 851 010c 40       		.byte	64
 852 010d 60       		.byte	96
 853 010e 41       		.byte	65
 854 010f 05       		.byte	5
 855 0110 49       		.byte	73
 856 0111 FF       		.byte	-1
 857 0112 4A       		.byte	74
 858 0113 FF       		.byte	-1
 859 0114 4B       		.byte	75
 860 0115 FF       		.byte	-1
 861 0116 4D       		.byte	77
 862 0117 A0       		.byte	-96
 863 0118 4F       		.byte	79
 864 0119 04       		.byte	4
 865 011a 50       		.byte	80
 866 011b 18       		.byte	24
 867 011c 58       		.byte	88
 868 011d 04       		.byte	4
 869 011e 59       		.byte	89
 870 011f 04       		.byte	4
 871 0120 5A       		.byte	90
 872 0121 04       		.byte	4
 873 0122 5B       		.byte	91
ARM GAS  C:\Users\alvin\AppData\Local\Temp\ccnbMvhm.s 			page 29


 874 0123 04       		.byte	4
 875 0124 5D       		.byte	93
 876 0125 01       		.byte	1
 877 0126 5F       		.byte	95
 878 0127 01       		.byte	1
 879 0128 60       		.byte	96
 880 0129 40       		.byte	64
 881 012a 62       		.byte	98
 882 012b C0       		.byte	-64
 883 012c 64       		.byte	100
 884 012d 40       		.byte	64
 885 012e 65       		.byte	101
 886 012f 40       		.byte	64
 887 0130 66       		.byte	102
 888 0131 C0       		.byte	-64
 889 0132 68       		.byte	104
 890 0133 C0       		.byte	-64
 891 0134 6A       		.byte	106
 892 0135 C0       		.byte	-64
 893 0136 6C       		.byte	108
 894 0137 C0       		.byte	-64
 895 0138 6E       		.byte	110
 896 0139 C0       		.byte	-64
 897 013a 80       		.byte	-128
 898 013b 08       		.byte	8
 899 013c 86       		.byte	-122
 900 013d 06       		.byte	6
 901 013e 8E       		.byte	-114
 902 013f 02       		.byte	2
 903 0140 91       		.byte	-111
 904 0141 02       		.byte	2
 905 0142 92       		.byte	-110
 906 0143 01       		.byte	1
 907 0144 9B       		.byte	-101
 908 0145 03       		.byte	3
 909 0146 A6       		.byte	-90
 910 0147 04       		.byte	4
 911 0148 B0       		.byte	-80
 912 0149 04       		.byte	4
 913 014a B1       		.byte	-79
 914 014b 01       		.byte	1
 915 014c B2       		.byte	-78
 916 014d 02       		.byte	2
 917 014e B4       		.byte	-76
 918 014f 01       		.byte	1
 919 0150 B6       		.byte	-74
 920 0151 08       		.byte	8
 921 0152 B7       		.byte	-73
 922 0153 02       		.byte	2
 923 0154 BE       		.byte	-66
 924 0155 44       		.byte	68
 925 0156 C0       		.byte	-64
 926 0157 20       		.byte	32
 927 0158 C1       		.byte	-63
 928 0159 05       		.byte	5
 929 015a C5       		.byte	-59
 930 015b D1       		.byte	-47
ARM GAS  C:\Users\alvin\AppData\Local\Temp\ccnbMvhm.s 			page 30


 931 015c C7       		.byte	-57
 932 015d 20       		.byte	32
 933 015e C8       		.byte	-56
 934 015f 23       		.byte	35
 935 0160 C9       		.byte	-55
 936 0161 FF       		.byte	-1
 937 0162 CA       		.byte	-54
 938 0163 FF       		.byte	-1
 939 0164 CB       		.byte	-53
 940 0165 FF       		.byte	-1
 941 0166 CD       		.byte	-51
 942 0167 AF       		.byte	-81
 943 0168 CE       		.byte	-50
 944 0169 0F       		.byte	15
 945 016a CF       		.byte	-49
 946 016b 04       		.byte	4
 947 016c D0       		.byte	-48
 948 016d 18       		.byte	24
 949 016e D2       		.byte	-46
 950 016f 80       		.byte	-128
 951 0170 D4       		.byte	-44
 952 0171 05       		.byte	5
 953 0172 D8       		.byte	-40
 954 0173 04       		.byte	4
 955 0174 D9       		.byte	-39
 956 0175 04       		.byte	4
 957 0176 DA       		.byte	-38
 958 0177 04       		.byte	4
 959 0178 DB       		.byte	-37
 960 0179 04       		.byte	4
 961 017a DC       		.byte	-36
 962 017b 11       		.byte	17
 963 017c DD       		.byte	-35
 964 017d 11       		.byte	17
 965 017e DF       		.byte	-33
 966 017f 01       		.byte	1
 967 0180 E0       		.byte	-32
 968 0181 40       		.byte	64
 969 0182 E2       		.byte	-30
 970 0183 C0       		.byte	-64
 971 0184 E4       		.byte	-28
 972 0185 40       		.byte	64
 973 0186 E5       		.byte	-27
 974 0187 40       		.byte	64
 975 0188 E6       		.byte	-26
 976 0189 C0       		.byte	-64
 977 018a E8       		.byte	-24
 978 018b C0       		.byte	-64
 979 018c EA       		.byte	-22
 980 018d C0       		.byte	-64
 981 018e EC       		.byte	-20
 982 018f C0       		.byte	-64
 983 0190 EE       		.byte	-18
 984 0191 C0       		.byte	-64
 985 0192 00       		.byte	0
 986 0193 04       		.byte	4
 987 0194 01       		.byte	1
ARM GAS  C:\Users\alvin\AppData\Local\Temp\ccnbMvhm.s 			page 31


 988 0195 02       		.byte	2
 989 0196 02       		.byte	2
 990 0197 02       		.byte	2
 991 0198 0A       		.byte	10
 992 0199 40       		.byte	64
 993 019a 0D       		.byte	13
 994 019b 08       		.byte	8
 995 019c 0E       		.byte	14
 996 019d 20       		.byte	32
 997 019e 10       		.byte	16
 998 019f 20       		.byte	32
 999 01a0 15       		.byte	21
 1000 01a1 10       		.byte	16
 1001 01a2 17       		.byte	23
 1002 01a3 01       		.byte	1
 1003 01a4 18       		.byte	24
 1004 01a5 04       		.byte	4
 1005 01a6 19       		.byte	25
 1006 01a7 06       		.byte	6
 1007 01a8 1B       		.byte	27
 1008 01a9 90       		.byte	-112
 1009 01aa 1E       		.byte	30
 1010 01ab 80       		.byte	-128
 1011 01ac 21       		.byte	33
 1012 01ad 02       		.byte	2
 1013 01ae 22       		.byte	34
 1014 01af 40       		.byte	64
 1015 01b0 27       		.byte	39
 1016 01b1 20       		.byte	32
 1017 01b2 30       		.byte	48
 1018 01b3 20       		.byte	32
 1019 01b4 31       		.byte	49
 1020 01b5 02       		.byte	2
 1021 01b6 36       		.byte	54
 1022 01b7 10       		.byte	16
 1023 01b8 37       		.byte	55
 1024 01b9 01       		.byte	1
 1025 01ba 3E       		.byte	62
 1026 01bb 10       		.byte	16
 1027 01bc 40       		.byte	64
 1028 01bd 04       		.byte	4
 1029 01be 48       		.byte	72
 1030 01bf 20       		.byte	32
 1031 01c0 49       		.byte	73
 1032 01c1 01       		.byte	1
 1033 01c2 4A       		.byte	74
 1034 01c3 02       		.byte	2
 1035 01c4 4E       		.byte	78
 1036 01c5 02       		.byte	2
 1037 01c6 4F       		.byte	79
 1038 01c7 20       		.byte	32
 1039 01c8 52       		.byte	82
 1040 01c9 02       		.byte	2
 1041 01ca 59       		.byte	89
 1042 01cb 05       		.byte	5
 1043 01cc 5A       		.byte	90
 1044 01cd 80       		.byte	-128
ARM GAS  C:\Users\alvin\AppData\Local\Temp\ccnbMvhm.s 			page 32


 1045 01ce 6D       		.byte	109
 1046 01cf 10       		.byte	16
 1047 01d0 6E       		.byte	110
 1048 01d1 10       		.byte	16
 1049 01d2 6F       		.byte	111
 1050 01d3 01       		.byte	1
 1051 01d4 72       		.byte	114
 1052 01d5 40       		.byte	64
 1053 01d6 83       		.byte	-125
 1054 01d7 A0       		.byte	-96
 1055 01d8 A1       		.byte	-95
 1056 01d9 08       		.byte	8
 1057 01da A6       		.byte	-90
 1058 01db 40       		.byte	64
 1059 01dc AE       		.byte	-82
 1060 01dd 40       		.byte	64
 1061 01de B4       		.byte	-76
 1062 01df 01       		.byte	1
 1063 01e0 B6       		.byte	-74
 1064 01e1 40       		.byte	64
 1065 01e2 C0       		.byte	-64
 1066 01e3 0D       		.byte	13
 1067 01e4 C2       		.byte	-62
 1068 01e5 28       		.byte	40
 1069 01e6 C4       		.byte	-60
 1070 01e7 54       		.byte	84
 1071 01e8 CC       		.byte	-52
 1072 01e9 A5       		.byte	-91
 1073 01ea CE       		.byte	-50
 1074 01eb 20       		.byte	32
 1075 01ec D0       		.byte	-48
 1076 01ed 04       		.byte	4
 1077 01ee D2       		.byte	-46
 1078 01ef 38       		.byte	56
 1079 01f0 D6       		.byte	-42
 1080 01f1 0B       		.byte	11
 1081 01f2 E4       		.byte	-28
 1082 01f3 04       		.byte	4
 1083 01f4 EE       		.byte	-18
 1084 01f5 40       		.byte	64
 1085 01f6 52       		.byte	82
 1086 01f7 20       		.byte	32
 1087 01f8 5A       		.byte	90
 1088 01f9 80       		.byte	-128
 1089 01fa 5B       		.byte	91
 1090 01fb 04       		.byte	4
 1091 01fc 5D       		.byte	93
 1092 01fd 80       		.byte	-128
 1093 01fe 81       		.byte	-127
 1094 01ff 04       		.byte	4
 1095 0200 82       		.byte	-126
 1096 0201 40       		.byte	64
 1097 0202 D4       		.byte	-44
 1098 0203 A0       		.byte	-96
 1099 0204 D6       		.byte	-42
 1100 0205 60       		.byte	96
 1101 0206 E2       		.byte	-30
ARM GAS  C:\Users\alvin\AppData\Local\Temp\ccnbMvhm.s 			page 33


 1102 0207 20       		.byte	32
 1103 0208 E6       		.byte	-26
 1104 0209 80       		.byte	-128
 1105 020a 6D       		.byte	109
 1106 020b 08       		.byte	8
 1107 020c 83       		.byte	-125
 1108 020d 04       		.byte	4
 1109 020e 9F       		.byte	-97
 1110 020f 04       		.byte	4
 1111 0210 A1       		.byte	-95
 1112 0211 04       		.byte	4
 1113 0212 AE       		.byte	-82
 1114 0213 20       		.byte	32
 1115 0214 B5       		.byte	-75
 1116 0215 80       		.byte	-128
 1117 0216 DA       		.byte	-38
 1118 0217 80       		.byte	-128
 1119 0218 E2       		.byte	-30
 1120 0219 80       		.byte	-128
 1121 021a EE       		.byte	-18
 1122 021b 40       		.byte	64
 1123 021c 10       		.byte	16
 1124 021d 08       		.byte	8
 1125 021e 13       		.byte	19
 1126 021f 01       		.byte	1
 1127 0220 40       		.byte	64
 1128 0221 10       		.byte	16
 1129 0222 83       		.byte	-125
 1130 0223 01       		.byte	1
 1131 0224 C4       		.byte	-60
 1132 0225 0A       		.byte	10
 1133 0226 D0       		.byte	-48
 1134 0227 02       		.byte	2
 1135 0228 00       		.byte	0
 1136 0229 10       		.byte	16
 1137 022a 67       		.byte	103
 1138 022b 02       		.byte	2
 1139 022c 83       		.byte	-125
 1140 022d 01       		.byte	1
 1141 022e 94       		.byte	-108
 1142 022f 10       		.byte	16
 1143 0230 B4       		.byte	-76
 1144 0231 08       		.byte	8
 1145 0232 C0       		.byte	-64
 1146 0233 02       		.byte	2
 1147 0234 D6       		.byte	-42
 1148 0235 01       		.byte	1
 1149 0236 EE       		.byte	-18
 1150 0237 08       		.byte	8
 1151 0238 01       		.byte	1
 1152 0239 0A       		.byte	10
 1153 023a 10       		.byte	16
 1154 023b 0A       		.byte	10
 1155              		.text
 1156              	.Letext0:
 1157              		.file 2 "c:\\program files (x86)\\cypress\\psoc creator\\3.3\\psoc creator\\import\\gnu\\arm\\4.9.
 1158              		.file 3 ".\\Generated_Source\\PSoC4\\cytypes.h"
ARM GAS  C:\Users\alvin\AppData\Local\Temp\ccnbMvhm.s 			page 34


 1159              		.file 4 ".\\Generated_Source\\PSoC4\\CyLib.h"
 1160              		.file 5 ".\\Generated_Source\\PSoC4\\CyLFClk.h"