ARM GAS  C:\Users\alvin\AppData\Local\Temp\cc6uIbqV.s 			page 1


   1              		.cpu cortex-m0
   2              		.fpu softvfp
   3              		.eabi_attribute 20, 1
   4              		.eabi_attribute 21, 1
   5              		.eabi_attribute 23, 3
   6              		.eabi_attribute 24, 1
   7              		.eabi_attribute 25, 1
   8              		.eabi_attribute 26, 1
   9              		.eabi_attribute 30, 1
  10              		.eabi_attribute 34, 0
  11              		.eabi_attribute 18, 4
  12              		.code	16
  13              		.file	"motors.c"
  14              		.text
  15              	.Ltext0:
  16              		.cfi_sections	.debug_frame
  17              		.section	.text.leftmotor_fwd,"ax",%progbits
  18              		.align	2
  19              		.global	leftmotor_fwd
  20              		.code	16
  21              		.thumb_func
  22              		.type	leftmotor_fwd, %function
  23              	leftmotor_fwd:
  24              	.LFB43:
  25              		.file 1 ".\\motors.c"
   1:.\motors.c    **** /* ========================================
   2:.\motors.c    ****  *
   3:.\motors.c    ****  * Cypress Robot Kit
   4:.\motors.c    ****  * Written by Alvin Wu and Todd Nguyen
   5:.\motors.c    ****  * University of Illinois at Urbana-Champaign
   6:.\motors.c    ****  * Free for distribution under General Public License
   7:.\motors.c    ****  * 
   8:.\motors.c    ****  * ========================================
   9:.\motors.c    **** */
  10:.\motors.c    **** 
  11:.\motors.c    **** #include <project.h>
  12:.\motors.c    **** #include "motors.h"
  13:.\motors.c    **** 
  14:.\motors.c    **** /*************************************************
  15:.\motors.c    ****     Function to handle motor commands from BLE
  16:.\motors.c    **** *************************************************/
  17:.\motors.c    **** void handleMotors(uint8 motorcontrol, uint8 motorspeeds){
  18:.\motors.c    **** 
  19:.\motors.c    ****     uint8 rightMotorSpeed = motorspeeds & 0xF;
  20:.\motors.c    ****     uint8 leftMotorSpeed = (motorspeeds >> 4) & 0xF;
  21:.\motors.c    ****     
  22:.\motors.c    ****     uint8 rightMotorDirection = motorcontrol & 1;
  23:.\motors.c    ****     uint8 leftMotorDirection = (motorcontrol >> 1) & 1;
  24:.\motors.c    ****     
  25:.\motors.c    ****     //Stop
  26:.\motors.c    ****     if(leftMotorSpeed == 0 && rightMotorSpeed == 0){
  27:.\motors.c    ****         motor_stop();
  28:.\motors.c    ****     }else{        
  29:.\motors.c    ****         leftmotor_setspeed(leftMotorSpeed);
  30:.\motors.c    ****         rightmotor_setspeed(rightMotorSpeed);
  31:.\motors.c    ****         leftMotorDirection ? leftmotor_fwd() : leftmotor_rev();
  32:.\motors.c    ****         rightMotorDirection ? rightmotor_fwd() : rightmotor_rev();
ARM GAS  C:\Users\alvin\AppData\Local\Temp\cc6uIbqV.s 			page 2


  33:.\motors.c    ****     }
  34:.\motors.c    **** }
  35:.\motors.c    **** 
  36:.\motors.c    **** 
  37:.\motors.c    **** /*************************************************
  38:.\motors.c    ****     Functions to set motor direction registers
  39:.\motors.c    **** *************************************************/
  40:.\motors.c    **** void move_fwd(){
  41:.\motors.c    ****     leftmotor_fwd();
  42:.\motors.c    ****     rightmotor_fwd();
  43:.\motors.c    **** }
  44:.\motors.c    **** 
  45:.\motors.c    **** void move_rev(){
  46:.\motors.c    ****     leftmotor_rev();
  47:.\motors.c    ****     rightmotor_rev();
  48:.\motors.c    **** }
  49:.\motors.c    **** 
  50:.\motors.c    **** void rotate_left(){
  51:.\motors.c    ****     leftmotor_rev();
  52:.\motors.c    ****     rightmotor_fwd();
  53:.\motors.c    **** }
  54:.\motors.c    **** 
  55:.\motors.c    **** void rotate_right(){
  56:.\motors.c    ****     leftmotor_fwd();
  57:.\motors.c    ****     rightmotor_rev();
  58:.\motors.c    **** }
  59:.\motors.c    **** 
  60:.\motors.c    **** void motor_stop(){
  61:.\motors.c    ****     left_control_Write(0);
  62:.\motors.c    ****     right_control_Write(0);
  63:.\motors.c    ****     leftmotor_setspeed(0);
  64:.\motors.c    ****     rightmotor_setspeed(0);
  65:.\motors.c    **** }
  66:.\motors.c    **** 
  67:.\motors.c    **** 
  68:.\motors.c    **** /*************************************************
  69:.\motors.c    ****     Functions to control individual motors
  70:.\motors.c    **** *************************************************/
  71:.\motors.c    **** void leftmotor_fwd(){
  26              		.loc 1 71 0
  27              		.cfi_startproc
  28 0000 08B5     		push	{r3, lr}
  29              		.cfi_def_cfa_offset 8
  30              		.cfi_offset 3, -8
  31              		.cfi_offset 14, -4
  72:.\motors.c    ****     left_control_Write(1);
  32              		.loc 1 72 0
  33 0002 0120     		mov	r0, #1
  34 0004 FFF7FEFF 		bl	left_control_Write
  35              	.LVL0:
  73:.\motors.c    **** }
  36              		.loc 1 73 0
  37              		@ sp needed
  38 0008 08BD     		pop	{r3, pc}
  39              		.cfi_endproc
  40              	.LFE43:
  41              		.size	leftmotor_fwd, .-leftmotor_fwd
ARM GAS  C:\Users\alvin\AppData\Local\Temp\cc6uIbqV.s 			page 3


  42              		.section	.text.leftmotor_rev,"ax",%progbits
  43              		.align	2
  44              		.global	leftmotor_rev
  45              		.code	16
  46              		.thumb_func
  47              		.type	leftmotor_rev, %function
  48              	leftmotor_rev:
  49              	.LFB44:
  74:.\motors.c    **** 
  75:.\motors.c    **** void leftmotor_rev(){
  50              		.loc 1 75 0
  51              		.cfi_startproc
  52 0000 08B5     		push	{r3, lr}
  53              		.cfi_def_cfa_offset 8
  54              		.cfi_offset 3, -8
  55              		.cfi_offset 14, -4
  76:.\motors.c    ****     left_control_Write(3);
  56              		.loc 1 76 0
  57 0002 0320     		mov	r0, #3
  58 0004 FFF7FEFF 		bl	left_control_Write
  59              	.LVL1:
  77:.\motors.c    **** }
  60              		.loc 1 77 0
  61              		@ sp needed
  62 0008 08BD     		pop	{r3, pc}
  63              		.cfi_endproc
  64              	.LFE44:
  65              		.size	leftmotor_rev, .-leftmotor_rev
  66 000a C046     		.section	.text.rightmotor_fwd,"ax",%progbits
  67              		.align	2
  68              		.global	rightmotor_fwd
  69              		.code	16
  70              		.thumb_func
  71              		.type	rightmotor_fwd, %function
  72              	rightmotor_fwd:
  73              	.LFB45:
  78:.\motors.c    **** 
  79:.\motors.c    **** void rightmotor_fwd(){
  74              		.loc 1 79 0
  75              		.cfi_startproc
  76 0000 08B5     		push	{r3, lr}
  77              		.cfi_def_cfa_offset 8
  78              		.cfi_offset 3, -8
  79              		.cfi_offset 14, -4
  80:.\motors.c    ****     right_control_Write(1);
  80              		.loc 1 80 0
  81 0002 0120     		mov	r0, #1
  82 0004 FFF7FEFF 		bl	right_control_Write
  83              	.LVL2:
  81:.\motors.c    **** }
  84              		.loc 1 81 0
  85              		@ sp needed
  86 0008 08BD     		pop	{r3, pc}
  87              		.cfi_endproc
  88              	.LFE45:
  89              		.size	rightmotor_fwd, .-rightmotor_fwd
  90 000a C046     		.section	.text.move_fwd,"ax",%progbits
ARM GAS  C:\Users\alvin\AppData\Local\Temp\cc6uIbqV.s 			page 4


  91              		.align	2
  92              		.global	move_fwd
  93              		.code	16
  94              		.thumb_func
  95              		.type	move_fwd, %function
  96              	move_fwd:
  97              	.LFB38:
  40:.\motors.c    ****     leftmotor_fwd();
  98              		.loc 1 40 0
  99              		.cfi_startproc
 100 0000 08B5     		push	{r3, lr}
 101              		.cfi_def_cfa_offset 8
 102              		.cfi_offset 3, -8
 103              		.cfi_offset 14, -4
  41:.\motors.c    ****     rightmotor_fwd();
 104              		.loc 1 41 0
 105 0002 FFF7FEFF 		bl	leftmotor_fwd
 106              	.LVL3:
  42:.\motors.c    **** }
 107              		.loc 1 42 0
 108 0006 FFF7FEFF 		bl	rightmotor_fwd
 109              	.LVL4:
  43:.\motors.c    **** 
 110              		.loc 1 43 0
 111              		@ sp needed
 112 000a 08BD     		pop	{r3, pc}
 113              		.cfi_endproc
 114              	.LFE38:
 115              		.size	move_fwd, .-move_fwd
 116              		.section	.text.rotate_left,"ax",%progbits
 117              		.align	2
 118              		.global	rotate_left
 119              		.code	16
 120              		.thumb_func
 121              		.type	rotate_left, %function
 122              	rotate_left:
 123              	.LFB40:
  50:.\motors.c    ****     leftmotor_rev();
 124              		.loc 1 50 0
 125              		.cfi_startproc
 126 0000 08B5     		push	{r3, lr}
 127              		.cfi_def_cfa_offset 8
 128              		.cfi_offset 3, -8
 129              		.cfi_offset 14, -4
  51:.\motors.c    ****     rightmotor_fwd();
 130              		.loc 1 51 0
 131 0002 FFF7FEFF 		bl	leftmotor_rev
 132              	.LVL5:
  52:.\motors.c    **** }
 133              		.loc 1 52 0
 134 0006 FFF7FEFF 		bl	rightmotor_fwd
 135              	.LVL6:
  53:.\motors.c    **** 
 136              		.loc 1 53 0
 137              		@ sp needed
 138 000a 08BD     		pop	{r3, pc}
 139              		.cfi_endproc
ARM GAS  C:\Users\alvin\AppData\Local\Temp\cc6uIbqV.s 			page 5


 140              	.LFE40:
 141              		.size	rotate_left, .-rotate_left
 142              		.section	.text.rightmotor_rev,"ax",%progbits
 143              		.align	2
 144              		.global	rightmotor_rev
 145              		.code	16
 146              		.thumb_func
 147              		.type	rightmotor_rev, %function
 148              	rightmotor_rev:
 149              	.LFB46:
  82:.\motors.c    **** 
  83:.\motors.c    **** void rightmotor_rev(){
 150              		.loc 1 83 0
 151              		.cfi_startproc
 152 0000 08B5     		push	{r3, lr}
 153              		.cfi_def_cfa_offset 8
 154              		.cfi_offset 3, -8
 155              		.cfi_offset 14, -4
  84:.\motors.c    ****     right_control_Write(3);
 156              		.loc 1 84 0
 157 0002 0320     		mov	r0, #3
 158 0004 FFF7FEFF 		bl	right_control_Write
 159              	.LVL7:
  85:.\motors.c    **** }
 160              		.loc 1 85 0
 161              		@ sp needed
 162 0008 08BD     		pop	{r3, pc}
 163              		.cfi_endproc
 164              	.LFE46:
 165              		.size	rightmotor_rev, .-rightmotor_rev
 166 000a C046     		.section	.text.move_rev,"ax",%progbits
 167              		.align	2
 168              		.global	move_rev
 169              		.code	16
 170              		.thumb_func
 171              		.type	move_rev, %function
 172              	move_rev:
 173              	.LFB39:
  45:.\motors.c    ****     leftmotor_rev();
 174              		.loc 1 45 0
 175              		.cfi_startproc
 176 0000 08B5     		push	{r3, lr}
 177              		.cfi_def_cfa_offset 8
 178              		.cfi_offset 3, -8
 179              		.cfi_offset 14, -4
  46:.\motors.c    ****     rightmotor_rev();
 180              		.loc 1 46 0
 181 0002 FFF7FEFF 		bl	leftmotor_rev
 182              	.LVL8:
  47:.\motors.c    **** }
 183              		.loc 1 47 0
 184 0006 FFF7FEFF 		bl	rightmotor_rev
 185              	.LVL9:
  48:.\motors.c    **** 
 186              		.loc 1 48 0
 187              		@ sp needed
 188 000a 08BD     		pop	{r3, pc}
ARM GAS  C:\Users\alvin\AppData\Local\Temp\cc6uIbqV.s 			page 6


 189              		.cfi_endproc
 190              	.LFE39:
 191              		.size	move_rev, .-move_rev
 192              		.section	.text.rotate_right,"ax",%progbits
 193              		.align	2
 194              		.global	rotate_right
 195              		.code	16
 196              		.thumb_func
 197              		.type	rotate_right, %function
 198              	rotate_right:
 199              	.LFB41:
  55:.\motors.c    ****     leftmotor_fwd();
 200              		.loc 1 55 0
 201              		.cfi_startproc
 202 0000 08B5     		push	{r3, lr}
 203              		.cfi_def_cfa_offset 8
 204              		.cfi_offset 3, -8
 205              		.cfi_offset 14, -4
  56:.\motors.c    ****     rightmotor_rev();
 206              		.loc 1 56 0
 207 0002 FFF7FEFF 		bl	leftmotor_fwd
 208              	.LVL10:
  57:.\motors.c    **** }
 209              		.loc 1 57 0
 210 0006 FFF7FEFF 		bl	rightmotor_rev
 211              	.LVL11:
  58:.\motors.c    **** 
 212              		.loc 1 58 0
 213              		@ sp needed
 214 000a 08BD     		pop	{r3, pc}
 215              		.cfi_endproc
 216              	.LFE41:
 217              		.size	rotate_right, .-rotate_right
 218              		.section	.text.leftmotor_setspeed,"ax",%progbits
 219              		.align	2
 220              		.global	leftmotor_setspeed
 221              		.code	16
 222              		.thumb_func
 223              		.type	leftmotor_setspeed, %function
 224              	leftmotor_setspeed:
 225              	.LFB48:
  86:.\motors.c    **** 
  87:.\motors.c    **** void setspeed(uint8 speed){
  88:.\motors.c    ****     leftmotor_setspeed(speed);
  89:.\motors.c    ****     rightmotor_setspeed(speed);
  90:.\motors.c    **** }
  91:.\motors.c    **** 
  92:.\motors.c    **** void leftmotor_setspeed(uint8 speed){
 226              		.loc 1 92 0
 227              		.cfi_startproc
 228              	.LVL12:
 229 0000 08B5     		push	{r3, lr}
 230              		.cfi_def_cfa_offset 8
 231              		.cfi_offset 3, -8
 232              		.cfi_offset 14, -4
  93:.\motors.c    ****     if(speed == 0){
 233              		.loc 1 93 0
ARM GAS  C:\Users\alvin\AppData\Local\Temp\cc6uIbqV.s 			page 7


 234 0002 0028     		cmp	r0, #0
 235 0004 02D1     		bne	.L10
  94:.\motors.c    ****         left_speedcontroller_WriteCompare(0);
 236              		.loc 1 94 0
 237 0006 FFF7FEFF 		bl	left_speedcontroller_WriteCompare
 238              	.LVL13:
 239 000a 02E0     		b	.L9
 240              	.LVL14:
 241              	.L10:
 242              	.LBB2:
  95:.\motors.c    ****     } else {
  96:.\motors.c    ****         int setspeed = (int) (speed + 8);
 243              		.loc 1 96 0
 244 000c 0830     		add	r0, r0, #8
 245              	.LVL15:
  97:.\motors.c    ****         left_speedcontroller_WriteCompare(setspeed);
 246              		.loc 1 97 0
 247 000e FFF7FEFF 		bl	left_speedcontroller_WriteCompare
 248              	.LVL16:
 249              	.L9:
 250              	.LBE2:
  98:.\motors.c    ****     }
  99:.\motors.c    **** }
 251              		.loc 1 99 0
 252              		@ sp needed
 253 0012 08BD     		pop	{r3, pc}
 254              		.cfi_endproc
 255              	.LFE48:
 256              		.size	leftmotor_setspeed, .-leftmotor_setspeed
 257              		.section	.text.rightmotor_setspeed,"ax",%progbits
 258              		.align	2
 259              		.global	rightmotor_setspeed
 260              		.code	16
 261              		.thumb_func
 262              		.type	rightmotor_setspeed, %function
 263              	rightmotor_setspeed:
 264              	.LFB49:
 100:.\motors.c    **** 
 101:.\motors.c    **** void rightmotor_setspeed(uint8 speed){
 265              		.loc 1 101 0
 266              		.cfi_startproc
 267              	.LVL17:
 268 0000 08B5     		push	{r3, lr}
 269              		.cfi_def_cfa_offset 8
 270              		.cfi_offset 3, -8
 271              		.cfi_offset 14, -4
 102:.\motors.c    ****     if(speed == 0){
 272              		.loc 1 102 0
 273 0002 0028     		cmp	r0, #0
 274 0004 02D1     		bne	.L13
 103:.\motors.c    ****         right_speedcontroller_WriteCompare(0);
 275              		.loc 1 103 0
 276 0006 FFF7FEFF 		bl	right_speedcontroller_WriteCompare
 277              	.LVL18:
 278 000a 02E0     		b	.L12
 279              	.LVL19:
 280              	.L13:
ARM GAS  C:\Users\alvin\AppData\Local\Temp\cc6uIbqV.s 			page 8


 281              	.LBB3:
 104:.\motors.c    ****     } else {
 105:.\motors.c    ****         int setspeed = (int) (speed + 8);
 282              		.loc 1 105 0
 283 000c 0830     		add	r0, r0, #8
 284              	.LVL20:
 106:.\motors.c    ****         right_speedcontroller_WriteCompare(setspeed);
 285              		.loc 1 106 0
 286 000e FFF7FEFF 		bl	right_speedcontroller_WriteCompare
 287              	.LVL21:
 288              	.L12:
 289              	.LBE3:
 107:.\motors.c    ****     }
 108:.\motors.c    **** }
 290              		.loc 1 108 0
 291              		@ sp needed
 292 0012 08BD     		pop	{r3, pc}
 293              		.cfi_endproc
 294              	.LFE49:
 295              		.size	rightmotor_setspeed, .-rightmotor_setspeed
 296              		.section	.text.motor_stop,"ax",%progbits
 297              		.align	2
 298              		.global	motor_stop
 299              		.code	16
 300              		.thumb_func
 301              		.type	motor_stop, %function
 302              	motor_stop:
 303              	.LFB42:
  60:.\motors.c    ****     left_control_Write(0);
 304              		.loc 1 60 0
 305              		.cfi_startproc
 306 0000 08B5     		push	{r3, lr}
 307              		.cfi_def_cfa_offset 8
 308              		.cfi_offset 3, -8
 309              		.cfi_offset 14, -4
  61:.\motors.c    ****     right_control_Write(0);
 310              		.loc 1 61 0
 311 0002 0020     		mov	r0, #0
 312 0004 FFF7FEFF 		bl	left_control_Write
 313              	.LVL22:
  62:.\motors.c    ****     leftmotor_setspeed(0);
 314              		.loc 1 62 0
 315 0008 0020     		mov	r0, #0
 316 000a FFF7FEFF 		bl	right_control_Write
 317              	.LVL23:
  63:.\motors.c    ****     rightmotor_setspeed(0);
 318              		.loc 1 63 0
 319 000e 0020     		mov	r0, #0
 320 0010 FFF7FEFF 		bl	leftmotor_setspeed
 321              	.LVL24:
  64:.\motors.c    **** }
 322              		.loc 1 64 0
 323 0014 0020     		mov	r0, #0
 324 0016 FFF7FEFF 		bl	rightmotor_setspeed
 325              	.LVL25:
  65:.\motors.c    **** 
 326              		.loc 1 65 0
ARM GAS  C:\Users\alvin\AppData\Local\Temp\cc6uIbqV.s 			page 9


 327              		@ sp needed
 328 001a 08BD     		pop	{r3, pc}
 329              		.cfi_endproc
 330              	.LFE42:
 331              		.size	motor_stop, .-motor_stop
 332              		.section	.text.handleMotors,"ax",%progbits
 333              		.align	2
 334              		.global	handleMotors
 335              		.code	16
 336              		.thumb_func
 337              		.type	handleMotors, %function
 338              	handleMotors:
 339              	.LFB37:
  17:.\motors.c    **** 
 340              		.loc 1 17 0
 341              		.cfi_startproc
 342              	.LVL26:
 343 0000 70B5     		push	{r4, r5, r6, lr}
 344              		.cfi_def_cfa_offset 16
 345              		.cfi_offset 4, -16
 346              		.cfi_offset 5, -12
 347              		.cfi_offset 6, -8
 348              		.cfi_offset 14, -4
  19:.\motors.c    ****     uint8 leftMotorSpeed = (motorspeeds >> 4) & 0xF;
 349              		.loc 1 19 0
 350 0002 0F25     		mov	r5, #15
 351 0004 0D40     		and	r5, r1
 352              	.LVL27:
  20:.\motors.c    ****     
 353              		.loc 1 20 0
 354 0006 0909     		lsr	r1, r1, #4
 355              	.LVL28:
  22:.\motors.c    ****     uint8 leftMotorDirection = (motorcontrol >> 1) & 1;
 356              		.loc 1 22 0
 357 0008 0124     		mov	r4, #1
 358 000a 261C     		mov	r6, r4
 359 000c 0640     		and	r6, r0
 360              	.LVL29:
  23:.\motors.c    ****     
 361              		.loc 1 23 0
 362 000e 4308     		lsr	r3, r0, #1
 363 0010 1C40     		and	r4, r3
 364              	.LVL30:
  26:.\motors.c    ****         motor_stop();
 365              		.loc 1 26 0
 366 0012 0B1C     		mov	r3, r1
 367 0014 2B43     		orr	r3, r5
 368 0016 02D1     		bne	.L17
  27:.\motors.c    ****     }else{        
 369              		.loc 1 27 0
 370 0018 FFF7FEFF 		bl	motor_stop
 371              	.LVL31:
 372 001c 13E0     		b	.L16
 373              	.LVL32:
 374              	.L17:
  29:.\motors.c    ****         rightmotor_setspeed(rightMotorSpeed);
 375              		.loc 1 29 0
ARM GAS  C:\Users\alvin\AppData\Local\Temp\cc6uIbqV.s 			page 10


 376 001e 081C     		mov	r0, r1
 377              	.LVL33:
 378 0020 FFF7FEFF 		bl	leftmotor_setspeed
 379              	.LVL34:
  30:.\motors.c    ****         leftMotorDirection ? leftmotor_fwd() : leftmotor_rev();
 380              		.loc 1 30 0
 381 0024 281C     		mov	r0, r5
 382 0026 FFF7FEFF 		bl	rightmotor_setspeed
 383              	.LVL35:
  31:.\motors.c    ****         rightMotorDirection ? rightmotor_fwd() : rightmotor_rev();
 384              		.loc 1 31 0
 385 002a 002C     		cmp	r4, #0
 386 002c 02D0     		beq	.L19
  31:.\motors.c    ****         rightMotorDirection ? rightmotor_fwd() : rightmotor_rev();
 387              		.loc 1 31 0 is_stmt 0 discriminator 1
 388 002e FFF7FEFF 		bl	leftmotor_fwd
 389              	.LVL36:
 390 0032 01E0     		b	.L20
 391              	.L19:
  31:.\motors.c    ****         rightMotorDirection ? rightmotor_fwd() : rightmotor_rev();
 392              		.loc 1 31 0 discriminator 2
 393 0034 FFF7FEFF 		bl	leftmotor_rev
 394              	.LVL37:
 395              	.L20:
  32:.\motors.c    ****     }
 396              		.loc 1 32 0 is_stmt 1
 397 0038 002E     		cmp	r6, #0
 398 003a 02D0     		beq	.L21
  32:.\motors.c    ****     }
 399              		.loc 1 32 0 is_stmt 0 discriminator 1
 400 003c FFF7FEFF 		bl	rightmotor_fwd
 401              	.LVL38:
 402 0040 01E0     		b	.L16
 403              	.L21:
  32:.\motors.c    ****     }
 404              		.loc 1 32 0 discriminator 2
 405 0042 FFF7FEFF 		bl	rightmotor_rev
 406              	.LVL39:
 407              	.L16:
  34:.\motors.c    **** 
 408              		.loc 1 34 0 is_stmt 1
 409              		@ sp needed
 410              	.LVL40:
 411              	.LVL41:
 412              	.LVL42:
 413 0046 70BD     		pop	{r4, r5, r6, pc}
 414              		.cfi_endproc
 415              	.LFE37:
 416              		.size	handleMotors, .-handleMotors
 417              		.section	.text.setspeed,"ax",%progbits
 418              		.align	2
 419              		.global	setspeed
 420              		.code	16
 421              		.thumb_func
 422              		.type	setspeed, %function
 423              	setspeed:
 424              	.LFB47:
ARM GAS  C:\Users\alvin\AppData\Local\Temp\cc6uIbqV.s 			page 11


  87:.\motors.c    ****     leftmotor_setspeed(speed);
 425              		.loc 1 87 0
 426              		.cfi_startproc
 427              	.LVL43:
 428 0000 10B5     		push	{r4, lr}
 429              		.cfi_def_cfa_offset 8
 430              		.cfi_offset 4, -8
 431              		.cfi_offset 14, -4
 432 0002 041C     		mov	r4, r0
  88:.\motors.c    ****     rightmotor_setspeed(speed);
 433              		.loc 1 88 0
 434 0004 FFF7FEFF 		bl	leftmotor_setspeed
 435              	.LVL44:
  89:.\motors.c    **** }
 436              		.loc 1 89 0
 437 0008 201C     		mov	r0, r4
 438 000a FFF7FEFF 		bl	rightmotor_setspeed
 439              	.LVL45:
  90:.\motors.c    **** 
 440              		.loc 1 90 0
 441              		@ sp needed
 442 000e 10BD     		pop	{r4, pc}
 443              		.cfi_endproc
 444              	.LFE47:
 445              		.size	setspeed, .-setspeed
 446              		.text
 447              	.Letext0:
 448              		.file 2 "Generated_Source\\PSoC4/cytypes.h"
 449              		.file 3 "Generated_Source\\PSoC4/left_control.h"
 450              		.file 4 "Generated_Source\\PSoC4/right_control.h"
 451              		.file 5 "Generated_Source\\PSoC4/left_speedcontroller.h"
 452              		.file 6 "Generated_Source\\PSoC4/right_speedcontroller.h"